---
triple:          'arm64-apple-darwin'
binary-path:     image
relocations:
  - { offsetInCU: 0x26, offset: 0x26, size: 0x8, addend: 0x0, symName: __ZN7GBitmap11setIsOpaqueENS_8IsOpaqueE, symObjAddr: 0x0, symBinAddr: 0x100001628, symSize: 0x90 }
  - { offsetInCU: 0x3224, offset: 0x3224, size: 0x8, addend: 0x0, symName: __ZN7GBitmap11setIsOpaqueENS_8IsOpaqueE, symObjAddr: 0x0, symBinAddr: 0x100001628, symSize: 0x90 }
  - { offsetInCU: 0x3258, offset: 0x3258, size: 0x8, addend: 0x0, symName: __ZN7GBitmap15computeIsOpaqueEv, symObjAddr: 0x90, symBinAddr: 0x1000016B8, symSize: 0x34 }
  - { offsetInCU: 0x327C, offset: 0x327C, size: 0x8, addend: 0x0, symName: __ZN7GBitmap5resetEiimPjNS_8IsOpaqueE, symObjAddr: 0xC4, symBinAddr: 0x1000016EC, symSize: 0x68 }
  - { offsetInCU: 0x32E8, offset: 0x32E8, size: 0x8, addend: 0x0, symName: __ZNK7GBitmap8validateEv, symObjAddr: 0x12C, symBinAddr: 0x100001754, symSize: 0x12C }
  - { offsetInCU: 0x330C, offset: 0x330C, size: 0x8, addend: 0x0, symName: __ZN7GBitmap15ComputeIsOpaqueERKS_, symObjAddr: 0x258, symBinAddr: 0x100001880, symSize: 0x100 }
  - { offsetInCU: 0x3384, offset: 0x3384, size: 0x8, addend: 0x0, symName: __ZNK7GBitmap6heightEv, symObjAddr: 0x358, symBinAddr: 0x100001980, symSize: 0x18 }
  - { offsetInCU: 0x33A8, offset: 0x33A8, size: 0x8, addend: 0x0, symName: __ZNK7GBitmap7getAddrEii, symObjAddr: 0x370, symBinAddr: 0x100001998, symSize: 0x148 }
  - { offsetInCU: 0x33E8, offset: 0x33E8, size: 0x8, addend: 0x0, symName: __ZNK7GBitmap5widthEv, symObjAddr: 0x4B8, symBinAddr: 0x100001AE0, symSize: 0x18 }
  - { offsetInCU: 0x340C, offset: 0x340C, size: 0x8, addend: 0x0, symName: __ZL11GPixel_GetAj, symObjAddr: 0x4D0, symBinAddr: 0x100001AF8, symSize: 0x1C }
  - { offsetInCU: 0x3438, offset: 0x3438, size: 0x8, addend: 0x0, symName: __ZN7GBitmap5allocEiim, symObjAddr: 0x4EC, symBinAddr: 0x100001B14, symSize: 0x15C }
  - { offsetInCU: 0x3488, offset: 0x3488, size: 0x8, addend: 0x0, symName: __ZNK7GBitmap6pixelsEv, symObjAddr: 0x648, symBinAddr: 0x100001C70, symSize: 0x18 }
  - { offsetInCU: 0x34AC, offset: 0x34AC, size: 0x8, addend: 0x0, symName: __ZNK7GBitmap8rowBytesEv, symObjAddr: 0x660, symBinAddr: 0x100001C88, symSize: 0x18 }
  - { offsetInCU: 0x26, offset: 0x350A, size: 0x8, addend: 0x0, symName: __ZNK7GBitmap11writeToFileEPKc, symObjAddr: 0x0, symBinAddr: 0x100001CA0, symSize: 0x194 }
  - { offsetInCU: 0x299F, offset: 0x5E83, size: 0x8, addend: 0x0, symName: __ZNK7GBitmap11writeToFileEPKc, symObjAddr: 0x0, symBinAddr: 0x100001CA0, symSize: 0x194 }
  - { offsetInCU: 0x2A35, offset: 0x5F19, size: 0x8, addend: 0x0, symName: __ZL12convertToPNGPKjiPh, symObjAddr: 0x1DC, symBinAddr: 0x100001E34, symSize: 0x188 }
  - { offsetInCU: 0x2AE9, offset: 0x5FCD, size: 0x8, addend: 0x0, symName: __ZN7GBitmap12readFromFileEPKc, symObjAddr: 0x37C, symBinAddr: 0x100001FBC, symSize: 0x140 }
  - { offsetInCU: 0x2B8D, offset: 0x6071, size: 0x8, addend: 0x0, symName: __ZL16swizzle_rgba_rowPjPKhi, symObjAddr: 0x4BC, symBinAddr: 0x1000020FC, symSize: 0xD0 }
  - { offsetInCU: 0x2C09, offset: 0x60ED, size: 0x8, addend: 0x0, symName: __ZL11GPixel_GetAj, symObjAddr: 0x58C, symBinAddr: 0x1000021CC, symSize: 0x1C }
  - { offsetInCU: 0x2C35, offset: 0x6119, size: 0x8, addend: 0x0, symName: __ZL11GPixel_GetRj, symObjAddr: 0x5A8, symBinAddr: 0x1000021E8, symSize: 0x1C }
  - { offsetInCU: 0x2C61, offset: 0x6145, size: 0x8, addend: 0x0, symName: __ZL11GPixel_GetGj, symObjAddr: 0x5C4, symBinAddr: 0x100002204, symSize: 0x1C }
  - { offsetInCU: 0x2C8D, offset: 0x6171, size: 0x8, addend: 0x0, symName: __ZL11GPixel_GetBj, symObjAddr: 0x5E0, symBinAddr: 0x100002220, symSize: 0x1C }
  - { offsetInCU: 0x2CB9, offset: 0x619D, size: 0x8, addend: 0x0, symName: __ZL15GPixel_PackARGBjjjj, symObjAddr: 0x5FC, symBinAddr: 0x10000223C, symSize: 0x134 }
  - { offsetInCU: 0x2D0F, offset: 0x61F3, size: 0x8, addend: 0x0, symName: __ZL9alpha_muljj, symObjAddr: 0x730, symBinAddr: 0x100002370, symSize: 0x2C }
  - { offsetInCU: 0x7D, offset: 0x62C8, size: 0x8, addend: 0x0, symName: __ZNSt3__18in_placeE, symObjAddr: 0x71CC, symBinAddr: 0x10004DC40, symSize: 0x0 }
  - { offsetInCU: 0x7539, offset: 0xD784, size: 0x8, addend: 0x0, symName: __ZNSt3__111make_sharedB8ue170006I5GPathJNS_6vectorI6GPointNS_9allocatorIS3_EEEENS2_I9GPathVerbNS4_IS7_EEEEEvEENS_10shared_ptrIT_EEDpOT0_, symObjAddr: 0x548, symBinAddr: 0x1000028E4, symSize: 0x48 }
  - { offsetInCU: 0x7592, offset: 0xD7DD, size: 0x8, addend: 0x0, symName: __ZNSt3__111make_sharedB8ue170006I5GPathJNS_6vectorI6GPointNS_9allocatorIS3_EEEERKNS2_I9GPathVerbNS4_IS7_EEEEEvEENS_10shared_ptrIT_EEDpOT0_, symObjAddr: 0x880, symBinAddr: 0x100002C1C, symSize: 0x48 }
  - { offsetInCU: 0x7AE6, offset: 0xDD31, size: 0x8, addend: 0x0, symName: __ZNSt3__134__libcpp_atomic_refcount_decrementB8ue170006IlEET_RS1_, symObjAddr: 0x140C, symBinAddr: 0x1000037A8, symSize: 0x30 }
  - { offsetInCU: 0x7B1C, offset: 0xDD67, size: 0x8, addend: 0x0, symName: __ZNSt3__112__to_addressB8ue170006I6GPointEEPT_S3_, symObjAddr: 0x17A4, symBinAddr: 0x100003B40, symSize: 0x14 }
  - { offsetInCU: 0x7B52, offset: 0xDD9D, size: 0x8, addend: 0x0, symName: __ZNSt3__119__libcpp_deallocateB8ue170006EPvmm, symObjAddr: 0x182C, symBinAddr: 0x100003BC8, symSize: 0x60 }
  - { offsetInCU: 0x7BBC, offset: 0xDE07, size: 0x8, addend: 0x0, symName: __ZNSt3__124__is_overaligned_for_newB8ue170006Em, symObjAddr: 0x188C, symBinAddr: 0x100003C28, symSize: 0x20 }
  - { offsetInCU: 0x7BEC, offset: 0xDE37, size: 0x8, addend: 0x0, symName: __ZNSt3__127__do_deallocate_handle_sizeB8ue170006IJSt11align_val_tEEEvPvmDpT_, symObjAddr: 0x18AC, symBinAddr: 0x100003C48, symSize: 0x30 }
  - { offsetInCU: 0x7C43, offset: 0xDE8E, size: 0x8, addend: 0x0, symName: __ZNSt3__127__do_deallocate_handle_sizeB8ue170006IJEEEvPvmDpT_, symObjAddr: 0x18DC, symBinAddr: 0x100003C78, symSize: 0x28 }
  - { offsetInCU: 0x7C84, offset: 0xDECF, size: 0x8, addend: 0x0, symName: __ZNSt3__124__libcpp_operator_deleteB8ue170006IJPvSt11align_val_tEEEvDpT_, symObjAddr: 0x1904, symBinAddr: 0x100003CA0, symSize: 0x2C }
  - { offsetInCU: 0x7CD0, offset: 0xDF1B, size: 0x8, addend: 0x0, symName: __ZNSt3__124__libcpp_operator_deleteB8ue170006IJPvEEEvDpT_, symObjAddr: 0x1930, symBinAddr: 0x100003CCC, symSize: 0x24 }
  - { offsetInCU: 0x7D07, offset: 0xDF52, size: 0x8, addend: 0x0, symName: __ZNSt3__112__to_addressB8ue170006I9GPathVerbEEPT_S3_, symObjAddr: 0x1C5C, symBinAddr: 0x100003FF8, symSize: 0x14 }
  - { offsetInCU: 0x7D3D, offset: 0xDF88, size: 0x8, addend: 0x0, symName: __ZNSt3__13maxB8ue170006ImEERKT_S3_S3_, symObjAddr: 0x231C, symBinAddr: 0x1000046B8, symSize: 0x2C }
  - { offsetInCU: 0x7D81, offset: 0xDFCC, size: 0x8, addend: 0x0, symName: __ZNSt3__13minB8ue170006ImEERKT_S3_S3_, symObjAddr: 0x2348, symBinAddr: 0x1000046E4, symSize: 0x2C }
  - { offsetInCU: 0x7FB8, offset: 0xE203, size: 0x8, addend: 0x0, symName: __ZNSt3__13minB8ue170006ImNS_6__lessIvvEEEERKT_S5_S5_T0_, symObjAddr: 0x23D4, symBinAddr: 0x100004770, symSize: 0x54 }
  - { offsetInCU: 0x805A, offset: 0xE2A5, size: 0x8, addend: 0x0, symName: __ZNSt3__120__throw_length_errorB8ue170006EPKc, symObjAddr: 0x24B0, symBinAddr: 0x10000484C, symSize: 0x64 }
  - { offsetInCU: 0x8086, offset: 0xE2D1, size: 0x8, addend: 0x0, symName: __ZNSt3__13maxB8ue170006ImNS_6__lessIvvEEEERKT_S5_S5_T0_, symObjAddr: 0x2594, symBinAddr: 0x100004930, symSize: 0x54 }
  - { offsetInCU: 0x80E1, offset: 0xE32C, size: 0x8, addend: 0x0, symName: __ZNSt3__119__allocate_at_leastB8ue170006INS_9allocatorI6GPointEEEENS_19__allocation_resultINS_16allocator_traitsIT_E7pointerEEERS6_m, symObjAddr: 0x26F8, symBinAddr: 0x100004A94, symSize: 0x40 }
  - { offsetInCU: 0x8125, offset: 0xE370, size: 0x8, addend: 0x0, symName: __ZNSt3__117__libcpp_allocateB8ue170006Emm, symObjAddr: 0x2898, symBinAddr: 0x100004C34, symSize: 0x60 }
  - { offsetInCU: 0x8182, offset: 0xE3CD, size: 0x8, addend: 0x0, symName: __ZNSt3__121__libcpp_operator_newB8ue170006IJmSt11align_val_tEEEPvDpT_, symObjAddr: 0x28F8, symBinAddr: 0x100004C94, symSize: 0x2C }
  - { offsetInCU: 0x81D1, offset: 0xE41C, size: 0x8, addend: 0x0, symName: __ZNSt3__121__libcpp_operator_newB8ue170006IJmEEEPvDpT_, symObjAddr: 0x2924, symBinAddr: 0x100004CC0, symSize: 0x24 }
  - { offsetInCU: 0x820B, offset: 0xE456, size: 0x8, addend: 0x0, symName: __ZNSt3__142__uninitialized_allocator_move_if_noexceptB8ue170006INS_9allocatorI6GPointEENS_16reverse_iteratorIPS2_EES6_S2_vEET1_RT_T0_SA_S7_, symObjAddr: 0x29AC, symBinAddr: 0x100004D48, symSize: 0x78 }
  - { offsetInCU: 0x828C, offset: 0xE4D7, size: 0x8, addend: 0x0, symName: __ZNSt3__14swapB8ue170006IP6GPointEENS_9enable_ifIXaasr21is_move_constructibleIT_EE5valuesr18is_move_assignableIS4_EE5valueEvE4typeERS4_S7_, symObjAddr: 0x2A70, symBinAddr: 0x100004E0C, symSize: 0x3C }
  - { offsetInCU: 0x82DE, offset: 0xE529, size: 0x8, addend: 0x0, symName: __ZNSt3__14moveB8ue170006INS_16reverse_iteratorIP6GPointEES4_EET0_T_S6_S5_, symObjAddr: 0x2B58, symBinAddr: 0x100004EF4, symSize: 0x78 }
  - { offsetInCU: 0x8339, offset: 0xE584, size: 0x8, addend: 0x0, symName: __ZNSt3__16__moveB8ue170006INS_17_ClassicAlgPolicyENS_16reverse_iteratorIP6GPointEES5_S5_EENS_4pairIT0_T2_EES7_T1_S8_, symObjAddr: 0x2BD0, symBinAddr: 0x100004F6C, symSize: 0x64 }
  - { offsetInCU: 0x83A6, offset: 0xE5F1, size: 0x8, addend: 0x0, symName: __ZNSt3__123__dispatch_copy_or_moveB8ue170006INS_17_ClassicAlgPolicyENS_11__move_loopIS1_EENS_14__move_trivialENS_16reverse_iteratorIP6GPointEES8_S8_EENS_4pairIT2_T4_EESA_T3_SB_, symObjAddr: 0x2C34, symBinAddr: 0x100004FD0, symSize: 0x64 }
  - { offsetInCU: 0x8425, offset: 0xE670, size: 0x8, addend: 0x0, symName: __ZNSt3__121__unwrap_and_dispatchB8ue170006INS_10__overloadINS_11__move_loopINS_17_ClassicAlgPolicyEEENS_14__move_trivialEEENS_16reverse_iteratorIP6GPointEESA_SA_Li0EEENS_4pairIT0_T2_EESC_T1_SD_, symObjAddr: 0x2C98, symBinAddr: 0x100005034, symSize: 0x12C }
  - { offsetInCU: 0x84B7, offset: 0xE702, size: 0x8, addend: 0x0, symName: __ZNSt3__114__unwrap_rangeB8ue170006INS_16reverse_iteratorIP6GPointEES4_EENS_4pairIT0_S6_EET_S8_, symObjAddr: 0x2DC4, symBinAddr: 0x100005160, symSize: 0x84 }
  - { offsetInCU: 0x8673, offset: 0xE8BE, size: 0x8, addend: 0x0, symName: __ZNSt3__113__unwrap_iterB8ue170006INS_16reverse_iteratorIP6GPointEENS_18__unwrap_iter_implIS4_Lb0EEELi0EEEDTclsrT0_8__unwrapclsr3stdE7declvalIT_EEEES8_, symObjAddr: 0x2EE8, symBinAddr: 0x100005284, symSize: 0x44 }
  - { offsetInCU: 0x86B9, offset: 0xE904, size: 0x8, addend: 0x0, symName: __ZNSt3__19make_pairB8ue170006INS_16reverse_iteratorIP6GPointEES4_EENS_4pairINS_18__unwrap_ref_decayIT_E4typeENS6_IT0_E4typeEEEOS7_OSA_, symObjAddr: 0x2F2C, symBinAddr: 0x1000052C8, symSize: 0x38 }
  - { offsetInCU: 0x870A, offset: 0xE955, size: 0x8, addend: 0x0, symName: __ZNSt3__114__rewrap_rangeB8ue170006INS_16reverse_iteratorIP6GPointEES4_EET_S5_T0_, symObjAddr: 0x2F64, symBinAddr: 0x100005300, symSize: 0x5C }
  - { offsetInCU: 0x8757, offset: 0xE9A2, size: 0x8, addend: 0x0, symName: __ZNSt3__113__rewrap_iterB8ue170006INS_16reverse_iteratorIP6GPointEES4_NS_18__unwrap_iter_implIS4_Lb0EEEEET_S7_T0_, symObjAddr: 0x2FC0, symBinAddr: 0x10000535C, symSize: 0x74 }
  - { offsetInCU: 0x87AD, offset: 0xE9F8, size: 0x8, addend: 0x0, symName: __ZNSt3__1neB8ue170006IP6GPointS2_EEbRKNS_16reverse_iteratorIT_EERKNS3_IT0_EE, symObjAddr: 0x3034, symBinAddr: 0x1000053D0, symSize: 0x48 }
  - { offsetInCU: 0x88E0, offset: 0xEB2B, size: 0x8, addend: 0x0, symName: __ZNSt3__119__allocate_at_leastB8ue170006INS_9allocatorI9GPathVerbEEEENS_19__allocation_resultINS_16allocator_traitsIT_E7pointerEEERS6_m, symObjAddr: 0x3B0C, symBinAddr: 0x100005EA8, symSize: 0x40 }
  - { offsetInCU: 0x8924, offset: 0xEB6F, size: 0x8, addend: 0x0, symName: __ZNSt3__142__uninitialized_allocator_move_if_noexceptB8ue170006INS_9allocatorI9GPathVerbEENS_16reverse_iteratorIPS2_EES6_S2_vEET1_RT_T0_SA_S7_, symObjAddr: 0x3D94, symBinAddr: 0x100006130, symSize: 0x78 }
  - { offsetInCU: 0x89A5, offset: 0xEBF0, size: 0x8, addend: 0x0, symName: __ZNSt3__14swapB8ue170006IP9GPathVerbEENS_9enable_ifIXaasr21is_move_constructibleIT_EE5valuesr18is_move_assignableIS4_EE5valueEvE4typeERS4_S7_, symObjAddr: 0x3E58, symBinAddr: 0x1000061F4, symSize: 0x3C }
  - { offsetInCU: 0x89F7, offset: 0xEC42, size: 0x8, addend: 0x0, symName: __ZNSt3__14moveB8ue170006INS_16reverse_iteratorIP9GPathVerbEES4_EET0_T_S6_S5_, symObjAddr: 0x3F40, symBinAddr: 0x1000062DC, symSize: 0x78 }
  - { offsetInCU: 0x8A52, offset: 0xEC9D, size: 0x8, addend: 0x0, symName: __ZNSt3__16__moveB8ue170006INS_17_ClassicAlgPolicyENS_16reverse_iteratorIP9GPathVerbEES5_S5_EENS_4pairIT0_T2_EES7_T1_S8_, symObjAddr: 0x3FB8, symBinAddr: 0x100006354, symSize: 0x64 }
  - { offsetInCU: 0x8ABF, offset: 0xED0A, size: 0x8, addend: 0x0, symName: __ZNSt3__123__dispatch_copy_or_moveB8ue170006INS_17_ClassicAlgPolicyENS_11__move_loopIS1_EENS_14__move_trivialENS_16reverse_iteratorIP9GPathVerbEES8_S8_EENS_4pairIT2_T4_EESA_T3_SB_, symObjAddr: 0x401C, symBinAddr: 0x1000063B8, symSize: 0x64 }
  - { offsetInCU: 0x8B3E, offset: 0xED89, size: 0x8, addend: 0x0, symName: __ZNSt3__121__unwrap_and_dispatchB8ue170006INS_10__overloadINS_11__move_loopINS_17_ClassicAlgPolicyEEENS_14__move_trivialEEENS_16reverse_iteratorIP9GPathVerbEESA_SA_Li0EEENS_4pairIT0_T2_EESC_T1_SD_, symObjAddr: 0x4080, symBinAddr: 0x10000641C, symSize: 0x12C }
  - { offsetInCU: 0x8BD0, offset: 0xEE1B, size: 0x8, addend: 0x0, symName: __ZNSt3__114__unwrap_rangeB8ue170006INS_16reverse_iteratorIP9GPathVerbEES4_EENS_4pairIT0_S6_EET_S8_, symObjAddr: 0x41AC, symBinAddr: 0x100006548, symSize: 0x84 }
  - { offsetInCU: 0x8CF2, offset: 0xEF3D, size: 0x8, addend: 0x0, symName: __ZNSt3__113__unwrap_iterB8ue170006INS_16reverse_iteratorIP9GPathVerbEENS_18__unwrap_iter_implIS4_Lb0EEELi0EEEDTclsrT0_8__unwrapclsr3stdE7declvalIT_EEEES8_, symObjAddr: 0x42D0, symBinAddr: 0x10000666C, symSize: 0x44 }
  - { offsetInCU: 0x8D38, offset: 0xEF83, size: 0x8, addend: 0x0, symName: __ZNSt3__19make_pairB8ue170006INS_16reverse_iteratorIP9GPathVerbEES4_EENS_4pairINS_18__unwrap_ref_decayIT_E4typeENS6_IT0_E4typeEEEOS7_OSA_, symObjAddr: 0x4314, symBinAddr: 0x1000066B0, symSize: 0x38 }
  - { offsetInCU: 0x8D89, offset: 0xEFD4, size: 0x8, addend: 0x0, symName: __ZNSt3__114__rewrap_rangeB8ue170006INS_16reverse_iteratorIP9GPathVerbEES4_EET_S5_T0_, symObjAddr: 0x434C, symBinAddr: 0x1000066E8, symSize: 0x5C }
  - { offsetInCU: 0x8DD6, offset: 0xF021, size: 0x8, addend: 0x0, symName: __ZNSt3__113__rewrap_iterB8ue170006INS_16reverse_iteratorIP9GPathVerbEES4_NS_18__unwrap_iter_implIS4_Lb0EEEEET_S7_T0_, symObjAddr: 0x43A8, symBinAddr: 0x100006744, symSize: 0x74 }
  - { offsetInCU: 0x8E2C, offset: 0xF077, size: 0x8, addend: 0x0, symName: __ZNSt3__1neB8ue170006IP9GPathVerbS2_EEbRKNS_16reverse_iteratorIT_EERKNS3_IT0_EE, symObjAddr: 0x441C, symBinAddr: 0x1000067B8, symSize: 0x48 }
  - { offsetInCU: 0x8EE6, offset: 0xF131, size: 0x8, addend: 0x0, symName: __ZNSt3__115allocate_sharedB8ue170006I5GPathNS_9allocatorIS1_EEJNS_6vectorI6GPointNS2_IS5_EEEENS4_I9GPathVerbNS2_IS8_EEEEEvEENS_10shared_ptrIT_EERKT0_DpOT1_, symObjAddr: 0x4820, symBinAddr: 0x100006BBC, symSize: 0xA0 }
  - { offsetInCU: 0x92CF, offset: 0xF51A, size: 0x8, addend: 0x0, symName: __ZNSt3__121__libcpp_relaxed_loadB8ue170006IlEET_PKS1_, symObjAddr: 0x593C, symBinAddr: 0x100007CD8, symSize: 0x20 }
  - { offsetInCU: 0x9305, offset: 0xF550, size: 0x8, addend: 0x0, symName: __ZNSt3__134__libcpp_atomic_refcount_incrementB8ue170006IlEET_RS1_, symObjAddr: 0x5A18, symBinAddr: 0x100007DB4, symSize: 0x30 }
  - { offsetInCU: 0x93B0, offset: 0xF5FB, size: 0x8, addend: 0x0, symName: __ZNSt3__14swapB8ue170006IP5GPathEENS_9enable_ifIXaasr21is_move_constructibleIT_EE5valuesr18is_move_assignableIS4_EE5valueEvE4typeERS4_S7_, symObjAddr: 0x5B64, symBinAddr: 0x100007F00, symSize: 0x3C }
  - { offsetInCU: 0x9402, offset: 0xF64D, size: 0x8, addend: 0x0, symName: __ZNSt3__14swapB8ue170006IPNS_19__shared_weak_countEEENS_9enable_ifIXaasr21is_move_constructibleIT_EE5valuesr18is_move_assignableIS4_EE5valueEvE4typeERS4_S7_, symObjAddr: 0x5BA0, symBinAddr: 0x100007F3C, symSize: 0x3C }
  - { offsetInCU: 0x9454, offset: 0xF69F, size: 0x8, addend: 0x0, symName: __ZNSt3__120__throw_bad_weak_ptrB8ue170006Ev, symObjAddr: 0x5DB8, symBinAddr: 0x100008154, symSize: 0x38 }
  - { offsetInCU: 0x94D8, offset: 0xF723, size: 0x8, addend: 0x0, symName: __ZNSt3__122__make_exception_guardB8ue170006INS_6vectorI6GPointNS_9allocatorIS2_EEE16__destroy_vectorEEENS_28__exception_guard_exceptionsIT_EES8_, symObjAddr: 0x5F94, symBinAddr: 0x100008330, symSize: 0x40 }
  - { offsetInCU: 0x950E, offset: 0xF759, size: 0x8, addend: 0x0, symName: __ZNSt3__115allocate_sharedB8ue170006I5GPathNS_9allocatorIS1_EEJNS_6vectorI6GPointNS2_IS5_EEEERKNS4_I9GPathVerbNS2_IS8_EEEEEvEENS_10shared_ptrIT_EERKT0_DpOT1_, symObjAddr: 0x6324, symBinAddr: 0x1000086C0, symSize: 0xA0 }
  - { offsetInCU: 0x95A0, offset: 0xF7EB, size: 0x8, addend: 0x0, symName: __ZNSt3__122__make_exception_guardB8ue170006INS_6vectorI9GPathVerbNS_9allocatorIS2_EEE16__destroy_vectorEEENS_28__exception_guard_exceptionsIT_EES8_, symObjAddr: 0x66A4, symBinAddr: 0x100008A40, symSize: 0x40 }
  - { offsetInCU: 0x95D6, offset: 0xF821, size: 0x8, addend: 0x0, symName: __ZNSt3__130__uninitialized_allocator_copyB8ue170006INS_9allocatorI9GPathVerbEEPS2_S4_S4_EET2_RT_T0_T1_S5_, symObjAddr: 0x68BC, symBinAddr: 0x100008C58, symSize: 0x80 }
  - { offsetInCU: 0x9679, offset: 0xF8C4, size: 0x8, addend: 0x0, symName: __ZNSt3__114__unwrap_rangeB8ue170006IP9GPathVerbS2_EENS_4pairIT0_S4_EET_S6_, symObjAddr: 0x693C, symBinAddr: 0x100008CD8, symSize: 0x60 }
  - { offsetInCU: 0x96C6, offset: 0xF911, size: 0x8, addend: 0x0, symName: __ZNSt3__135__uninitialized_allocator_copy_implB8ue170006INS_9allocatorI9GPathVerbEES2_S2_S2_LPv0EEEPT2_RT_PT0_SA_S6_, symObjAddr: 0x699C, symBinAddr: 0x100008D38, symSize: 0x38 }
  - { offsetInCU: 0x974C, offset: 0xF997, size: 0x8, addend: 0x0, symName: __ZNSt3__113__unwrap_iterB8ue170006IP9GPathVerbNS_18__unwrap_iter_implIS2_Lb1EEELi0EEEDTclsrT0_8__unwrapclsr3stdE7declvalIT_EEEES6_, symObjAddr: 0x69D4, symBinAddr: 0x100008D70, symSize: 0x24 }
  - { offsetInCU: 0x9792, offset: 0xF9DD, size: 0x8, addend: 0x0, symName: __ZNSt3__113__rewrap_iterB8ue170006IP9GPathVerbS2_NS_18__unwrap_iter_implIS2_Lb1EEEEET_S5_T0_, symObjAddr: 0x69F8, symBinAddr: 0x100008D94, symSize: 0x3C }
  - { offsetInCU: 0x97E8, offset: 0xFA33, size: 0x8, addend: 0x0, symName: __ZNSt3__19make_pairB8ue170006IP9GPathVerbS2_EENS_4pairINS_18__unwrap_ref_decayIT_E4typeENS4_IT0_E4typeEEEOS5_OS8_, symObjAddr: 0x6A34, symBinAddr: 0x100008DD0, symSize: 0x38 }
  - { offsetInCU: 0x993E, offset: 0xFB89, size: 0x8, addend: 0x0, symName: __ZNSt3__14copyB8ue170006IP9GPathVerbS2_EET0_T_S4_S3_, symObjAddr: 0x6ADC, symBinAddr: 0x100008E78, symSize: 0x40 }
  - { offsetInCU: 0x9999, offset: 0xFBE4, size: 0x8, addend: 0x0, symName: __ZNSt3__16__copyB8ue170006INS_17_ClassicAlgPolicyEP9GPathVerbS3_S3_EENS_4pairIT0_T2_EES5_T1_S6_, symObjAddr: 0x6B1C, symBinAddr: 0x100008EB8, symSize: 0x44 }
  - { offsetInCU: 0x9A06, offset: 0xFC51, size: 0x8, addend: 0x0, symName: __ZNSt3__123__dispatch_copy_or_moveB8ue170006INS_17_ClassicAlgPolicyENS_11__copy_loopIS1_EENS_14__copy_trivialEP9GPathVerbS6_S6_EENS_4pairIT2_T4_EES8_T3_S9_, symObjAddr: 0x6B60, symBinAddr: 0x100008EFC, symSize: 0x44 }
  - { offsetInCU: 0x9A85, offset: 0xFCD0, size: 0x8, addend: 0x0, symName: __ZNSt3__121__unwrap_and_dispatchB8ue170006INS_10__overloadINS_11__copy_loopINS_17_ClassicAlgPolicyEEENS_14__copy_trivialEEEP9GPathVerbS8_S8_Li0EEENS_4pairIT0_T2_EESA_T1_SB_, symObjAddr: 0x6BA4, symBinAddr: 0x100008F40, symSize: 0xB4 }
  - { offsetInCU: 0x9B5C, offset: 0xFDA7, size: 0x8, addend: 0x0, symName: __ZNSt3__114__rewrap_rangeB8ue170006IP9GPathVerbS2_EET_S3_T0_, symObjAddr: 0x6CA0, symBinAddr: 0x10000903C, symSize: 0x2C }
  - { offsetInCU: 0x9BA9, offset: 0xFDF4, size: 0x8, addend: 0x0, symName: __ZNSt3__119__copy_trivial_implB8ue170006I9GPathVerbS1_EENS_4pairIPT_PT0_EES4_S4_S6_, symObjAddr: 0x6CCC, symBinAddr: 0x100009068, symSize: 0x80 }
  - { offsetInCU: 0x9C12, offset: 0xFE5D, size: 0x8, addend: 0x0, symName: __ZNSt3__119__constexpr_memmoveB8ue170006I9GPathVerbS1_Li0EEEPT_S3_PT0_NS_15__element_countE, symObjAddr: 0x6D4C, symBinAddr: 0x1000090E8, symSize: 0x64 }
  - { offsetInCU: 0x9C82, offset: 0xFECD, size: 0x8, addend: 0x0, symName: __ZNSt3__19make_pairB8ue170006IRP9GPathVerbS2_EENS_4pairINS_18__unwrap_ref_decayIT_E4typeENS5_IT0_E4typeEEEOS6_OS9_, symObjAddr: 0x6DB0, symBinAddr: 0x10000914C, symSize: 0x38 }
  - { offsetInCU: 0xA2B2, offset: 0x104FD, size: 0x8, addend: 0x0, symName: __ZSt28__throw_bad_array_new_lengthB8ue170006v, symObjAddr: 0x2864, symBinAddr: 0x100004C00, symSize: 0x34 }
  - { offsetInCU: 0xB096, offset: 0x112E1, size: 0x8, addend: 0x0, symName: __ZNSt3__16vectorI6GPointNS_9allocatorIS1_EEE26__swap_out_circular_bufferERNS_14__split_bufferIS1_RS3_EE, symObjAddr: 0x2164, symBinAddr: 0x100004500, symSize: 0x110 }
  - { offsetInCU: 0xB0ED, offset: 0x11338, size: 0x8, addend: 0x0, symName: __ZNSt3__16vectorI9GPathVerbNS_9allocatorIS1_EEE26__swap_out_circular_bufferERNS_14__split_bufferIS1_RS3_EE, symObjAddr: 0x37AC, symBinAddr: 0x100005B48, symSize: 0x110 }
  - { offsetInCU: 0xB1DD, offset: 0x11428, size: 0x8, addend: 0x0, symName: __ZNSt3__110shared_ptrI5GPathE18__enable_weak_thisB8ue170006IS1_S1_vEEvPKNS_23enable_shared_from_thisIT_EEPT0_, symObjAddr: 0x5750, symBinAddr: 0x100007AEC, symSize: 0x7C }
  - { offsetInCU: 0xD2A9, offset: 0x134F4, size: 0x8, addend: 0x0, symName: __ZN12GPathBuilder5resetEv, symObjAddr: 0x0, symBinAddr: 0x10000239C, symSize: 0x34 }
  - { offsetInCU: 0xD2CF, offset: 0x1351A, size: 0x8, addend: 0x0, symName: __ZNSt3__16vectorI6GPointNS_9allocatorIS1_EEE5clearB8ue170006Ev, symObjAddr: 0x34, symBinAddr: 0x1000023D0, symSize: 0x44 }
  - { offsetInCU: 0xD303, offset: 0x1354E, size: 0x8, addend: 0x0, symName: __ZNSt3__16vectorI9GPathVerbNS_9allocatorIS1_EEE5clearB8ue170006Ev, symObjAddr: 0x78, symBinAddr: 0x100002414, symSize: 0x44 }
  - { offsetInCU: 0xD337, offset: 0x13582, size: 0x8, addend: 0x0, symName: __ZN12GPathBuilder6moveToE6GPoint, symObjAddr: 0xBC, symBinAddr: 0x100002458, symSize: 0x48 }
  - { offsetInCU: 0xD36B, offset: 0x135B6, size: 0x8, addend: 0x0, symName: __ZNSt3__16vectorI6GPointNS_9allocatorIS1_EEE9push_backB8ue170006ERKS1_, symObjAddr: 0x104, symBinAddr: 0x1000024A0, symSize: 0x6C }
  - { offsetInCU: 0xD3A2, offset: 0x135ED, size: 0x8, addend: 0x0, symName: __ZNSt3__16vectorI9GPathVerbNS_9allocatorIS1_EEE9push_backB8ue170006EOS1_, symObjAddr: 0x170, symBinAddr: 0x10000250C, symSize: 0x6C }
  - { offsetInCU: 0xD3D9, offset: 0x13624, size: 0x8, addend: 0x0, symName: __ZN12GPathBuilder6lineToE6GPoint, symObjAddr: 0x1DC, symBinAddr: 0x100002578, symSize: 0x8C }
  - { offsetInCU: 0xD40D, offset: 0x13658, size: 0x8, addend: 0x0, symName: __ZNKSt3__16vectorI9GPathVerbNS_9allocatorIS1_EEE4sizeB8ue170006Ev, symObjAddr: 0x268, symBinAddr: 0x100002604, symSize: 0x28 }
  - { offsetInCU: 0xD431, offset: 0x1367C, size: 0x8, addend: 0x0, symName: __ZN12GPathBuilder6quadToE6GPointS0_, symObjAddr: 0x290, symBinAddr: 0x10000262C, symSize: 0xA0 }
  - { offsetInCU: 0xD473, offset: 0x136BE, size: 0x8, addend: 0x0, symName: __ZN12GPathBuilder7cubicToE6GPointS0_S0_, symObjAddr: 0x330, symBinAddr: 0x1000026CC, symSize: 0xB4 }
  - { offsetInCU: 0xD4C3, offset: 0x1370E, size: 0x8, addend: 0x0, symName: __ZN12GPathBuilder9transformERK7GMatrix, symObjAddr: 0x3E4, symBinAddr: 0x100002780, symSize: 0x58 }
  - { offsetInCU: 0xD4F7, offset: 0x13742, size: 0x8, addend: 0x0, symName: __ZNK7GMatrix9mapPointsEP6GPointi, symObjAddr: 0x43C, symBinAddr: 0x1000027D8, symSize: 0x38 }
  - { offsetInCU: 0xD537, offset: 0x13782, size: 0x8, addend: 0x0, symName: __ZNSt3__16vectorI6GPointNS_9allocatorIS1_EEE4dataB8ue170006Ev, symObjAddr: 0x474, symBinAddr: 0x100002810, symSize: 0x28 }
  - { offsetInCU: 0xD55B, offset: 0x137A6, size: 0x8, addend: 0x0, symName: __ZNKSt3__16vectorI6GPointNS_9allocatorIS1_EEE4sizeB8ue170006Ev, symObjAddr: 0x49C, symBinAddr: 0x100002838, symSize: 0x28 }
  - { offsetInCU: 0xD57F, offset: 0x137CA, size: 0x8, addend: 0x0, symName: __ZN12GPathBuilder6detachEv, symObjAddr: 0x4C4, symBinAddr: 0x100002860, symSize: 0x84 }
  - { offsetInCU: 0xD5B4, offset: 0x137FF, size: 0x8, addend: 0x0, symName: __ZNSt3__110shared_ptrI5GPathED1B8ue170006Ev, symObjAddr: 0x590, symBinAddr: 0x10000292C, symSize: 0x2C }
  - { offsetInCU: 0xD5DD, offset: 0x13828, size: 0x8, addend: 0x0, symName: __ZNK5GPath9transformERK7GMatrix, symObjAddr: 0x5BC, symBinAddr: 0x100002958, symSize: 0x10C }
  - { offsetInCU: 0xD61F, offset: 0x1386A, size: 0x8, addend: 0x0, symName: __ZNKSt3__16vectorI6GPointNS_9allocatorIS1_EEE5emptyB8ue170006Ev, symObjAddr: 0x6C8, symBinAddr: 0x100002A64, symSize: 0x28 }
  - { offsetInCU: 0xD643, offset: 0x1388E, size: 0x8, addend: 0x0, symName: __ZL11is_identityRK7GMatrix, symObjAddr: 0x6F0, symBinAddr: 0x100002A8C, symSize: 0xFC }
  - { offsetInCU: 0xD66F, offset: 0x138BA, size: 0x8, addend: 0x0, symName: __ZNSt3__123enable_shared_from_thisI5GPathE16shared_from_thisB8ue170006Ev, symObjAddr: 0x7EC, symBinAddr: 0x100002B88, symSize: 0x38 }
  - { offsetInCU: 0xD693, offset: 0x138DE, size: 0x8, addend: 0x0, symName: __ZNSt3__16vectorI6GPointNS_9allocatorIS1_EEEC1Em, symObjAddr: 0x824, symBinAddr: 0x100002BC0, symSize: 0x34 }
  - { offsetInCU: 0xD6CE, offset: 0x13919, size: 0x8, addend: 0x0, symName: __ZNKSt3__16vectorI6GPointNS_9allocatorIS1_EEE4dataB8ue170006Ev, symObjAddr: 0x858, symBinAddr: 0x100002BF4, symSize: 0x28 }
  - { offsetInCU: 0xD6F2, offset: 0x1393D, size: 0x8, addend: 0x0, symName: __ZNSt3__16vectorI6GPointNS_9allocatorIS1_EEED1B8ue170006Ev, symObjAddr: 0x8C8, symBinAddr: 0x100002C64, symSize: 0x2C }
  - { offsetInCU: 0xD789, offset: 0x139D4, size: 0x8, addend: 0x0, symName: __ZN5GPath4IterC2ERKS_, symObjAddr: 0x8F4, symBinAddr: 0x100002C90, symSize: 0x78 }
  - { offsetInCU: 0xD7C2, offset: 0x13A0D, size: 0x8, addend: 0x0, symName: __ZNKSt3__16vectorI9GPathVerbNS_9allocatorIS1_EEE4dataB8ue170006Ev, symObjAddr: 0x96C, symBinAddr: 0x100002D08, symSize: 0x28 }
  - { offsetInCU: 0xD7E6, offset: 0x13A31, size: 0x8, addend: 0x0, symName: __ZN5GPath4IterC1ERKS_, symObjAddr: 0x994, symBinAddr: 0x100002D30, symSize: 0x34 }
  - { offsetInCU: 0xD81F, offset: 0x13A6A, size: 0x8, addend: 0x0, symName: __ZN5GPath4Iter4nextEP6GPoint, symObjAddr: 0x9C8, symBinAddr: 0x100002D64, symSize: 0x1E4 }
  - { offsetInCU: 0xD861, offset: 0x13AAC, size: 0x8, addend: 0x0, symName: __ZNSt3__18optionalI9GPathVerbEC1B8ue170006Ev, symObjAddr: 0xBBC, symBinAddr: 0x100002F58, symSize: 0x2C }
  - { offsetInCU: 0xD890, offset: 0x13ADB, size: 0x8, addend: 0x0, symName: __ZNSt3__18optionalI9GPathVerbEC1B8ue170006IS1_Li0EEEOT_, symObjAddr: 0xBE8, symBinAddr: 0x100002F84, symSize: 0x34 }
  - { offsetInCU: 0xD8DE, offset: 0x13B29, size: 0x8, addend: 0x0, symName: __ZN5GPath5EdgerC2ERKS_, symObjAddr: 0xC1C, symBinAddr: 0x100002FB8, symSize: 0x84 }
  - { offsetInCU: 0xD917, offset: 0x13B62, size: 0x8, addend: 0x0, symName: __ZN5GPath5EdgerC1ERKS_, symObjAddr: 0xCA0, symBinAddr: 0x10000303C, symSize: 0x34 }
  - { offsetInCU: 0xD950, offset: 0x13B9B, size: 0x8, addend: 0x0, symName: __ZN5GPath5Edger4nextEP6GPoint, symObjAddr: 0xCD4, symBinAddr: 0x100003070, symSize: 0x300 }
  - { offsetInCU: 0xD992, offset: 0x13BDD, size: 0x8, addend: 0x0, symName: __ZNK7GMatrixixEi, symObjAddr: 0xFE4, symBinAddr: 0x100003380, symSize: 0x94 }
  - { offsetInCU: 0xD9C4, offset: 0x13C0F, size: 0x8, addend: 0x0, symName: __ZNSt3__18optionalI9GPathVerbEC2B8ue170006Ev, symObjAddr: 0x1078, symBinAddr: 0x100003414, symSize: 0x2C }
  - { offsetInCU: 0xD9F2, offset: 0x13C3D, size: 0x8, addend: 0x0, symName: __ZNSt3__127__optional_move_assign_baseI9GPathVerbLb1EEC2Ev, symObjAddr: 0x10A4, symBinAddr: 0x100003440, symSize: 0x2C }
  - { offsetInCU: 0xDA23, offset: 0x13C6E, size: 0x8, addend: 0x0, symName: __ZNSt3__127__optional_copy_assign_baseI9GPathVerbLb1EEC2Ev, symObjAddr: 0x10D0, symBinAddr: 0x10000346C, symSize: 0x2C }
  - { offsetInCU: 0xDA54, offset: 0x13C9F, size: 0x8, addend: 0x0, symName: __ZNSt3__120__optional_move_baseI9GPathVerbLb1EEC2Ev, symObjAddr: 0x10FC, symBinAddr: 0x100003498, symSize: 0x2C }
  - { offsetInCU: 0xDA85, offset: 0x13CD0, size: 0x8, addend: 0x0, symName: __ZNSt3__120__optional_copy_baseI9GPathVerbLb1EEC2Ev, symObjAddr: 0x1128, symBinAddr: 0x1000034C4, symSize: 0x2C }
  - { offsetInCU: 0xDAB1, offset: 0x13CFC, size: 0x8, addend: 0x0, symName: __ZNSt3__123__optional_storage_baseI9GPathVerbLb0EEC2Ev, symObjAddr: 0x1154, symBinAddr: 0x1000034F0, symSize: 0x2C }
  - { offsetInCU: 0xDADD, offset: 0x13D28, size: 0x8, addend: 0x0, symName: __ZNSt3__124__optional_destruct_baseI9GPathVerbLb1EEC2B8ue170006Ev, symObjAddr: 0x1180, symBinAddr: 0x10000351C, symSize: 0x1C }
  - { offsetInCU: 0xDB06, offset: 0x13D51, size: 0x8, addend: 0x0, symName: __ZNSt3__18optionalI9GPathVerbEC2B8ue170006IS1_Li0EEEOT_, symObjAddr: 0x119C, symBinAddr: 0x100003538, symSize: 0x34 }
  - { offsetInCU: 0xDB4F, offset: 0x13D9A, size: 0x8, addend: 0x0, symName: __ZNSt3__127__optional_move_assign_baseI9GPathVerbLb1EECI2NS_24__optional_destruct_baseIS1_Lb1EEEIJS1_EEENS_10in_place_tEDpOT_, symObjAddr: 0x11D0, symBinAddr: 0x10000356C, symSize: 0x34 }
  - { offsetInCU: 0xDB8D, offset: 0x13DD8, size: 0x8, addend: 0x0, symName: __ZNSt3__127__optional_copy_assign_baseI9GPathVerbLb1EECI2NS_24__optional_destruct_baseIS1_Lb1EEEIJS1_EEENS_10in_place_tEDpOT_, symObjAddr: 0x1204, symBinAddr: 0x1000035A0, symSize: 0x34 }
  - { offsetInCU: 0xDBCB, offset: 0x13E16, size: 0x8, addend: 0x0, symName: __ZNSt3__120__optional_move_baseI9GPathVerbLb1EECI2NS_24__optional_destruct_baseIS1_Lb1EEEIJS1_EEENS_10in_place_tEDpOT_, symObjAddr: 0x1238, symBinAddr: 0x1000035D4, symSize: 0x34 }
  - { offsetInCU: 0xDC09, offset: 0x13E54, size: 0x8, addend: 0x0, symName: __ZNSt3__120__optional_copy_baseI9GPathVerbLb1EECI2NS_24__optional_destruct_baseIS1_Lb1EEEIJS1_EEENS_10in_place_tEDpOT_, symObjAddr: 0x126C, symBinAddr: 0x100003608, symSize: 0x34 }
  - { offsetInCU: 0xDC47, offset: 0x13E92, size: 0x8, addend: 0x0, symName: __ZNSt3__123__optional_storage_baseI9GPathVerbLb0EECI2NS_24__optional_destruct_baseIS1_Lb1EEEIJS1_EEENS_10in_place_tEDpOT_, symObjAddr: 0x12A0, symBinAddr: 0x10000363C, symSize: 0x34 }
  - { offsetInCU: 0xDC85, offset: 0x13ED0, size: 0x8, addend: 0x0, symName: __ZNSt3__124__optional_destruct_baseI9GPathVerbLb1EEC2B8ue170006IJS1_EEENS_10in_place_tEDpOT_, symObjAddr: 0x12D4, symBinAddr: 0x100003670, symSize: 0x2C }
  - { offsetInCU: 0xDCD5, offset: 0x13F20, size: 0x8, addend: 0x0, symName: __ZNSt3__110shared_ptrI5GPathED2B8ue170006Ev, symObjAddr: 0x1300, symBinAddr: 0x10000369C, symSize: 0x54 }
  - { offsetInCU: 0xDCFE, offset: 0x13F49, size: 0x8, addend: 0x0, symName: __ZNSt3__119__shared_weak_count16__release_sharedB8ue170006Ev, symObjAddr: 0x1354, symBinAddr: 0x1000036F0, symSize: 0x3C }
  - { offsetInCU: 0xDD22, offset: 0x13F6D, size: 0x8, addend: 0x0, symName: __ZNSt3__114__shared_count16__release_sharedB8ue170006Ev, symObjAddr: 0x1390, symBinAddr: 0x10000372C, symSize: 0x7C }
  - { offsetInCU: 0xDD46, offset: 0x13F91, size: 0x8, addend: 0x0, symName: __ZNSt3__16vectorI6GPointNS_9allocatorIS1_EEED2B8ue170006Ev, symObjAddr: 0x143C, symBinAddr: 0x1000037D8, symSize: 0x44 }
  - { offsetInCU: 0xDD6F, offset: 0x13FBA, size: 0x8, addend: 0x0, symName: __ZNSt3__16vectorI6GPointNS_9allocatorIS1_EEE16__destroy_vectorC1B8ue170006ERS4_, symObjAddr: 0x1480, symBinAddr: 0x10000381C, symSize: 0x34 }
  - { offsetInCU: 0xDDA8, offset: 0x13FF3, size: 0x8, addend: 0x0, symName: __ZNSt3__16vectorI6GPointNS_9allocatorIS1_EEE16__destroy_vectorclB8ue170006Ev, symObjAddr: 0x14C0, symBinAddr: 0x10000385C, symSize: 0x90 }
  - { offsetInCU: 0xDDCC, offset: 0x14017, size: 0x8, addend: 0x0, symName: __ZNSt3__16vectorI6GPointNS_9allocatorIS1_EEE16__destroy_vectorC2B8ue170006ERS4_, symObjAddr: 0x1550, symBinAddr: 0x1000038EC, symSize: 0x20 }
  - { offsetInCU: 0xDE05, offset: 0x14050, size: 0x8, addend: 0x0, symName: __ZNSt3__16vectorI6GPointNS_9allocatorIS1_EEE7__clearB8ue170006Ev, symObjAddr: 0x1570, symBinAddr: 0x10000390C, symSize: 0x28 }
  - { offsetInCU: 0xDE29, offset: 0x14074, size: 0x8, addend: 0x0, symName: __ZNKSt3__16vectorI6GPointNS_9allocatorIS1_EEE17__annotate_deleteB8ue170006Ev, symObjAddr: 0x1598, symBinAddr: 0x100003934, symSize: 0xB8 }
  - { offsetInCU: 0xDE4D, offset: 0x14098, size: 0x8, addend: 0x0, symName: __ZNSt3__116allocator_traitsINS_9allocatorI6GPointEEE10deallocateB8ue170006ERS3_PS2_m, symObjAddr: 0x1650, symBinAddr: 0x1000039EC, symSize: 0x34 }
  - { offsetInCU: 0xDE92, offset: 0x140DD, size: 0x8, addend: 0x0, symName: __ZNSt3__16vectorI6GPointNS_9allocatorIS1_EEE7__allocB8ue170006Ev, symObjAddr: 0x1684, symBinAddr: 0x100003A20, symSize: 0x28 }
  - { offsetInCU: 0xDEB6, offset: 0x14101, size: 0x8, addend: 0x0, symName: __ZNKSt3__16vectorI6GPointNS_9allocatorIS1_EEE8capacityB8ue170006Ev, symObjAddr: 0x16AC, symBinAddr: 0x100003A48, symSize: 0x40 }
  - { offsetInCU: 0xDEDA, offset: 0x14125, size: 0x8, addend: 0x0, symName: __ZNSt3__16vectorI6GPointNS_9allocatorIS1_EEE22__base_destruct_at_endB8ue170006EPS1_, symObjAddr: 0x16EC, symBinAddr: 0x100003A88, symSize: 0x8C }
  - { offsetInCU: 0xDF1E, offset: 0x14169, size: 0x8, addend: 0x0, symName: __ZNSt3__116allocator_traitsINS_9allocatorI6GPointEEE7destroyB8ue170006IS2_vEEvRS3_PT_, symObjAddr: 0x1778, symBinAddr: 0x100003B14, symSize: 0x2C }
  - { offsetInCU: 0xDF5D, offset: 0x141A8, size: 0x8, addend: 0x0, symName: __ZNSt3__19allocatorI6GPointE7destroyB8ue170006EPS1_, symObjAddr: 0x17B8, symBinAddr: 0x100003B54, symSize: 0x14 }
  - { offsetInCU: 0xDF8F, offset: 0x141DA, size: 0x8, addend: 0x0, symName: __ZNKSt3__16vectorI6GPointNS_9allocatorIS1_EEE31__annotate_contiguous_containerB8ue170006EPKvS6_S6_S6_, symObjAddr: 0x17CC, symBinAddr: 0x100003B68, symSize: 0x20 }
  - { offsetInCU: 0xDFE3, offset: 0x1422E, size: 0x8, addend: 0x0, symName: __ZNSt3__19allocatorI6GPointE10deallocateB8ue170006EPS1_m, symObjAddr: 0x17EC, symBinAddr: 0x100003B88, symSize: 0x40 }
  - { offsetInCU: 0xE023, offset: 0x1426E, size: 0x8, addend: 0x0, symName: __ZNSt3__117__compressed_pairIP6GPointNS_9allocatorIS1_EEE6secondB8ue170006Ev, symObjAddr: 0x1954, symBinAddr: 0x100003CF0, symSize: 0x24 }
  - { offsetInCU: 0xE047, offset: 0x14292, size: 0x8, addend: 0x0, symName: __ZNSt3__122__compressed_pair_elemINS_9allocatorI6GPointEELi1ELb1EE5__getB8ue170006Ev, symObjAddr: 0x1978, symBinAddr: 0x100003D14, symSize: 0x14 }
  - { offsetInCU: 0xE06B, offset: 0x142B6, size: 0x8, addend: 0x0, symName: __ZNKSt3__16vectorI6GPointNS_9allocatorIS1_EEE9__end_capB8ue170006Ev, symObjAddr: 0x198C, symBinAddr: 0x100003D28, symSize: 0x28 }
  - { offsetInCU: 0xE08F, offset: 0x142DA, size: 0x8, addend: 0x0, symName: __ZNKSt3__117__compressed_pairIP6GPointNS_9allocatorIS1_EEE5firstB8ue170006Ev, symObjAddr: 0x19B4, symBinAddr: 0x100003D50, symSize: 0x24 }
  - { offsetInCU: 0xE0B3, offset: 0x142FE, size: 0x8, addend: 0x0, symName: __ZNKSt3__122__compressed_pair_elemIP6GPointLi0ELb0EE5__getB8ue170006Ev, symObjAddr: 0x19D8, symBinAddr: 0x100003D74, symSize: 0x14 }
  - { offsetInCU: 0xE0D7, offset: 0x14322, size: 0x8, addend: 0x0, symName: __ZNKSt3__16vectorI6GPointNS_9allocatorIS1_EEE17__annotate_shrinkB8ue170006Em, symObjAddr: 0x19EC, symBinAddr: 0x100003D88, symSize: 0xB4 }
  - { offsetInCU: 0xE10B, offset: 0x14356, size: 0x8, addend: 0x0, symName: __ZNSt3__16vectorI9GPathVerbNS_9allocatorIS1_EEE7__clearB8ue170006Ev, symObjAddr: 0x1AA0, symBinAddr: 0x100003E3C, symSize: 0x28 }
  - { offsetInCU: 0xE12F, offset: 0x1437A, size: 0x8, addend: 0x0, symName: __ZNKSt3__16vectorI9GPathVerbNS_9allocatorIS1_EEE17__annotate_shrinkB8ue170006Em, symObjAddr: 0x1AC8, symBinAddr: 0x100003E64, symSize: 0xB4 }
  - { offsetInCU: 0xE163, offset: 0x143AE, size: 0x8, addend: 0x0, symName: __ZNSt3__16vectorI9GPathVerbNS_9allocatorIS1_EEE22__base_destruct_at_endB8ue170006EPS1_, symObjAddr: 0x1B7C, symBinAddr: 0x100003F18, symSize: 0x8C }
  - { offsetInCU: 0xE1A7, offset: 0x143F2, size: 0x8, addend: 0x0, symName: __ZNSt3__116allocator_traitsINS_9allocatorI9GPathVerbEEE7destroyB8ue170006IS2_vEEvRS3_PT_, symObjAddr: 0x1C08, symBinAddr: 0x100003FA4, symSize: 0x2C }
  - { offsetInCU: 0xE1E6, offset: 0x14431, size: 0x8, addend: 0x0, symName: __ZNSt3__16vectorI9GPathVerbNS_9allocatorIS1_EEE7__allocB8ue170006Ev, symObjAddr: 0x1C34, symBinAddr: 0x100003FD0, symSize: 0x28 }
  - { offsetInCU: 0xE20A, offset: 0x14455, size: 0x8, addend: 0x0, symName: __ZNSt3__19allocatorI9GPathVerbE7destroyB8ue170006EPS1_, symObjAddr: 0x1C70, symBinAddr: 0x10000400C, symSize: 0x14 }
  - { offsetInCU: 0xE23C, offset: 0x14487, size: 0x8, addend: 0x0, symName: __ZNSt3__117__compressed_pairIP9GPathVerbNS_9allocatorIS1_EEE6secondB8ue170006Ev, symObjAddr: 0x1C84, symBinAddr: 0x100004020, symSize: 0x24 }
  - { offsetInCU: 0xE260, offset: 0x144AB, size: 0x8, addend: 0x0, symName: __ZNSt3__122__compressed_pair_elemINS_9allocatorI9GPathVerbEELi1ELb1EE5__getB8ue170006Ev, symObjAddr: 0x1CA8, symBinAddr: 0x100004044, symSize: 0x14 }
  - { offsetInCU: 0xE284, offset: 0x144CF, size: 0x8, addend: 0x0, symName: __ZNKSt3__16vectorI9GPathVerbNS_9allocatorIS1_EEE31__annotate_contiguous_containerB8ue170006EPKvS6_S6_S6_, symObjAddr: 0x1CBC, symBinAddr: 0x100004058, symSize: 0x20 }
  - { offsetInCU: 0xE2D8, offset: 0x14523, size: 0x8, addend: 0x0, symName: __ZNKSt3__16vectorI9GPathVerbNS_9allocatorIS1_EEE8capacityB8ue170006Ev, symObjAddr: 0x1CDC, symBinAddr: 0x100004078, symSize: 0x40 }
  - { offsetInCU: 0xE2FC, offset: 0x14547, size: 0x8, addend: 0x0, symName: __ZNKSt3__16vectorI9GPathVerbNS_9allocatorIS1_EEE9__end_capB8ue170006Ev, symObjAddr: 0x1D1C, symBinAddr: 0x1000040B8, symSize: 0x28 }
  - { offsetInCU: 0xE320, offset: 0x1456B, size: 0x8, addend: 0x0, symName: __ZNKSt3__117__compressed_pairIP9GPathVerbNS_9allocatorIS1_EEE5firstB8ue170006Ev, symObjAddr: 0x1D44, symBinAddr: 0x1000040E0, symSize: 0x24 }
  - { offsetInCU: 0xE344, offset: 0x1458F, size: 0x8, addend: 0x0, symName: __ZNKSt3__122__compressed_pair_elemIP9GPathVerbLi0ELb0EE5__getB8ue170006Ev, symObjAddr: 0x1D68, symBinAddr: 0x100004104, symSize: 0x14 }
  - { offsetInCU: 0xE368, offset: 0x145B3, size: 0x8, addend: 0x0, symName: __ZNSt3__16vectorI6GPointNS_9allocatorIS1_EEE9__end_capB8ue170006Ev, symObjAddr: 0x1D7C, symBinAddr: 0x100004118, symSize: 0x28 }
  - { offsetInCU: 0xE38C, offset: 0x145D7, size: 0x8, addend: 0x0, symName: __ZNSt3__16vectorI6GPointNS_9allocatorIS1_EEE22__construct_one_at_endB8ue170006IJRKS1_EEEvDpOT_, symObjAddr: 0x1DA4, symBinAddr: 0x100004140, symSize: 0x90 }
  - { offsetInCU: 0xE3DB, offset: 0x14626, size: 0x8, addend: 0x0, symName: __ZNSt3__16vectorI6GPointNS_9allocatorIS1_EEE21__push_back_slow_pathIRKS1_EEvOT_, symObjAddr: 0x1E34, symBinAddr: 0x1000041D0, symSize: 0xD8 }
  - { offsetInCU: 0xE43B, offset: 0x14686, size: 0x8, addend: 0x0, symName: __ZNSt3__117__compressed_pairIP6GPointNS_9allocatorIS1_EEE5firstB8ue170006Ev, symObjAddr: 0x1F0C, symBinAddr: 0x1000042A8, symSize: 0x24 }
  - { offsetInCU: 0xE45F, offset: 0x146AA, size: 0x8, addend: 0x0, symName: __ZNSt3__122__compressed_pair_elemIP6GPointLi0ELb0EE5__getB8ue170006Ev, symObjAddr: 0x1F30, symBinAddr: 0x1000042CC, symSize: 0x14 }
  - { offsetInCU: 0xE49C, offset: 0x146E7, size: 0x8, addend: 0x0, symName: __ZNSt3__16vectorI6GPointNS_9allocatorIS1_EEE21_ConstructTransactionC1B8ue170006ERS4_m, symObjAddr: 0x1F44, symBinAddr: 0x1000042E0, symSize: 0x3C }
  - { offsetInCU: 0xE4E5, offset: 0x14730, size: 0x8, addend: 0x0, symName: __ZNSt3__116allocator_traitsINS_9allocatorI6GPointEEE9constructB8ue170006IS2_JRKS2_EvEEvRS3_PT_DpOT0_, symObjAddr: 0x1F80, symBinAddr: 0x10000431C, symSize: 0x34 }
  - { offsetInCU: 0xE53F, offset: 0x1478A, size: 0x8, addend: 0x0, symName: __ZNSt3__16vectorI6GPointNS_9allocatorIS1_EEE21_ConstructTransactionD1B8ue170006Ev, symObjAddr: 0x1FB4, symBinAddr: 0x100004350, symSize: 0x2C }
  - { offsetInCU: 0xE568, offset: 0x147B3, size: 0x8, addend: 0x0, symName: __ZNSt3__16vectorI6GPointNS_9allocatorIS1_EEE21_ConstructTransactionC2B8ue170006ERS4_m, symObjAddr: 0x1FE0, symBinAddr: 0x10000437C, symSize: 0x44 }
  - { offsetInCU: 0xE5B1, offset: 0x147FC, size: 0x8, addend: 0x0, symName: __ZNSt3__19allocatorI6GPointE9constructB8ue170006IS1_JRKS1_EEEvPT_DpOT0_, symObjAddr: 0x2024, symBinAddr: 0x1000043C0, symSize: 0x28 }
  - { offsetInCU: 0xE605, offset: 0x14850, size: 0x8, addend: 0x0, symName: __ZNSt3__16vectorI6GPointNS_9allocatorIS1_EEE21_ConstructTransactionD2B8ue170006Ev, symObjAddr: 0x204C, symBinAddr: 0x1000043E8, symSize: 0x20 }
  - { offsetInCU: 0xE62E, offset: 0x14879, size: 0x8, addend: 0x0, symName: __ZNKSt3__16vectorI6GPointNS_9allocatorIS1_EEE11__recommendB8ue170006Em, symObjAddr: 0x206C, symBinAddr: 0x100004408, symSize: 0xB4 }
  - { offsetInCU: 0xE685, offset: 0x148D0, size: 0x8, addend: 0x0, symName: __ZNSt3__114__split_bufferI6GPointRNS_9allocatorIS1_EEEC1EmmS4_, symObjAddr: 0x2120, symBinAddr: 0x1000044BC, symSize: 0x44 }
  - { offsetInCU: 0xE6DA, offset: 0x14925, size: 0x8, addend: 0x0, symName: __ZNSt3__114__split_bufferI6GPointRNS_9allocatorIS1_EEED1Ev, symObjAddr: 0x2274, symBinAddr: 0x100004610, symSize: 0x2C }
  - { offsetInCU: 0xE705, offset: 0x14950, size: 0x8, addend: 0x0, symName: __ZNKSt3__16vectorI6GPointNS_9allocatorIS1_EEE8max_sizeEv, symObjAddr: 0x22A0, symBinAddr: 0x10000463C, symSize: 0x60 }
  - { offsetInCU: 0xE72C, offset: 0x14977, size: 0x8, addend: 0x0, symName: __ZNKSt3__16vectorI6GPointNS_9allocatorIS1_EEE20__throw_length_errorB8ue170006Ev, symObjAddr: 0x2300, symBinAddr: 0x10000469C, symSize: 0x1C }
  - { offsetInCU: 0xE75A, offset: 0x149A5, size: 0x8, addend: 0x0, symName: __ZNSt3__116allocator_traitsINS_9allocatorI6GPointEEE8max_sizeB8ue170006IS3_vEEmRKS3_, symObjAddr: 0x2374, symBinAddr: 0x100004710, symSize: 0x24 }
  - { offsetInCU: 0xE789, offset: 0x149D4, size: 0x8, addend: 0x0, symName: __ZNKSt3__16vectorI6GPointNS_9allocatorIS1_EEE7__allocB8ue170006Ev, symObjAddr: 0x2398, symBinAddr: 0x100004734, symSize: 0x28 }
  - { offsetInCU: 0xE7AD, offset: 0x149F8, size: 0x8, addend: 0x0, symName: __ZNSt3__114numeric_limitsIlE3maxB8ue170006Ev, symObjAddr: 0x23C0, symBinAddr: 0x10000475C, symSize: 0x14 }
  - { offsetInCU: 0xE7D5, offset: 0x14A20, size: 0x8, addend: 0x0, symName: __ZNKSt3__16__lessIvvEclB8ue170006ImmEEbRKT_RKT0_, symObjAddr: 0x2428, symBinAddr: 0x1000047C4, symSize: 0x34 }
  - { offsetInCU: 0xE827, offset: 0x14A72, size: 0x8, addend: 0x0, symName: __ZNKSt3__19allocatorI6GPointE8max_sizeB8ue170006Ev, symObjAddr: 0x245C, symBinAddr: 0x1000047F8, symSize: 0x14 }
  - { offsetInCU: 0xE84B, offset: 0x14A96, size: 0x8, addend: 0x0, symName: __ZNKSt3__117__compressed_pairIP6GPointNS_9allocatorIS1_EEE6secondB8ue170006Ev, symObjAddr: 0x2470, symBinAddr: 0x10000480C, symSize: 0x24 }
  - { offsetInCU: 0xE86F, offset: 0x14ABA, size: 0x8, addend: 0x0, symName: __ZNKSt3__122__compressed_pair_elemINS_9allocatorI6GPointEELi1ELb1EE5__getB8ue170006Ev, symObjAddr: 0x2494, symBinAddr: 0x100004830, symSize: 0x14 }
  - { offsetInCU: 0xE893, offset: 0x14ADE, size: 0x8, addend: 0x0, symName: __ZNSt3__123__libcpp_numeric_limitsIlLb1EE3maxB8ue170006Ev, symObjAddr: 0x24A8, symBinAddr: 0x100004844, symSize: 0x8 }
  - { offsetInCU: 0xE8A7, offset: 0x14AF2, size: 0x8, addend: 0x0, symName: __ZNSt12length_errorC1B8ue170006EPKc, symObjAddr: 0x2514, symBinAddr: 0x1000048B0, symSize: 0x34 }
  - { offsetInCU: 0xE8DE, offset: 0x14B29, size: 0x8, addend: 0x0, symName: __ZNSt12length_errorC2B8ue170006EPKc, symObjAddr: 0x2548, symBinAddr: 0x1000048E4, symSize: 0x4C }
  - { offsetInCU: 0xE915, offset: 0x14B60, size: 0x8, addend: 0x0, symName: __ZNSt3__114__split_bufferI6GPointRNS_9allocatorIS1_EEEC2EmmS4_, symObjAddr: 0x25E8, symBinAddr: 0x100004984, symSize: 0xD4 }
  - { offsetInCU: 0xE98E, offset: 0x14BD9, size: 0x8, addend: 0x0, symName: __ZNSt3__117__compressed_pairIP6GPointRNS_9allocatorIS1_EEEC1B8ue170006IDnS5_EEOT_OT0_, symObjAddr: 0x26BC, symBinAddr: 0x100004A58, symSize: 0x3C }
  - { offsetInCU: 0xE9E5, offset: 0x14C30, size: 0x8, addend: 0x0, symName: __ZNSt3__114__split_bufferI6GPointRNS_9allocatorIS1_EEE7__allocB8ue170006Ev, symObjAddr: 0x2738, symBinAddr: 0x100004AD4, symSize: 0x28 }
  - { offsetInCU: 0xEA09, offset: 0x14C54, size: 0x8, addend: 0x0, symName: __ZNSt3__114__split_bufferI6GPointRNS_9allocatorIS1_EEE9__end_capB8ue170006Ev, symObjAddr: 0x2760, symBinAddr: 0x100004AFC, symSize: 0x28 }
  - { offsetInCU: 0xEA2D, offset: 0x14C78, size: 0x8, addend: 0x0, symName: __ZNSt3__117__compressed_pairIP6GPointRNS_9allocatorIS1_EEEC2B8ue170006IDnS5_EEOT_OT0_, symObjAddr: 0x2788, symBinAddr: 0x100004B24, symSize: 0x48 }
  - { offsetInCU: 0xEA84, offset: 0x14CCF, size: 0x8, addend: 0x0, symName: __ZNSt3__122__compressed_pair_elemIP6GPointLi0ELb0EEC2B8ue170006IDnvEEOT_, symObjAddr: 0x27D0, symBinAddr: 0x100004B6C, symSize: 0x1C }
  - { offsetInCU: 0xEAC5, offset: 0x14D10, size: 0x8, addend: 0x0, symName: __ZNSt3__122__compressed_pair_elemIRNS_9allocatorI6GPointEELi1ELb0EEC2B8ue170006IS4_vEEOT_, symObjAddr: 0x27EC, symBinAddr: 0x100004B88, symSize: 0x20 }
  - { offsetInCU: 0xEB06, offset: 0x14D51, size: 0x8, addend: 0x0, symName: __ZNSt3__19allocatorI6GPointE8allocateB8ue170006Em, symObjAddr: 0x280C, symBinAddr: 0x100004BA8, symSize: 0x58 }
  - { offsetInCU: 0xEB38, offset: 0x14D83, size: 0x8, addend: 0x0, symName: __ZNSt3__117__compressed_pairIP6GPointRNS_9allocatorIS1_EEE6secondB8ue170006Ev, symObjAddr: 0x2948, symBinAddr: 0x100004CE4, symSize: 0x28 }
  - { offsetInCU: 0xEB5C, offset: 0x14DA7, size: 0x8, addend: 0x0, symName: __ZNSt3__122__compressed_pair_elemIRNS_9allocatorI6GPointEELi1ELb0EE5__getB8ue170006Ev, symObjAddr: 0x2970, symBinAddr: 0x100004D0C, symSize: 0x18 }
  - { offsetInCU: 0xEB80, offset: 0x14DCB, size: 0x8, addend: 0x0, symName: __ZNSt3__117__compressed_pairIP6GPointRNS_9allocatorIS1_EEE5firstB8ue170006Ev, symObjAddr: 0x2988, symBinAddr: 0x100004D24, symSize: 0x24 }
  - { offsetInCU: 0xEBA4, offset: 0x14DEF, size: 0x8, addend: 0x0, symName: __ZNSt3__116reverse_iteratorIP6GPointEC1B8ue170006ES2_, symObjAddr: 0x2A24, symBinAddr: 0x100004DC0, symSize: 0x34 }
  - { offsetInCU: 0xEBDB, offset: 0x14E26, size: 0x8, addend: 0x0, symName: __ZNKSt3__116reverse_iteratorIP6GPointE4baseB8ue170006Ev, symObjAddr: 0x2A58, symBinAddr: 0x100004DF4, symSize: 0x18 }
  - { offsetInCU: 0xEBFF, offset: 0x14E4A, size: 0x8, addend: 0x0, symName: __ZNKSt3__16vectorI6GPointNS_9allocatorIS1_EEE14__annotate_newB8ue170006Em, symObjAddr: 0x2AAC, symBinAddr: 0x100004E48, symSize: 0xAC }
  - { offsetInCU: 0xEC57, offset: 0x14EA2, size: 0x8, addend: 0x0, symName: __ZNKSt3__111__move_loopINS_17_ClassicAlgPolicyEEclB8ue170006INS_16reverse_iteratorIP6GPointEES7_S7_EENS_4pairIT_T1_EES9_T0_SA_, symObjAddr: 0x2E48, symBinAddr: 0x1000051E4, symSize: 0xA0 }
  - { offsetInCU: 0xECC6, offset: 0x14F11, size: 0x8, addend: 0x0, symName: __ZNSt3__18_IterOpsINS_17_ClassicAlgPolicyEE11__iter_moveB8ue170006IRNS_16reverse_iteratorIP6GPointEEEENS_9enable_ifIXsr12is_referenceIDTdeclsr3stdE7declvalIRT_EEEEE5valueEDTclsr3stdE4movedeclsr3stdE7declvalISB_EEEEE4typeEOSA_, symObjAddr: 0x307C, symBinAddr: 0x100005418, symSize: 0x28 }
  - { offsetInCU: 0xECF2, offset: 0x14F3D, size: 0x8, addend: 0x0, symName: __ZNKSt3__116reverse_iteratorIP6GPointEdeB8ue170006Ev, symObjAddr: 0x30A4, symBinAddr: 0x100005440, symSize: 0x28 }
  - { offsetInCU: 0xED24, offset: 0x14F6F, size: 0x8, addend: 0x0, symName: __ZNSt3__116reverse_iteratorIP6GPointEppB8ue170006Ev, symObjAddr: 0x30CC, symBinAddr: 0x100005468, symSize: 0x20 }
  - { offsetInCU: 0xED48, offset: 0x14F93, size: 0x8, addend: 0x0, symName: __ZNSt3__18_IterOpsINS_17_ClassicAlgPolicyEE25__validate_iter_referenceB8ue170006IRNS_16reverse_iteratorIP6GPointEEEEvv, symObjAddr: 0x30EC, symBinAddr: 0x100005488, symSize: 0x4 }
  - { offsetInCU: 0xED66, offset: 0x14FB1, size: 0x8, addend: 0x0, symName: __ZNSt3__118__unwrap_iter_implINS_16reverse_iteratorIP6GPointEELb0EE8__unwrapB8ue170006ES4_, symObjAddr: 0x30F0, symBinAddr: 0x10000548C, symSize: 0x24 }
  - { offsetInCU: 0xED8F, offset: 0x14FDA, size: 0x8, addend: 0x0, symName: __ZNSt3__14pairINS_16reverse_iteratorIP6GPointEES4_EC1B8ue170006IS4_S4_LPv0EEEOT_OT0_, symObjAddr: 0x3114, symBinAddr: 0x1000054B0, symSize: 0x3C }
  - { offsetInCU: 0xEDED, offset: 0x15038, size: 0x8, addend: 0x0, symName: __ZNSt3__14pairINS_16reverse_iteratorIP6GPointEES4_EC2B8ue170006IS4_S4_LPv0EEEOT_OT0_, symObjAddr: 0x3150, symBinAddr: 0x1000054EC, symSize: 0x34 }
  - { offsetInCU: 0xEE4B, offset: 0x15096, size: 0x8, addend: 0x0, symName: __ZNSt3__118__unwrap_iter_implINS_16reverse_iteratorIP6GPointEELb0EE8__rewrapB8ue170006ES4_S4_, symObjAddr: 0x3184, symBinAddr: 0x100005520, symSize: 0x2C }
  - { offsetInCU: 0xEE79, offset: 0x150C4, size: 0x8, addend: 0x0, symName: __ZNSt3__116reverse_iteratorIP6GPointEC2B8ue170006ES2_, symObjAddr: 0x31B0, symBinAddr: 0x10000554C, symSize: 0x28 }
  - { offsetInCU: 0xEEB0, offset: 0x150FB, size: 0x8, addend: 0x0, symName: __ZNSt3__114__split_bufferI6GPointRNS_9allocatorIS1_EEED2Ev, symObjAddr: 0x31D8, symBinAddr: 0x100005574, symSize: 0x8C }
  - { offsetInCU: 0xEEDB, offset: 0x15126, size: 0x8, addend: 0x0, symName: __ZNSt3__114__split_bufferI6GPointRNS_9allocatorIS1_EEE5clearB8ue170006Ev, symObjAddr: 0x3264, symBinAddr: 0x100005600, symSize: 0x28 }
  - { offsetInCU: 0xEEFF, offset: 0x1514A, size: 0x8, addend: 0x0, symName: __ZNKSt3__114__split_bufferI6GPointRNS_9allocatorIS1_EEE8capacityB8ue170006Ev, symObjAddr: 0x328C, symBinAddr: 0x100005628, symSize: 0x40 }
  - { offsetInCU: 0xEF23, offset: 0x1516E, size: 0x8, addend: 0x0, symName: __ZNSt3__114__split_bufferI6GPointRNS_9allocatorIS1_EEE17__destruct_at_endB8ue170006EPS1_, symObjAddr: 0x32CC, symBinAddr: 0x100005668, symSize: 0x2C }
  - { offsetInCU: 0xEF55, offset: 0x151A0, size: 0x8, addend: 0x0, symName: __ZNSt3__114__split_bufferI6GPointRNS_9allocatorIS1_EEE17__destruct_at_endB8ue170006EPS1_NS_17integral_constantIbLb0EEE, symObjAddr: 0x32F8, symBinAddr: 0x100005694, symSize: 0x80 }
  - { offsetInCU: 0xEF95, offset: 0x151E0, size: 0x8, addend: 0x0, symName: __ZNKSt3__114__split_bufferI6GPointRNS_9allocatorIS1_EEE9__end_capB8ue170006Ev, symObjAddr: 0x3378, symBinAddr: 0x100005714, symSize: 0x28 }
  - { offsetInCU: 0xEFB9, offset: 0x15204, size: 0x8, addend: 0x0, symName: __ZNKSt3__117__compressed_pairIP6GPointRNS_9allocatorIS1_EEE5firstB8ue170006Ev, symObjAddr: 0x33A0, symBinAddr: 0x10000573C, symSize: 0x24 }
  - { offsetInCU: 0xEFDD, offset: 0x15228, size: 0x8, addend: 0x0, symName: __ZNSt3__16vectorI9GPathVerbNS_9allocatorIS1_EEE9__end_capB8ue170006Ev, symObjAddr: 0x33C4, symBinAddr: 0x100005760, symSize: 0x28 }
  - { offsetInCU: 0xF001, offset: 0x1524C, size: 0x8, addend: 0x0, symName: __ZNSt3__16vectorI9GPathVerbNS_9allocatorIS1_EEE22__construct_one_at_endB8ue170006IJS1_EEEvDpOT_, symObjAddr: 0x33EC, symBinAddr: 0x100005788, symSize: 0x90 }
  - { offsetInCU: 0xF050, offset: 0x1529B, size: 0x8, addend: 0x0, symName: __ZNSt3__16vectorI9GPathVerbNS_9allocatorIS1_EEE21__push_back_slow_pathIS1_EEvOT_, symObjAddr: 0x347C, symBinAddr: 0x100005818, symSize: 0xD8 }
  - { offsetInCU: 0xF0B0, offset: 0x152FB, size: 0x8, addend: 0x0, symName: __ZNSt3__117__compressed_pairIP9GPathVerbNS_9allocatorIS1_EEE5firstB8ue170006Ev, symObjAddr: 0x3554, symBinAddr: 0x1000058F0, symSize: 0x24 }
  - { offsetInCU: 0xF0D4, offset: 0x1531F, size: 0x8, addend: 0x0, symName: __ZNSt3__122__compressed_pair_elemIP9GPathVerbLi0ELb0EE5__getB8ue170006Ev, symObjAddr: 0x3578, symBinAddr: 0x100005914, symSize: 0x14 }
  - { offsetInCU: 0xF111, offset: 0x1535C, size: 0x8, addend: 0x0, symName: __ZNSt3__16vectorI9GPathVerbNS_9allocatorIS1_EEE21_ConstructTransactionC1B8ue170006ERS4_m, symObjAddr: 0x358C, symBinAddr: 0x100005928, symSize: 0x3C }
  - { offsetInCU: 0xF15A, offset: 0x153A5, size: 0x8, addend: 0x0, symName: __ZNSt3__116allocator_traitsINS_9allocatorI9GPathVerbEEE9constructB8ue170006IS2_JS2_EvEEvRS3_PT_DpOT0_, symObjAddr: 0x35C8, symBinAddr: 0x100005964, symSize: 0x34 }
  - { offsetInCU: 0xF1B4, offset: 0x153FF, size: 0x8, addend: 0x0, symName: __ZNSt3__16vectorI9GPathVerbNS_9allocatorIS1_EEE21_ConstructTransactionD1B8ue170006Ev, symObjAddr: 0x35FC, symBinAddr: 0x100005998, symSize: 0x2C }
  - { offsetInCU: 0xF1DD, offset: 0x15428, size: 0x8, addend: 0x0, symName: __ZNSt3__16vectorI9GPathVerbNS_9allocatorIS1_EEE21_ConstructTransactionC2B8ue170006ERS4_m, symObjAddr: 0x3628, symBinAddr: 0x1000059C4, symSize: 0x44 }
  - { offsetInCU: 0xF226, offset: 0x15471, size: 0x8, addend: 0x0, symName: __ZNSt3__19allocatorI9GPathVerbE9constructB8ue170006IS1_JS1_EEEvPT_DpOT0_, symObjAddr: 0x366C, symBinAddr: 0x100005A08, symSize: 0x28 }
  - { offsetInCU: 0xF27A, offset: 0x154C5, size: 0x8, addend: 0x0, symName: __ZNSt3__16vectorI9GPathVerbNS_9allocatorIS1_EEE21_ConstructTransactionD2B8ue170006Ev, symObjAddr: 0x3694, symBinAddr: 0x100005A30, symSize: 0x20 }
  - { offsetInCU: 0xF2A3, offset: 0x154EE, size: 0x8, addend: 0x0, symName: __ZNKSt3__16vectorI9GPathVerbNS_9allocatorIS1_EEE11__recommendB8ue170006Em, symObjAddr: 0x36B4, symBinAddr: 0x100005A50, symSize: 0xB4 }
  - { offsetInCU: 0xF2FA, offset: 0x15545, size: 0x8, addend: 0x0, symName: __ZNSt3__114__split_bufferI9GPathVerbRNS_9allocatorIS1_EEEC1EmmS4_, symObjAddr: 0x3768, symBinAddr: 0x100005B04, symSize: 0x44 }
  - { offsetInCU: 0xF34F, offset: 0x1559A, size: 0x8, addend: 0x0, symName: __ZNSt3__114__split_bufferI9GPathVerbRNS_9allocatorIS1_EEED1Ev, symObjAddr: 0x38BC, symBinAddr: 0x100005C58, symSize: 0x2C }
  - { offsetInCU: 0xF37A, offset: 0x155C5, size: 0x8, addend: 0x0, symName: __ZNKSt3__16vectorI9GPathVerbNS_9allocatorIS1_EEE8max_sizeEv, symObjAddr: 0x38E8, symBinAddr: 0x100005C84, symSize: 0x60 }
  - { offsetInCU: 0xF3A1, offset: 0x155EC, size: 0x8, addend: 0x0, symName: __ZNKSt3__16vectorI9GPathVerbNS_9allocatorIS1_EEE20__throw_length_errorB8ue170006Ev, symObjAddr: 0x3948, symBinAddr: 0x100005CE4, symSize: 0x1C }
  - { offsetInCU: 0xF3CF, offset: 0x1561A, size: 0x8, addend: 0x0, symName: __ZNSt3__116allocator_traitsINS_9allocatorI9GPathVerbEEE8max_sizeB8ue170006IS3_vEEmRKS3_, symObjAddr: 0x3964, symBinAddr: 0x100005D00, symSize: 0x24 }
  - { offsetInCU: 0xF3FE, offset: 0x15649, size: 0x8, addend: 0x0, symName: __ZNKSt3__16vectorI9GPathVerbNS_9allocatorIS1_EEE7__allocB8ue170006Ev, symObjAddr: 0x3988, symBinAddr: 0x100005D24, symSize: 0x28 }
  - { offsetInCU: 0xF422, offset: 0x1566D, size: 0x8, addend: 0x0, symName: __ZNKSt3__19allocatorI9GPathVerbE8max_sizeB8ue170006Ev, symObjAddr: 0x39B0, symBinAddr: 0x100005D4C, symSize: 0x14 }
  - { offsetInCU: 0xF446, offset: 0x15691, size: 0x8, addend: 0x0, symName: __ZNKSt3__117__compressed_pairIP9GPathVerbNS_9allocatorIS1_EEE6secondB8ue170006Ev, symObjAddr: 0x39C4, symBinAddr: 0x100005D60, symSize: 0x24 }
  - { offsetInCU: 0xF46A, offset: 0x156B5, size: 0x8, addend: 0x0, symName: __ZNKSt3__122__compressed_pair_elemINS_9allocatorI9GPathVerbEELi1ELb1EE5__getB8ue170006Ev, symObjAddr: 0x39E8, symBinAddr: 0x100005D84, symSize: 0x14 }
  - { offsetInCU: 0xF48E, offset: 0x156D9, size: 0x8, addend: 0x0, symName: __ZNSt3__114__split_bufferI9GPathVerbRNS_9allocatorIS1_EEEC2EmmS4_, symObjAddr: 0x39FC, symBinAddr: 0x100005D98, symSize: 0xD4 }
  - { offsetInCU: 0xF501, offset: 0x1574C, size: 0x8, addend: 0x0, symName: __ZNSt3__117__compressed_pairIP9GPathVerbRNS_9allocatorIS1_EEEC1B8ue170006IDnS5_EEOT_OT0_, symObjAddr: 0x3AD0, symBinAddr: 0x100005E6C, symSize: 0x3C }
  - { offsetInCU: 0xF558, offset: 0x157A3, size: 0x8, addend: 0x0, symName: __ZNSt3__114__split_bufferI9GPathVerbRNS_9allocatorIS1_EEE7__allocB8ue170006Ev, symObjAddr: 0x3B4C, symBinAddr: 0x100005EE8, symSize: 0x28 }
  - { offsetInCU: 0xF57C, offset: 0x157C7, size: 0x8, addend: 0x0, symName: __ZNSt3__114__split_bufferI9GPathVerbRNS_9allocatorIS1_EEE9__end_capB8ue170006Ev, symObjAddr: 0x3B74, symBinAddr: 0x100005F10, symSize: 0x28 }
  - { offsetInCU: 0xF5A0, offset: 0x157EB, size: 0x8, addend: 0x0, symName: __ZNSt3__117__compressed_pairIP9GPathVerbRNS_9allocatorIS1_EEEC2B8ue170006IDnS5_EEOT_OT0_, symObjAddr: 0x3B9C, symBinAddr: 0x100005F38, symSize: 0x48 }
  - { offsetInCU: 0xF5F7, offset: 0x15842, size: 0x8, addend: 0x0, symName: __ZNSt3__122__compressed_pair_elemIP9GPathVerbLi0ELb0EEC2B8ue170006IDnvEEOT_, symObjAddr: 0x3BE4, symBinAddr: 0x100005F80, symSize: 0x1C }
  - { offsetInCU: 0xF638, offset: 0x15883, size: 0x8, addend: 0x0, symName: __ZNSt3__122__compressed_pair_elemIRNS_9allocatorI9GPathVerbEELi1ELb0EEC2B8ue170006IS4_vEEOT_, symObjAddr: 0x3C00, symBinAddr: 0x100005F9C, symSize: 0x20 }
  - { offsetInCU: 0xF679, offset: 0x158C4, size: 0x8, addend: 0x0, symName: __ZNSt3__19allocatorI9GPathVerbE8allocateB8ue170006Em, symObjAddr: 0x3C20, symBinAddr: 0x100005FBC, symSize: 0x58 }
  - { offsetInCU: 0xF6AB, offset: 0x158F6, size: 0x8, addend: 0x0, symName: __ZNSt3__117__compressed_pairIP9GPathVerbRNS_9allocatorIS1_EEE6secondB8ue170006Ev, symObjAddr: 0x3C78, symBinAddr: 0x100006014, symSize: 0x28 }
  - { offsetInCU: 0xF6CF, offset: 0x1591A, size: 0x8, addend: 0x0, symName: __ZNSt3__122__compressed_pair_elemIRNS_9allocatorI9GPathVerbEELi1ELb0EE5__getB8ue170006Ev, symObjAddr: 0x3CA0, symBinAddr: 0x10000603C, symSize: 0x18 }
  - { offsetInCU: 0xF6F3, offset: 0x1593E, size: 0x8, addend: 0x0, symName: __ZNSt3__117__compressed_pairIP9GPathVerbRNS_9allocatorIS1_EEE5firstB8ue170006Ev, symObjAddr: 0x3CB8, symBinAddr: 0x100006054, symSize: 0x24 }
  - { offsetInCU: 0xF717, offset: 0x15962, size: 0x8, addend: 0x0, symName: __ZNKSt3__16vectorI9GPathVerbNS_9allocatorIS1_EEE17__annotate_deleteB8ue170006Ev, symObjAddr: 0x3CDC, symBinAddr: 0x100006078, symSize: 0xB8 }
  - { offsetInCU: 0xF73B, offset: 0x15986, size: 0x8, addend: 0x0, symName: __ZNSt3__116reverse_iteratorIP9GPathVerbEC1B8ue170006ES2_, symObjAddr: 0x3E0C, symBinAddr: 0x1000061A8, symSize: 0x34 }
  - { offsetInCU: 0xF772, offset: 0x159BD, size: 0x8, addend: 0x0, symName: __ZNKSt3__116reverse_iteratorIP9GPathVerbE4baseB8ue170006Ev, symObjAddr: 0x3E40, symBinAddr: 0x1000061DC, symSize: 0x18 }
  - { offsetInCU: 0xF796, offset: 0x159E1, size: 0x8, addend: 0x0, symName: __ZNKSt3__16vectorI9GPathVerbNS_9allocatorIS1_EEE14__annotate_newB8ue170006Em, symObjAddr: 0x3E94, symBinAddr: 0x100006230, symSize: 0xAC }
  - { offsetInCU: 0xF7E4, offset: 0x15A2F, size: 0x8, addend: 0x0, symName: __ZNKSt3__111__move_loopINS_17_ClassicAlgPolicyEEclB8ue170006INS_16reverse_iteratorIP9GPathVerbEES7_S7_EENS_4pairIT_T1_EES9_T0_SA_, symObjAddr: 0x4230, symBinAddr: 0x1000065CC, symSize: 0xA0 }
  - { offsetInCU: 0xF84D, offset: 0x15A98, size: 0x8, addend: 0x0, symName: __ZNSt3__18_IterOpsINS_17_ClassicAlgPolicyEE11__iter_moveB8ue170006IRNS_16reverse_iteratorIP9GPathVerbEEEENS_9enable_ifIXsr12is_referenceIDTdeclsr3stdE7declvalIRT_EEEEE5valueEDTclsr3stdE4movedeclsr3stdE7declvalISB_EEEEE4typeEOSA_, symObjAddr: 0x4464, symBinAddr: 0x100006800, symSize: 0x28 }
  - { offsetInCU: 0xF879, offset: 0x15AC4, size: 0x8, addend: 0x0, symName: __ZNKSt3__116reverse_iteratorIP9GPathVerbEdeB8ue170006Ev, symObjAddr: 0x448C, symBinAddr: 0x100006828, symSize: 0x28 }
  - { offsetInCU: 0xF8AB, offset: 0x15AF6, size: 0x8, addend: 0x0, symName: __ZNSt3__116reverse_iteratorIP9GPathVerbEppB8ue170006Ev, symObjAddr: 0x44B4, symBinAddr: 0x100006850, symSize: 0x20 }
  - { offsetInCU: 0xF8CF, offset: 0x15B1A, size: 0x8, addend: 0x0, symName: __ZNSt3__18_IterOpsINS_17_ClassicAlgPolicyEE25__validate_iter_referenceB8ue170006IRNS_16reverse_iteratorIP9GPathVerbEEEEvv, symObjAddr: 0x44D4, symBinAddr: 0x100006870, symSize: 0x4 }
  - { offsetInCU: 0xF8ED, offset: 0x15B38, size: 0x8, addend: 0x0, symName: __ZNSt3__118__unwrap_iter_implINS_16reverse_iteratorIP9GPathVerbEELb0EE8__unwrapB8ue170006ES4_, symObjAddr: 0x44D8, symBinAddr: 0x100006874, symSize: 0x24 }
  - { offsetInCU: 0xF916, offset: 0x15B61, size: 0x8, addend: 0x0, symName: __ZNSt3__14pairINS_16reverse_iteratorIP9GPathVerbEES4_EC1B8ue170006IS4_S4_LPv0EEEOT_OT0_, symObjAddr: 0x44FC, symBinAddr: 0x100006898, symSize: 0x3C }
  - { offsetInCU: 0xF974, offset: 0x15BBF, size: 0x8, addend: 0x0, symName: __ZNSt3__14pairINS_16reverse_iteratorIP9GPathVerbEES4_EC2B8ue170006IS4_S4_LPv0EEEOT_OT0_, symObjAddr: 0x4538, symBinAddr: 0x1000068D4, symSize: 0x34 }
  - { offsetInCU: 0xF9D2, offset: 0x15C1D, size: 0x8, addend: 0x0, symName: __ZNSt3__118__unwrap_iter_implINS_16reverse_iteratorIP9GPathVerbEELb0EE8__rewrapB8ue170006ES4_S4_, symObjAddr: 0x456C, symBinAddr: 0x100006908, symSize: 0x2C }
  - { offsetInCU: 0xFA00, offset: 0x15C4B, size: 0x8, addend: 0x0, symName: __ZNSt3__116reverse_iteratorIP9GPathVerbEC2B8ue170006ES2_, symObjAddr: 0x4598, symBinAddr: 0x100006934, symSize: 0x28 }
  - { offsetInCU: 0xFA37, offset: 0x15C82, size: 0x8, addend: 0x0, symName: __ZNSt3__114__split_bufferI9GPathVerbRNS_9allocatorIS1_EEED2Ev, symObjAddr: 0x45C0, symBinAddr: 0x10000695C, symSize: 0x8C }
  - { offsetInCU: 0xFA62, offset: 0x15CAD, size: 0x8, addend: 0x0, symName: __ZNSt3__114__split_bufferI9GPathVerbRNS_9allocatorIS1_EEE5clearB8ue170006Ev, symObjAddr: 0x464C, symBinAddr: 0x1000069E8, symSize: 0x28 }
  - { offsetInCU: 0xFA86, offset: 0x15CD1, size: 0x8, addend: 0x0, symName: __ZNSt3__116allocator_traitsINS_9allocatorI9GPathVerbEEE10deallocateB8ue170006ERS3_PS2_m, symObjAddr: 0x4674, symBinAddr: 0x100006A10, symSize: 0x34 }
  - { offsetInCU: 0xFACB, offset: 0x15D16, size: 0x8, addend: 0x0, symName: __ZNKSt3__114__split_bufferI9GPathVerbRNS_9allocatorIS1_EEE8capacityB8ue170006Ev, symObjAddr: 0x46A8, symBinAddr: 0x100006A44, symSize: 0x40 }
  - { offsetInCU: 0xFAEF, offset: 0x15D3A, size: 0x8, addend: 0x0, symName: __ZNSt3__114__split_bufferI9GPathVerbRNS_9allocatorIS1_EEE17__destruct_at_endB8ue170006EPS1_, symObjAddr: 0x46E8, symBinAddr: 0x100006A84, symSize: 0x2C }
  - { offsetInCU: 0xFB21, offset: 0x15D6C, size: 0x8, addend: 0x0, symName: __ZNSt3__114__split_bufferI9GPathVerbRNS_9allocatorIS1_EEE17__destruct_at_endB8ue170006EPS1_NS_17integral_constantIbLb0EEE, symObjAddr: 0x4714, symBinAddr: 0x100006AB0, symSize: 0x80 }
  - { offsetInCU: 0xFB61, offset: 0x15DAC, size: 0x8, addend: 0x0, symName: __ZNSt3__19allocatorI9GPathVerbE10deallocateB8ue170006EPS1_m, symObjAddr: 0x4794, symBinAddr: 0x100006B30, symSize: 0x40 }
  - { offsetInCU: 0xFBA1, offset: 0x15DEC, size: 0x8, addend: 0x0, symName: __ZNKSt3__114__split_bufferI9GPathVerbRNS_9allocatorIS1_EEE9__end_capB8ue170006Ev, symObjAddr: 0x47D4, symBinAddr: 0x100006B70, symSize: 0x28 }
  - { offsetInCU: 0xFBC5, offset: 0x15E10, size: 0x8, addend: 0x0, symName: __ZNKSt3__117__compressed_pairIP9GPathVerbRNS_9allocatorIS1_EEE5firstB8ue170006Ev, symObjAddr: 0x47FC, symBinAddr: 0x100006B98, symSize: 0x24 }
  - { offsetInCU: 0xFBE9, offset: 0x15E34, size: 0x8, addend: 0x0, symName: __ZNSt3__19allocatorI5GPathEC1B8ue170006Ev, symObjAddr: 0x48C0, symBinAddr: 0x100006C5C, symSize: 0x2C }
  - { offsetInCU: 0xFC5E, offset: 0x15EA9, size: 0x8, addend: 0x0, symName: __ZNSt3__118__allocation_guardINS_9allocatorINS_20__shared_ptr_emplaceI5GPathNS1_IS3_EEEEEEEC1B8ue170006IS4_EET_m, symObjAddr: 0x48EC, symBinAddr: 0x100006C88, symSize: 0x34 }
  - { offsetInCU: 0xFCAC, offset: 0x15EF7, size: 0x8, addend: 0x0, symName: __ZNKSt3__118__allocation_guardINS_9allocatorINS_20__shared_ptr_emplaceI5GPathNS1_IS3_EEEEEEE5__getB8ue170006Ev, symObjAddr: 0x4920, symBinAddr: 0x100006CBC, symSize: 0x18 }
  - { offsetInCU: 0xFCD0, offset: 0x15F1B, size: 0x8, addend: 0x0, symName: __ZNSt3__120__shared_ptr_emplaceI5GPathNS_9allocatorIS1_EEEC1B8ue170006IJNS_6vectorI6GPointNS2_IS7_EEEENS6_I9GPathVerbNS2_ISA_EEEEEEES3_DpOT_, symObjAddr: 0x4938, symBinAddr: 0x100006CD4, symSize: 0x3C }
  - { offsetInCU: 0xFD39, offset: 0x15F84, size: 0x8, addend: 0x0, symName: __ZNSt3__118__allocation_guardINS_9allocatorINS_20__shared_ptr_emplaceI5GPathNS1_IS3_EEEEEEE13__release_ptrB8ue170006Ev, symObjAddr: 0x4974, symBinAddr: 0x100006D10, symSize: 0x24 }
  - { offsetInCU: 0xFD6B, offset: 0x15FB6, size: 0x8, addend: 0x0, symName: __ZNSt3__110shared_ptrI5GPathE27__create_with_control_blockB8ue170006IS1_NS_20__shared_ptr_emplaceIS1_NS_9allocatorIS1_EEEEEES2_PT_PT0_, symObjAddr: 0x4998, symBinAddr: 0x100006D34, symSize: 0x98 }
  - { offsetInCU: 0xFDC3, offset: 0x1600E, size: 0x8, addend: 0x0, symName: __ZNSt3__120__shared_ptr_emplaceI5GPathNS_9allocatorIS1_EEE10__get_elemB8ue170006Ev, symObjAddr: 0x4A30, symBinAddr: 0x100006DCC, symSize: 0x28 }
  - { offsetInCU: 0xFDE7, offset: 0x16032, size: 0x8, addend: 0x0, symName: __ZNSt3__118__allocation_guardINS_9allocatorINS_20__shared_ptr_emplaceI5GPathNS1_IS3_EEEEEEED1B8ue170006Ev, symObjAddr: 0x4A58, symBinAddr: 0x100006DF4, symSize: 0x2C }
  - { offsetInCU: 0xFE10, offset: 0x1605B, size: 0x8, addend: 0x0, symName: __ZNSt3__118__allocation_guardINS_9allocatorINS_20__shared_ptr_emplaceI5GPathNS1_IS3_EEEEEEEC2B8ue170006IS4_EET_m, symObjAddr: 0x4A84, symBinAddr: 0x100006E20, symSize: 0x50 }
  - { offsetInCU: 0xFE5E, offset: 0x160A9, size: 0x8, addend: 0x0, symName: __ZNSt3__19allocatorINS_20__shared_ptr_emplaceI5GPathNS0_IS2_EEEEEC1B8ue170006IS2_EERKNS0_IT_EE, symObjAddr: 0x4AD4, symBinAddr: 0x100006E70, symSize: 0x34 }
  - { offsetInCU: 0xFE9B, offset: 0x160E6, size: 0x8, addend: 0x0, symName: __ZNSt3__116allocator_traitsINS_9allocatorINS_20__shared_ptr_emplaceI5GPathNS1_IS3_EEEEEEE8allocateB8ue170006ERS6_m, symObjAddr: 0x4B08, symBinAddr: 0x100006EA4, symSize: 0x2C }
  - { offsetInCU: 0xFED0, offset: 0x1611B, size: 0x8, addend: 0x0, symName: __ZNSt3__19allocatorINS_20__shared_ptr_emplaceI5GPathNS0_IS2_EEEEEC2B8ue170006IS2_EERKNS0_IT_EE, symObjAddr: 0x4B34, symBinAddr: 0x100006ED0, symSize: 0x30 }
  - { offsetInCU: 0xFF0D, offset: 0x16158, size: 0x8, addend: 0x0, symName: __ZNSt3__116__non_trivial_ifILb1ENS_9allocatorINS_20__shared_ptr_emplaceI5GPathNS1_IS3_EEEEEEEC2B8ue170006Ev, symObjAddr: 0x4B64, symBinAddr: 0x100006F00, symSize: 0x14 }
  - { offsetInCU: 0xFF36, offset: 0x16181, size: 0x8, addend: 0x0, symName: __ZNSt3__19allocatorINS_20__shared_ptr_emplaceI5GPathNS0_IS2_EEEEE8allocateB8ue170006Em, symObjAddr: 0x4B78, symBinAddr: 0x100006F14, symSize: 0x5C }
  - { offsetInCU: 0xFF72, offset: 0x161BD, size: 0x8, addend: 0x0, symName: __ZNSt3__116allocator_traitsINS_9allocatorINS_20__shared_ptr_emplaceI5GPathNS1_IS3_EEEEEEE8max_sizeB8ue170006IS6_vEEmRKS6_, symObjAddr: 0x4BD4, symBinAddr: 0x100006F70, symSize: 0x24 }
  - { offsetInCU: 0xFFA1, offset: 0x161EC, size: 0x8, addend: 0x0, symName: __ZNKSt3__19allocatorINS_20__shared_ptr_emplaceI5GPathNS0_IS2_EEEEE8max_sizeB8ue170006Ev, symObjAddr: 0x4BF8, symBinAddr: 0x100006F94, symSize: 0x20 }
  - { offsetInCU: 0xFFC5, offset: 0x16210, size: 0x8, addend: 0x0, symName: __ZNSt3__120__shared_ptr_emplaceI5GPathNS_9allocatorIS1_EEEC2B8ue170006IJNS_6vectorI6GPointNS2_IS7_EEEENS6_I9GPathVerbNS2_ISA_EEEEEEES3_DpOT_, symObjAddr: 0x4C18, symBinAddr: 0x100006FB4, symSize: 0x104 }
  - { offsetInCU: 0x1002E, offset: 0x16279, size: 0x8, addend: 0x0, symName: __ZNSt3__119__shared_weak_countC2B8ue170006El, symObjAddr: 0x4D1C, symBinAddr: 0x1000070B8, symSize: 0x54 }
  - { offsetInCU: 0x10065, offset: 0x162B0, size: 0x8, addend: 0x0, symName: __ZNSt3__120__shared_ptr_emplaceI5GPathNS_9allocatorIS1_EEE8_StorageC1B8ue170006EOS3_, symObjAddr: 0x4D70, symBinAddr: 0x10000710C, symSize: 0x34 }
  - { offsetInCU: 0x1009E, offset: 0x162E9, size: 0x8, addend: 0x0, symName: __ZNSt3__16vectorI6GPointNS_9allocatorIS1_EEEC1B8ue170006EOS4_, symObjAddr: 0x4DA4, symBinAddr: 0x100007140, symSize: 0x34 }
  - { offsetInCU: 0x100D9, offset: 0x16324, size: 0x8, addend: 0x0, symName: __ZNSt3__16vectorI9GPathVerbNS_9allocatorIS1_EEEC1B8ue170006EOS4_, symObjAddr: 0x4DD8, symBinAddr: 0x100007174, symSize: 0x34 }
  - { offsetInCU: 0x10114, offset: 0x1635F, size: 0x8, addend: 0x0, symName: __ZN5GPathC1ENSt3__16vectorI6GPointNS0_9allocatorIS2_EEEENS1_I9GPathVerbNS3_IS6_EEEE, symObjAddr: 0x4E0C, symBinAddr: 0x1000071A8, symSize: 0x3C }
  - { offsetInCU: 0x1015B, offset: 0x163A6, size: 0x8, addend: 0x0, symName: __ZNSt3__16vectorI9GPathVerbNS_9allocatorIS1_EEED1B8ue170006Ev, symObjAddr: 0x4E48, symBinAddr: 0x1000071E4, symSize: 0x2C }
  - { offsetInCU: 0x10184, offset: 0x163CF, size: 0x8, addend: 0x0, symName: __ZNSt3__120__shared_ptr_emplaceI5GPathNS_9allocatorIS1_EEE8_StorageD1B8ue170006Ev, symObjAddr: 0x4E74, symBinAddr: 0x100007210, symSize: 0x2C }
  - { offsetInCU: 0x101AD, offset: 0x163F8, size: 0x8, addend: 0x0, symName: __ZNSt3__120__shared_ptr_emplaceI5GPathNS_9allocatorIS1_EEED1Ev, symObjAddr: 0x4EA0, symBinAddr: 0x10000723C, symSize: 0x2C }
  - { offsetInCU: 0x101D9, offset: 0x16424, size: 0x8, addend: 0x0, symName: __ZNSt3__120__shared_ptr_emplaceI5GPathNS_9allocatorIS1_EEED0Ev, symObjAddr: 0x4ECC, symBinAddr: 0x100007268, symSize: 0x30 }
  - { offsetInCU: 0x10205, offset: 0x16450, size: 0x8, addend: 0x0, symName: __ZNSt3__120__shared_ptr_emplaceI5GPathNS_9allocatorIS1_EEE16__on_zero_sharedEv, symObjAddr: 0x4EFC, symBinAddr: 0x100007298, symSize: 0x28 }
  - { offsetInCU: 0x10229, offset: 0x16474, size: 0x8, addend: 0x0, symName: __ZNSt3__120__shared_ptr_emplaceI5GPathNS_9allocatorIS1_EEE21__on_zero_shared_weakEv, symObjAddr: 0x4F24, symBinAddr: 0x1000072C0, symSize: 0x5C }
  - { offsetInCU: 0x10269, offset: 0x164B4, size: 0x8, addend: 0x0, symName: __ZNSt3__114__shared_countC2B8ue170006El, symObjAddr: 0x4F80, symBinAddr: 0x10000731C, symSize: 0x30 }
  - { offsetInCU: 0x102A0, offset: 0x164EB, size: 0x8, addend: 0x0, symName: __ZNSt3__120__shared_ptr_emplaceI5GPathNS_9allocatorIS1_EEE8_StorageC2B8ue170006EOS3_, symObjAddr: 0x4FB0, symBinAddr: 0x10000734C, symSize: 0x30 }
  - { offsetInCU: 0x102D9, offset: 0x16524, size: 0x8, addend: 0x0, symName: __ZNSt3__120__shared_ptr_emplaceI5GPathNS_9allocatorIS1_EEE8_Storage11__get_allocB8ue170006Ev, symObjAddr: 0x4FE0, symBinAddr: 0x10000737C, symSize: 0x3C }
  - { offsetInCU: 0x1032D, offset: 0x16578, size: 0x8, addend: 0x0, symName: __ZNSt3__117__compressed_pairINS_9allocatorI5GPathEES2_E16__get_first_baseB8ue170006EPS4_, symObjAddr: 0x501C, symBinAddr: 0x1000073B8, symSize: 0x14 }
  - { offsetInCU: 0x10350, offset: 0x1659B, size: 0x8, addend: 0x0, symName: __ZNSt3__16vectorI6GPointNS_9allocatorIS1_EEEC2B8ue170006EOS4_, symObjAddr: 0x5030, symBinAddr: 0x1000073CC, symSize: 0xC4 }
  - { offsetInCU: 0x10391, offset: 0x165DC, size: 0x8, addend: 0x0, symName: __ZNSt3__117__compressed_pairIP6GPointNS_9allocatorIS1_EEEC1B8ue170006IDnS4_EEOT_OT0_, symObjAddr: 0x50F4, symBinAddr: 0x100007490, symSize: 0x3C }
  - { offsetInCU: 0x103E8, offset: 0x16633, size: 0x8, addend: 0x0, symName: __ZNSt3__117__compressed_pairIP6GPointNS_9allocatorIS1_EEEC2B8ue170006IDnS4_EEOT_OT0_, symObjAddr: 0x5130, symBinAddr: 0x1000074CC, symSize: 0x44 }
  - { offsetInCU: 0x1043F, offset: 0x1668A, size: 0x8, addend: 0x0, symName: __ZNSt3__122__compressed_pair_elemINS_9allocatorI6GPointEELi1ELb1EEC2B8ue170006IS3_vEEOT_, symObjAddr: 0x5174, symBinAddr: 0x100007510, symSize: 0x18 }
  - { offsetInCU: 0x10480, offset: 0x166CB, size: 0x8, addend: 0x0, symName: __ZNSt3__16vectorI9GPathVerbNS_9allocatorIS1_EEEC2B8ue170006EOS4_, symObjAddr: 0x518C, symBinAddr: 0x100007528, symSize: 0xC4 }
  - { offsetInCU: 0x104C1, offset: 0x1670C, size: 0x8, addend: 0x0, symName: __ZNSt3__117__compressed_pairIP9GPathVerbNS_9allocatorIS1_EEEC1B8ue170006IDnS4_EEOT_OT0_, symObjAddr: 0x5250, symBinAddr: 0x1000075EC, symSize: 0x3C }
  - { offsetInCU: 0x10518, offset: 0x16763, size: 0x8, addend: 0x0, symName: __ZNSt3__117__compressed_pairIP9GPathVerbNS_9allocatorIS1_EEEC2B8ue170006IDnS4_EEOT_OT0_, symObjAddr: 0x528C, symBinAddr: 0x100007628, symSize: 0x44 }
  - { offsetInCU: 0x1056F, offset: 0x167BA, size: 0x8, addend: 0x0, symName: __ZNSt3__122__compressed_pair_elemINS_9allocatorI9GPathVerbEELi1ELb1EEC2B8ue170006IS3_vEEOT_, symObjAddr: 0x52D0, symBinAddr: 0x10000766C, symSize: 0x18 }
  - { offsetInCU: 0x105B0, offset: 0x167FB, size: 0x8, addend: 0x0, symName: __ZN5GPathC2ENSt3__16vectorI6GPointNS0_9allocatorIS2_EEEENS1_I9GPathVerbNS3_IS6_EEEE, symObjAddr: 0x52E8, symBinAddr: 0x100007684, symSize: 0x5C }
  - { offsetInCU: 0x105F7, offset: 0x16842, size: 0x8, addend: 0x0, symName: __ZNSt3__123enable_shared_from_thisI5GPathEC2B8ue170006Ev, symObjAddr: 0x5344, symBinAddr: 0x1000076E0, symSize: 0x2C }
  - { offsetInCU: 0x10620, offset: 0x1686B, size: 0x8, addend: 0x0, symName: __ZNSt3__18weak_ptrI5GPathEC1Ev, symObjAddr: 0x5370, symBinAddr: 0x10000770C, symSize: 0x2C }
  - { offsetInCU: 0x1064B, offset: 0x16896, size: 0x8, addend: 0x0, symName: __ZNSt3__18weak_ptrI5GPathEC2Ev, symObjAddr: 0x539C, symBinAddr: 0x100007738, symSize: 0x1C }
  - { offsetInCU: 0x10676, offset: 0x168C1, size: 0x8, addend: 0x0, symName: __ZNSt3__16vectorI9GPathVerbNS_9allocatorIS1_EEED2B8ue170006Ev, symObjAddr: 0x53B8, symBinAddr: 0x100007754, symSize: 0x44 }
  - { offsetInCU: 0x1069F, offset: 0x168EA, size: 0x8, addend: 0x0, symName: __ZNSt3__16vectorI9GPathVerbNS_9allocatorIS1_EEE16__destroy_vectorC1B8ue170006ERS4_, symObjAddr: 0x53FC, symBinAddr: 0x100007798, symSize: 0x34 }
  - { offsetInCU: 0x106D8, offset: 0x16923, size: 0x8, addend: 0x0, symName: __ZNSt3__16vectorI9GPathVerbNS_9allocatorIS1_EEE16__destroy_vectorclB8ue170006Ev, symObjAddr: 0x5430, symBinAddr: 0x1000077CC, symSize: 0x90 }
  - { offsetInCU: 0x106FC, offset: 0x16947, size: 0x8, addend: 0x0, symName: __ZNSt3__16vectorI9GPathVerbNS_9allocatorIS1_EEE16__destroy_vectorC2B8ue170006ERS4_, symObjAddr: 0x54C0, symBinAddr: 0x10000785C, symSize: 0x20 }
  - { offsetInCU: 0x10735, offset: 0x16980, size: 0x8, addend: 0x0, symName: __ZNSt3__120__shared_ptr_emplaceI5GPathNS_9allocatorIS1_EEE8_StorageD2B8ue170006Ev, symObjAddr: 0x54E0, symBinAddr: 0x10000787C, symSize: 0x2C }
  - { offsetInCU: 0x1075E, offset: 0x169A9, size: 0x8, addend: 0x0, symName: __ZNSt3__120__shared_ptr_emplaceI5GPathNS_9allocatorIS1_EEED2Ev, symObjAddr: 0x550C, symBinAddr: 0x1000078A8, symSize: 0x48 }
  - { offsetInCU: 0x1078A, offset: 0x169D5, size: 0x8, addend: 0x0, symName: __ZN5GPathD1Ev, symObjAddr: 0x5554, symBinAddr: 0x1000078F0, symSize: 0x2C }
  - { offsetInCU: 0x107B5, offset: 0x16A00, size: 0x8, addend: 0x0, symName: __ZN5GPathD2Ev, symObjAddr: 0x5580, symBinAddr: 0x10000791C, symSize: 0x44 }
  - { offsetInCU: 0x107E0, offset: 0x16A2B, size: 0x8, addend: 0x0, symName: __ZNSt3__123enable_shared_from_thisI5GPathED2B8ue170006Ev, symObjAddr: 0x55C4, symBinAddr: 0x100007960, symSize: 0x2C }
  - { offsetInCU: 0x10809, offset: 0x16A54, size: 0x8, addend: 0x0, symName: __ZNSt3__18weak_ptrI5GPathED1Ev, symObjAddr: 0x55F0, symBinAddr: 0x10000798C, symSize: 0x2C }
  - { offsetInCU: 0x10834, offset: 0x16A7F, size: 0x8, addend: 0x0, symName: __ZNSt3__18weak_ptrI5GPathED2Ev, symObjAddr: 0x561C, symBinAddr: 0x1000079B8, symSize: 0x54 }
  - { offsetInCU: 0x1085F, offset: 0x16AAA, size: 0x8, addend: 0x0, symName: __ZNSt3__120__shared_ptr_emplaceI5GPathNS_9allocatorIS1_EEE11__get_allocB8ue170006Ev, symObjAddr: 0x5670, symBinAddr: 0x100007A0C, symSize: 0x28 }
  - { offsetInCU: 0x10883, offset: 0x16ACE, size: 0x8, addend: 0x0, symName: __ZNSt3__116allocator_traitsINS_9allocatorINS_20__shared_ptr_emplaceI5GPathNS1_IS3_EEEEEEE10deallocateB8ue170006ERS6_PS5_m, symObjAddr: 0x5698, symBinAddr: 0x100007A34, symSize: 0x34 }
  - { offsetInCU: 0x108C8, offset: 0x16B13, size: 0x8, addend: 0x0, symName: __ZNSt3__114pointer_traitsIPNS_20__shared_ptr_emplaceI5GPathNS_9allocatorIS2_EEEEE10pointer_toB8ue170006ERS5_, symObjAddr: 0x56CC, symBinAddr: 0x100007A68, symSize: 0x14 }
  - { offsetInCU: 0x108EB, offset: 0x16B36, size: 0x8, addend: 0x0, symName: __ZNSt3__19allocatorINS_20__shared_ptr_emplaceI5GPathNS0_IS2_EEEEE10deallocateB8ue170006EPS4_m, symObjAddr: 0x56E0, symBinAddr: 0x100007A7C, symSize: 0x44 }
  - { offsetInCU: 0x1092B, offset: 0x16B76, size: 0x8, addend: 0x0, symName: __ZNSt3__110shared_ptrI5GPathEC1B8ue170006Ev, symObjAddr: 0x5724, symBinAddr: 0x100007AC0, symSize: 0x2C }
  - { offsetInCU: 0x10954, offset: 0x16B9F, size: 0x8, addend: 0x0, symName: __ZNSt3__110shared_ptrI5GPathEC2B8ue170006Ev, symObjAddr: 0x57CC, symBinAddr: 0x100007B68, symSize: 0x1C }
  - { offsetInCU: 0x1097D, offset: 0x16BC8, size: 0x8, addend: 0x0, symName: __ZNKSt3__18weak_ptrI5GPathE7expiredB8ue170006Ev, symObjAddr: 0x57E8, symBinAddr: 0x100007B84, symSize: 0x64 }
  - { offsetInCU: 0x109A1, offset: 0x16BEC, size: 0x8, addend: 0x0, symName: __ZNSt3__110shared_ptrI5GPathEC1B8ue170006IS1_EERKNS0_IT_EEPS1_, symObjAddr: 0x584C, symBinAddr: 0x100007BE8, symSize: 0x3C }
  - { offsetInCU: 0x109F3, offset: 0x16C3E, size: 0x8, addend: 0x0, symName: __ZNSt3__18weak_ptrI5GPathEaSIS1_EENS_9enable_ifIXsr17__compatible_withIT_S1_EE5valueERS2_E4typeERKNS_10shared_ptrIS5_EE, symObjAddr: 0x5888, symBinAddr: 0x100007C24, symSize: 0x54 }
  - { offsetInCU: 0x10A33, offset: 0x16C7E, size: 0x8, addend: 0x0, symName: __ZNKSt3__119__shared_weak_count9use_countB8ue170006Ev, symObjAddr: 0x58DC, symBinAddr: 0x100007C78, symSize: 0x24 }
  - { offsetInCU: 0x10A57, offset: 0x16CA2, size: 0x8, addend: 0x0, symName: __ZNKSt3__114__shared_count9use_countB8ue170006Ev, symObjAddr: 0x5900, symBinAddr: 0x100007C9C, symSize: 0x3C }
  - { offsetInCU: 0x10A7B, offset: 0x16CC6, size: 0x8, addend: 0x0, symName: __ZNSt3__110shared_ptrI5GPathEC2B8ue170006IS1_EERKNS0_IT_EEPS1_, symObjAddr: 0x595C, symBinAddr: 0x100007CF8, symSize: 0x70 }
  - { offsetInCU: 0x10ACD, offset: 0x16D18, size: 0x8, addend: 0x0, symName: __ZNSt3__119__shared_weak_count12__add_sharedB8ue170006Ev, symObjAddr: 0x59CC, symBinAddr: 0x100007D68, symSize: 0x24 }
  - { offsetInCU: 0x10AF1, offset: 0x16D3C, size: 0x8, addend: 0x0, symName: __ZNSt3__114__shared_count12__add_sharedB8ue170006Ev, symObjAddr: 0x59F0, symBinAddr: 0x100007D8C, symSize: 0x28 }
  - { offsetInCU: 0x10B2E, offset: 0x16D79, size: 0x8, addend: 0x0, symName: __ZNSt3__18weak_ptrI5GPathEC1IS1_EERKNS_10shared_ptrIT_EENS_9enable_ifIXsr17__compatible_withIS5_S1_EE5valueEPNS_5__natEE4typeE, symObjAddr: 0x5A48, symBinAddr: 0x100007DE4, symSize: 0x3C }
  - { offsetInCU: 0x10B7E, offset: 0x16DC9, size: 0x8, addend: 0x0, symName: __ZNSt3__18weak_ptrI5GPathE4swapERS2_, symObjAddr: 0x5A84, symBinAddr: 0x100007E20, symSize: 0x44 }
  - { offsetInCU: 0x10BB5, offset: 0x16E00, size: 0x8, addend: 0x0, symName: __ZNSt3__18weak_ptrI5GPathEC2IS1_EERKNS_10shared_ptrIT_EENS_9enable_ifIXsr17__compatible_withIS5_S1_EE5valueEPNS_5__natEE4typeE, symObjAddr: 0x5AC8, symBinAddr: 0x100007E64, symSize: 0x74 }
  - { offsetInCU: 0x10C05, offset: 0x16E50, size: 0x8, addend: 0x0, symName: __ZNSt3__119__shared_weak_count10__add_weakB8ue170006Ev, symObjAddr: 0x5B3C, symBinAddr: 0x100007ED8, symSize: 0x28 }
  - { offsetInCU: 0x10C29, offset: 0x16E74, size: 0x8, addend: 0x0, symName: __ZNSt3__120__shared_ptr_emplaceI5GPathNS_9allocatorIS1_EEE8_Storage10__get_elemB8ue170006Ev, symObjAddr: 0x5BDC, symBinAddr: 0x100007F78, symSize: 0x3C }
  - { offsetInCU: 0x10C7D, offset: 0x16EC8, size: 0x8, addend: 0x0, symName: __ZNSt3__117__compressed_pairINS_9allocatorI5GPathEES2_E17__get_second_baseB8ue170006EPS4_, symObjAddr: 0x5C18, symBinAddr: 0x100007FB4, symSize: 0x14 }
  - { offsetInCU: 0x10CA0, offset: 0x16EEB, size: 0x8, addend: 0x0, symName: __ZNSt3__118__allocation_guardINS_9allocatorINS_20__shared_ptr_emplaceI5GPathNS1_IS3_EEEEEEED2B8ue170006Ev, symObjAddr: 0x5C2C, symBinAddr: 0x100007FC8, symSize: 0x2C }
  - { offsetInCU: 0x10CC9, offset: 0x16F14, size: 0x8, addend: 0x0, symName: __ZNSt3__118__allocation_guardINS_9allocatorINS_20__shared_ptr_emplaceI5GPathNS1_IS3_EEEEEEE9__destroyB8ue170006Ev, symObjAddr: 0x5C58, symBinAddr: 0x100007FF4, symSize: 0x4C }
  - { offsetInCU: 0x10CED, offset: 0x16F38, size: 0x8, addend: 0x0, symName: __ZNSt3__19allocatorI5GPathEC2B8ue170006Ev, symObjAddr: 0x5CA4, symBinAddr: 0x100008040, symSize: 0x2C }
  - { offsetInCU: 0x10D16, offset: 0x16F61, size: 0x8, addend: 0x0, symName: __ZNSt3__116__non_trivial_ifILb1ENS_9allocatorI5GPathEEEC2B8ue170006Ev, symObjAddr: 0x5CD0, symBinAddr: 0x10000806C, symSize: 0x14 }
  - { offsetInCU: 0x10D3F, offset: 0x16F8A, size: 0x8, addend: 0x0, symName: __ZNSt3__110shared_ptrI5GPathEC1B8ue170006IS1_vEERKNS_8weak_ptrIT_EE, symObjAddr: 0x5CE4, symBinAddr: 0x100008080, symSize: 0x34 }
  - { offsetInCU: 0x10D82, offset: 0x16FCD, size: 0x8, addend: 0x0, symName: __ZNSt3__110shared_ptrI5GPathEC2B8ue170006IS1_vEERKNS_8weak_ptrIT_EE, symObjAddr: 0x5D18, symBinAddr: 0x1000080B4, symSize: 0xA0 }
  - { offsetInCU: 0x10DD9, offset: 0x17024, size: 0x8, addend: 0x0, symName: __ZNSt3__112bad_weak_ptrC1B8ue170006Ev, symObjAddr: 0x5DF0, symBinAddr: 0x10000818C, symSize: 0x2C }
  - { offsetInCU: 0x10E02, offset: 0x1704D, size: 0x8, addend: 0x0, symName: __ZNSt3__112bad_weak_ptrC2B8ue170006Ev, symObjAddr: 0x5E1C, symBinAddr: 0x1000081B8, symSize: 0x44 }
  - { offsetInCU: 0x10E2B, offset: 0x17076, size: 0x8, addend: 0x0, symName: __ZNSt9exceptionC2B8ue170006Ev, symObjAddr: 0x5E60, symBinAddr: 0x1000081FC, symSize: 0x24 }
  - { offsetInCU: 0x10E54, offset: 0x1709F, size: 0x8, addend: 0x0, symName: __ZNSt3__16vectorI6GPointNS_9allocatorIS1_EEEC2Em, symObjAddr: 0x5E84, symBinAddr: 0x100008220, symSize: 0xD4 }
  - { offsetInCU: 0x10EAC, offset: 0x170F7, size: 0x8, addend: 0x0, symName: __ZNSt3__117__compressed_pairIP6GPointNS_9allocatorIS1_EEEC1B8ue170006IDnNS_18__default_init_tagEEEOT_OT0_, symObjAddr: 0x5F58, symBinAddr: 0x1000082F4, symSize: 0x3C }
  - { offsetInCU: 0x10F03, offset: 0x1714E, size: 0x8, addend: 0x0, symName: __ZNSt3__16vectorI6GPointNS_9allocatorIS1_EEE11__vallocateB8ue170006Em, symObjAddr: 0x5FD4, symBinAddr: 0x100008370, symSize: 0xAC }
  - { offsetInCU: 0x10F47, offset: 0x17192, size: 0x8, addend: 0x0, symName: __ZNSt3__16vectorI6GPointNS_9allocatorIS1_EEE18__construct_at_endEm, symObjAddr: 0x6080, symBinAddr: 0x10000841C, symSize: 0xC8 }
  - { offsetInCU: 0x10FBC, offset: 0x17207, size: 0x8, addend: 0x0, symName: __ZNSt3__128__exception_guard_exceptionsINS_6vectorI6GPointNS_9allocatorIS2_EEE16__destroy_vectorEE10__completeB8ue170006Ev, symObjAddr: 0x6148, symBinAddr: 0x1000084E4, symSize: 0x1C }
  - { offsetInCU: 0x10FE0, offset: 0x1722B, size: 0x8, addend: 0x0, symName: __ZNSt3__128__exception_guard_exceptionsINS_6vectorI6GPointNS_9allocatorIS2_EEE16__destroy_vectorEED1B8ue170006Ev, symObjAddr: 0x6164, symBinAddr: 0x100008500, symSize: 0x2C }
  - { offsetInCU: 0x11009, offset: 0x17254, size: 0x8, addend: 0x0, symName: __ZNSt3__117__compressed_pairIP6GPointNS_9allocatorIS1_EEEC2B8ue170006IDnNS_18__default_init_tagEEEOT_OT0_, symObjAddr: 0x6190, symBinAddr: 0x10000852C, symSize: 0x40 }
  - { offsetInCU: 0x11060, offset: 0x172AB, size: 0x8, addend: 0x0, symName: __ZNSt3__122__compressed_pair_elemINS_9allocatorI6GPointEELi1ELb1EEC2B8ue170006ENS_18__default_init_tagE, symObjAddr: 0x61D0, symBinAddr: 0x10000856C, symSize: 0x2C }
  - { offsetInCU: 0x11094, offset: 0x172DF, size: 0x8, addend: 0x0, symName: __ZNSt3__19allocatorI6GPointEC2B8ue170006Ev, symObjAddr: 0x61FC, symBinAddr: 0x100008598, symSize: 0x2C }
  - { offsetInCU: 0x110BD, offset: 0x17308, size: 0x8, addend: 0x0, symName: __ZNSt3__116__non_trivial_ifILb1ENS_9allocatorI6GPointEEEC2B8ue170006Ev, symObjAddr: 0x6228, symBinAddr: 0x1000085C4, symSize: 0x14 }
  - { offsetInCU: 0x110E6, offset: 0x17331, size: 0x8, addend: 0x0, symName: __ZNSt3__128__exception_guard_exceptionsINS_6vectorI6GPointNS_9allocatorIS2_EEE16__destroy_vectorEEC1B8ue170006ES6_, symObjAddr: 0x623C, symBinAddr: 0x1000085D8, symSize: 0x34 }
  - { offsetInCU: 0x1111D, offset: 0x17368, size: 0x8, addend: 0x0, symName: __ZNSt3__128__exception_guard_exceptionsINS_6vectorI6GPointNS_9allocatorIS2_EEE16__destroy_vectorEEC2B8ue170006ES6_, symObjAddr: 0x6270, symBinAddr: 0x10000860C, symSize: 0x24 }
  - { offsetInCU: 0x11154, offset: 0x1739F, size: 0x8, addend: 0x0, symName: __ZNSt3__116allocator_traitsINS_9allocatorI6GPointEEE9constructB8ue170006IS2_JEvEEvRS3_PT_DpOT0_, symObjAddr: 0x6294, symBinAddr: 0x100008630, symSize: 0x2C }
  - { offsetInCU: 0x11198, offset: 0x173E3, size: 0x8, addend: 0x0, symName: __ZNSt3__19allocatorI6GPointE9constructB8ue170006IS1_JEEEvPT_DpOT0_, symObjAddr: 0x62C0, symBinAddr: 0x10000865C, symSize: 0x1C }
  - { offsetInCU: 0x111D8, offset: 0x17423, size: 0x8, addend: 0x0, symName: __ZNSt3__128__exception_guard_exceptionsINS_6vectorI6GPointNS_9allocatorIS2_EEE16__destroy_vectorEED2B8ue170006Ev, symObjAddr: 0x62DC, symBinAddr: 0x100008678, symSize: 0x48 }
  - { offsetInCU: 0x11201, offset: 0x1744C, size: 0x8, addend: 0x0, symName: __ZNSt3__120__shared_ptr_emplaceI5GPathNS_9allocatorIS1_EEEC1B8ue170006IJNS_6vectorI6GPointNS2_IS7_EEEERKNS6_I9GPathVerbNS2_ISA_EEEEEEES3_DpOT_, symObjAddr: 0x63C4, symBinAddr: 0x100008760, symSize: 0x3C }
  - { offsetInCU: 0x1126A, offset: 0x174B5, size: 0x8, addend: 0x0, symName: __ZNSt3__120__shared_ptr_emplaceI5GPathNS_9allocatorIS1_EEEC2B8ue170006IJNS_6vectorI6GPointNS2_IS7_EEEERKNS6_I9GPathVerbNS2_ISA_EEEEEEES3_DpOT_, symObjAddr: 0x6400, symBinAddr: 0x10000879C, symSize: 0x114 }
  - { offsetInCU: 0x112D3, offset: 0x1751E, size: 0x8, addend: 0x0, symName: __ZNSt3__16vectorI9GPathVerbNS_9allocatorIS1_EEEC1ERKS4_, symObjAddr: 0x6514, symBinAddr: 0x1000088B0, symSize: 0x34 }
  - { offsetInCU: 0x1130E, offset: 0x17559, size: 0x8, addend: 0x0, symName: __ZNSt3__16vectorI9GPathVerbNS_9allocatorIS1_EEEC2ERKS4_, symObjAddr: 0x6548, symBinAddr: 0x1000088E4, symSize: 0x94 }
  - { offsetInCU: 0x11349, offset: 0x17594, size: 0x8, addend: 0x0, symName: __ZNSt3__116allocator_traitsINS_9allocatorI9GPathVerbEEE37select_on_container_copy_constructionB8ue170006IS3_vvEES3_RKS3_, symObjAddr: 0x65DC, symBinAddr: 0x100008978, symSize: 0x10 }
  - { offsetInCU: 0x11379, offset: 0x175C4, size: 0x8, addend: 0x0, symName: __ZNSt3__16vectorI9GPathVerbNS_9allocatorIS1_EEE16__init_with_sizeB8ue170006IPS1_S6_EEvT_T0_m, symObjAddr: 0x65EC, symBinAddr: 0x100008988, symSize: 0xB8 }
  - { offsetInCU: 0x113EF, offset: 0x1763A, size: 0x8, addend: 0x0, symName: __ZNSt3__16vectorI9GPathVerbNS_9allocatorIS1_EEE11__vallocateB8ue170006Em, symObjAddr: 0x66E4, symBinAddr: 0x100008A80, symSize: 0xAC }
  - { offsetInCU: 0x11433, offset: 0x1767E, size: 0x8, addend: 0x0, symName: __ZNSt3__16vectorI9GPathVerbNS_9allocatorIS1_EEE18__construct_at_endIPS1_S6_EEvT_T0_m, symObjAddr: 0x6790, symBinAddr: 0x100008B2C, symSize: 0x8C }
  - { offsetInCU: 0x114AC, offset: 0x176F7, size: 0x8, addend: 0x0, symName: __ZNSt3__128__exception_guard_exceptionsINS_6vectorI9GPathVerbNS_9allocatorIS2_EEE16__destroy_vectorEE10__completeB8ue170006Ev, symObjAddr: 0x681C, symBinAddr: 0x100008BB8, symSize: 0x1C }
  - { offsetInCU: 0x114D0, offset: 0x1771B, size: 0x8, addend: 0x0, symName: __ZNSt3__128__exception_guard_exceptionsINS_6vectorI9GPathVerbNS_9allocatorIS2_EEE16__destroy_vectorEED1B8ue170006Ev, symObjAddr: 0x6838, symBinAddr: 0x100008BD4, symSize: 0x2C }
  - { offsetInCU: 0x114F9, offset: 0x17744, size: 0x8, addend: 0x0, symName: __ZNSt3__128__exception_guard_exceptionsINS_6vectorI9GPathVerbNS_9allocatorIS2_EEE16__destroy_vectorEEC1B8ue170006ES6_, symObjAddr: 0x6864, symBinAddr: 0x100008C00, symSize: 0x34 }
  - { offsetInCU: 0x11530, offset: 0x1777B, size: 0x8, addend: 0x0, symName: __ZNSt3__128__exception_guard_exceptionsINS_6vectorI9GPathVerbNS_9allocatorIS2_EEE16__destroy_vectorEEC2B8ue170006ES6_, symObjAddr: 0x6898, symBinAddr: 0x100008C34, symSize: 0x24 }
  - { offsetInCU: 0x11587, offset: 0x177D2, size: 0x8, addend: 0x0, symName: __ZNSt3__14pairIP9GPathVerbS2_EC1B8ue170006IS2_S2_LPv0EEEOT_OT0_, symObjAddr: 0x6A6C, symBinAddr: 0x100008E08, symSize: 0x3C }
  - { offsetInCU: 0x115E5, offset: 0x17830, size: 0x8, addend: 0x0, symName: __ZNSt3__14pairIP9GPathVerbS2_EC2B8ue170006IS2_S2_LPv0EEEOT_OT0_, symObjAddr: 0x6AA8, symBinAddr: 0x100008E44, symSize: 0x34 }
  - { offsetInCU: 0x1164D, offset: 0x17898, size: 0x8, addend: 0x0, symName: __ZNKSt3__114__copy_trivialclB8ue170006I9GPathVerbS2_Li0EEENS_4pairIPT_PT0_EES5_S5_S7_, symObjAddr: 0x6C58, symBinAddr: 0x100008FF4, symSize: 0x48 }
  - { offsetInCU: 0x116B4, offset: 0x178FF, size: 0x8, addend: 0x0, symName: __ZNSt3__14pairIP9GPathVerbS2_EC1B8ue170006IRS2_S2_LPv0EEEOT_OT0_, symObjAddr: 0x6DE8, symBinAddr: 0x100009184, symSize: 0x3C }
  - { offsetInCU: 0x11712, offset: 0x1795D, size: 0x8, addend: 0x0, symName: __ZNSt3__14pairIP9GPathVerbS2_EC2B8ue170006IRS2_S2_LPv0EEEOT_OT0_, symObjAddr: 0x6E24, symBinAddr: 0x1000091C0, symSize: 0x34 }
  - { offsetInCU: 0x11770, offset: 0x179BB, size: 0x8, addend: 0x0, symName: __ZNSt3__118__unwrap_iter_implIP9GPathVerbLb1EE8__unwrapB8ue170006ES2_, symObjAddr: 0x6E58, symBinAddr: 0x1000091F4, symSize: 0x24 }
  - { offsetInCU: 0x11793, offset: 0x179DE, size: 0x8, addend: 0x0, symName: __ZNSt3__118__unwrap_iter_implIP9GPathVerbLb1EE8__rewrapB8ue170006ES2_S2_, symObjAddr: 0x6E7C, symBinAddr: 0x100009218, symSize: 0x50 }
  - { offsetInCU: 0x117C4, offset: 0x17A0F, size: 0x8, addend: 0x0, symName: __ZNSt3__128__exception_guard_exceptionsINS_6vectorI9GPathVerbNS_9allocatorIS2_EEE16__destroy_vectorEED2B8ue170006Ev, symObjAddr: 0x6ECC, symBinAddr: 0x100009268, symSize: 0x48 }
  - { offsetInCU: 0x26, offset: 0x17BD4, size: 0x8, addend: 0x0, symName: __ZN5GTime7GetMSecEv, symObjAddr: 0x0, symBinAddr: 0x1000092B0, symSize: 0x64 }
  - { offsetInCU: 0x29B5, offset: 0x1A563, size: 0x8, addend: 0x0, symName: __ZN5GTime7GetMSecEv, symObjAddr: 0x0, symBinAddr: 0x1000092B0, symSize: 0x64 }
  - { offsetInCU: 0x52, offset: 0x1A611, size: 0x8, addend: 0x0, symName: _LODEPNG_VERSION_STRING, symObjAddr: 0x1A950, symBinAddr: 0x100054000, symSize: 0x0 }
  - { offsetInCU: 0x6E, offset: 0x1A62D, size: 0x8, addend: 0x0, symName: _lodepng_default_compress_settings, symObjAddr: 0x1AD58, symBinAddr: 0x10004DC80, symSize: 0x0 }
  - { offsetInCU: 0x178, offset: 0x1A737, size: 0x8, addend: 0x0, symName: _lodepng_default_decompress_settings, symObjAddr: 0x1AD88, symBinAddr: 0x10004DCB0, symSize: 0x0 }
  - { offsetInCU: 0x20C, offset: 0x1A7CB, size: 0x8, addend: 0x0, symName: __ZL10CLCL_ORDER, symObjAddr: 0x1AFA0, symBinAddr: 0x10004DEC8, symSize: 0x0 }
  - { offsetInCU: 0x238, offset: 0x1A7F7, size: 0x8, addend: 0x0, symName: __ZL10LENGTHBASE, symObjAddr: 0x1ADC8, symBinAddr: 0x10004DCF0, symSize: 0x0 }
  - { offsetInCU: 0x25F, offset: 0x1A81E, size: 0x8, addend: 0x0, symName: __ZL11LENGTHEXTRA, symObjAddr: 0x1AE3C, symBinAddr: 0x10004DD64, symSize: 0x0 }
  - { offsetInCU: 0x27A, offset: 0x1A839, size: 0x8, addend: 0x0, symName: __ZL12DISTANCEBASE, symObjAddr: 0x1AEB0, symBinAddr: 0x10004DDD8, symSize: 0x0 }
  - { offsetInCU: 0x2A1, offset: 0x1A860, size: 0x8, addend: 0x0, symName: __ZL13DISTANCEEXTRA, symObjAddr: 0x1AF28, symBinAddr: 0x10004DE50, symSize: 0x0 }
  - { offsetInCU: 0x2F0, offset: 0x1A8AF, size: 0x8, addend: 0x0, symName: __ZL19lodepng_crc32_table, symObjAddr: 0x1A958, symBinAddr: 0x100054008, symSize: 0x0 }
  - { offsetInCU: 0x319, offset: 0x1A8D8, size: 0x8, addend: 0x0, symName: __ZL8ADAM7_DX, symObjAddr: 0x1AFEC, symBinAddr: 0x10004DF14, symSize: 0x0 }
  - { offsetInCU: 0x340, offset: 0x1A8FF, size: 0x8, addend: 0x0, symName: __ZL8ADAM7_IX, symObjAddr: 0x1B008, symBinAddr: 0x10004DF30, symSize: 0x0 }
  - { offsetInCU: 0x35B, offset: 0x1A91A, size: 0x8, addend: 0x0, symName: __ZL8ADAM7_DY, symObjAddr: 0x1B024, symBinAddr: 0x10004DF4C, symSize: 0x0 }
  - { offsetInCU: 0x376, offset: 0x1A935, size: 0x8, addend: 0x0, symName: __ZL8ADAM7_IY, symObjAddr: 0x1B040, symBinAddr: 0x10004DF68, symSize: 0x0 }
  - { offsetInCU: 0x3EA8, offset: 0x1E467, size: 0x8, addend: 0x0, symName: __ZNSt3__17advanceB8ue170006IPhllvEEvRT_T0_, symObjAddr: 0x185BC, symBinAddr: 0x100021484, symSize: 0x38 }
  - { offsetInCU: 0x4A26, offset: 0x1EFE5, size: 0x8, addend: 0x0, symName: __ZNSt3__112__to_addressB8ue170006IKcEEPT_S3_, symObjAddr: 0x1631C, symBinAddr: 0x10001F624, symSize: 0x14 }
  - { offsetInCU: 0x4A8F, offset: 0x1F04E, size: 0x8, addend: 0x0, symName: __ZNSt3__112__to_addressB8ue170006IhEEPT_S2_, symObjAddr: 0x16A44, symBinAddr: 0x10001FD4C, symSize: 0x14 }
  - { offsetInCU: 0x4AC5, offset: 0x1F084, size: 0x8, addend: 0x0, symName: __ZNSt3__119__allocate_at_leastB8ue170006INS_9allocatorIhEEEENS_19__allocation_resultINS_16allocator_traitsIT_E7pointerEEERS5_m, symObjAddr: 0x1702C, symBinAddr: 0x100020100, symSize: 0x40 }
  - { offsetInCU: 0x4B09, offset: 0x1F0C8, size: 0x8, addend: 0x0, symName: __ZNSt3__142__uninitialized_allocator_move_if_noexceptB8ue170006INS_9allocatorIhEENS_16reverse_iteratorIPhEES5_hvEET1_RT_T0_S9_S6_, symObjAddr: 0x17484, symBinAddr: 0x100020454, symSize: 0x78 }
  - { offsetInCU: 0x4B8A, offset: 0x1F149, size: 0x8, addend: 0x0, symName: __ZNSt3__14swapB8ue170006IPhEENS_9enable_ifIXaasr21is_move_constructibleIT_EE5valuesr18is_move_assignableIS3_EE5valueEvE4typeERS3_S6_, symObjAddr: 0x17548, symBinAddr: 0x100020518, symSize: 0x3C }
  - { offsetInCU: 0x4BDC, offset: 0x1F19B, size: 0x8, addend: 0x0, symName: __ZNSt3__14moveB8ue170006INS_16reverse_iteratorIPhEES3_EET0_T_S5_S4_, symObjAddr: 0x17678, symBinAddr: 0x100020648, symSize: 0x78 }
  - { offsetInCU: 0x4C37, offset: 0x1F1F6, size: 0x8, addend: 0x0, symName: __ZNSt3__16__moveB8ue170006INS_17_ClassicAlgPolicyENS_16reverse_iteratorIPhEES4_S4_EENS_4pairIT0_T2_EES6_T1_S7_, symObjAddr: 0x176F0, symBinAddr: 0x1000206C0, symSize: 0x64 }
  - { offsetInCU: 0x4CA4, offset: 0x1F263, size: 0x8, addend: 0x0, symName: __ZNSt3__123__dispatch_copy_or_moveB8ue170006INS_17_ClassicAlgPolicyENS_11__move_loopIS1_EENS_14__move_trivialENS_16reverse_iteratorIPhEES7_S7_EENS_4pairIT2_T4_EES9_T3_SA_, symObjAddr: 0x17754, symBinAddr: 0x100020724, symSize: 0x64 }
  - { offsetInCU: 0x4D23, offset: 0x1F2E2, size: 0x8, addend: 0x0, symName: __ZNSt3__121__unwrap_and_dispatchB8ue170006INS_10__overloadINS_11__move_loopINS_17_ClassicAlgPolicyEEENS_14__move_trivialEEENS_16reverse_iteratorIPhEES9_S9_Li0EEENS_4pairIT0_T2_EESB_T1_SC_, symObjAddr: 0x177B8, symBinAddr: 0x100020788, symSize: 0x12C }
  - { offsetInCU: 0x4DB5, offset: 0x1F374, size: 0x8, addend: 0x0, symName: __ZNSt3__114__unwrap_rangeB8ue170006INS_16reverse_iteratorIPhEES3_EENS_4pairIT0_S5_EET_S7_, symObjAddr: 0x178E4, symBinAddr: 0x1000208B4, symSize: 0x84 }
  - { offsetInCU: 0x4F29, offset: 0x1F4E8, size: 0x8, addend: 0x0, symName: __ZNSt3__113__unwrap_iterB8ue170006INS_16reverse_iteratorIPhEENS_18__unwrap_iter_implIS3_Lb0EEELi0EEEDTclsrT0_8__unwrapclsr3stdE7declvalIT_EEEES7_, symObjAddr: 0x17A08, symBinAddr: 0x1000209D8, symSize: 0x44 }
  - { offsetInCU: 0x4F6F, offset: 0x1F52E, size: 0x8, addend: 0x0, symName: __ZNSt3__19make_pairB8ue170006INS_16reverse_iteratorIPhEES3_EENS_4pairINS_18__unwrap_ref_decayIT_E4typeENS5_IT0_E4typeEEEOS6_OS9_, symObjAddr: 0x17A4C, symBinAddr: 0x100020A1C, symSize: 0x38 }
  - { offsetInCU: 0x4FC0, offset: 0x1F57F, size: 0x8, addend: 0x0, symName: __ZNSt3__114__rewrap_rangeB8ue170006INS_16reverse_iteratorIPhEES3_EET_S4_T0_, symObjAddr: 0x17A84, symBinAddr: 0x100020A54, symSize: 0x5C }
  - { offsetInCU: 0x500D, offset: 0x1F5CC, size: 0x8, addend: 0x0, symName: __ZNSt3__113__rewrap_iterB8ue170006INS_16reverse_iteratorIPhEES3_NS_18__unwrap_iter_implIS3_Lb0EEEEET_S6_T0_, symObjAddr: 0x17AE0, symBinAddr: 0x100020AB0, symSize: 0x74 }
  - { offsetInCU: 0x5063, offset: 0x1F622, size: 0x8, addend: 0x0, symName: __ZNSt3__1neB8ue170006IPhS1_EEbRKNS_16reverse_iteratorIT_EERKNS2_IT0_EE, symObjAddr: 0x17B54, symBinAddr: 0x100020B24, symSize: 0x48 }
  - { offsetInCU: 0x5163, offset: 0x1F722, size: 0x8, addend: 0x0, symName: __ZNSt3__18distanceB8ue170006IPhEENS_15iterator_traitsIT_E15difference_typeES3_S3_, symObjAddr: 0x184EC, symBinAddr: 0x1000213B4, symSize: 0x2C }
  - { offsetInCU: 0x51A7, offset: 0x1F766, size: 0x8, addend: 0x0, symName: __ZNSt3__1miB8ue170006IPKhPhEEDTmicldtfp_4baseEcldtfp0_4baseEERKNS_11__wrap_iterIT_EERKNS5_IT0_EE, symObjAddr: 0x18518, symBinAddr: 0x1000213E0, symSize: 0x40 }
  - { offsetInCU: 0x51F4, offset: 0x1F7B3, size: 0x8, addend: 0x0, symName: __ZNSt3__14nextB8ue170006IPhEENS_9enable_ifIXsr29__has_input_iterator_categoryIT_EE5valueES3_E4typeES3_NS_15iterator_traitsIS3_E15difference_typeE, symObjAddr: 0x18588, symBinAddr: 0x100021450, symSize: 0x34 }
  - { offsetInCU: 0x5238, offset: 0x1F7F7, size: 0x8, addend: 0x0, symName: __ZNSt3__14copyB8ue170006IPhS1_EET0_T_S3_S2_, symObjAddr: 0x187A0, symBinAddr: 0x100021668, symSize: 0x40 }
  - { offsetInCU: 0x5293, offset: 0x1F852, size: 0x8, addend: 0x0, symName: __ZNSt3__121__convert_to_integralB8ue170006El, symObjAddr: 0x18A0C, symBinAddr: 0x1000218D4, symSize: 0x14 }
  - { offsetInCU: 0x52C0, offset: 0x1F87F, size: 0x8, addend: 0x0, symName: __ZNSt3__19__advanceB8ue170006IPhEEvRT_NS_15iterator_traitsIS2_E15difference_typeENS_26random_access_iterator_tagE, symObjAddr: 0x18A20, symBinAddr: 0x1000218E8, symSize: 0x28 }
  - { offsetInCU: 0x530B, offset: 0x1F8CA, size: 0x8, addend: 0x0, symName: __ZNSt3__130__uninitialized_allocator_copyB8ue170006INS_9allocatorIhEEPhS3_S3_EET2_RT_T0_T1_S4_, symObjAddr: 0x18A48, symBinAddr: 0x100021910, symSize: 0x80 }
  - { offsetInCU: 0x53AE, offset: 0x1F96D, size: 0x8, addend: 0x0, symName: __ZNSt3__114__unwrap_rangeB8ue170006IPhS1_EENS_4pairIT0_S3_EET_S5_, symObjAddr: 0x18AC8, symBinAddr: 0x100021990, symSize: 0x60 }
  - { offsetInCU: 0x53FB, offset: 0x1F9BA, size: 0x8, addend: 0x0, symName: __ZNSt3__135__uninitialized_allocator_copy_implB8ue170006INS_9allocatorIhEEhhhLPv0EEEPT2_RT_PT0_S9_S5_, symObjAddr: 0x18B28, symBinAddr: 0x1000219F0, symSize: 0x38 }
  - { offsetInCU: 0x5481, offset: 0x1FA40, size: 0x8, addend: 0x0, symName: __ZNSt3__113__unwrap_iterB8ue170006IPhNS_18__unwrap_iter_implIS1_Lb1EEELi0EEEDTclsrT0_8__unwrapclsr3stdE7declvalIT_EEEES5_, symObjAddr: 0x18B60, symBinAddr: 0x100021A28, symSize: 0x24 }
  - { offsetInCU: 0x54C7, offset: 0x1FA86, size: 0x8, addend: 0x0, symName: __ZNSt3__113__rewrap_iterB8ue170006IPhS1_NS_18__unwrap_iter_implIS1_Lb1EEEEET_S4_T0_, symObjAddr: 0x18B84, symBinAddr: 0x100021A4C, symSize: 0x3C }
  - { offsetInCU: 0x551D, offset: 0x1FADC, size: 0x8, addend: 0x0, symName: __ZNSt3__19make_pairB8ue170006IPhS1_EENS_4pairINS_18__unwrap_ref_decayIT_E4typeENS3_IT0_E4typeEEEOS4_OS7_, symObjAddr: 0x18BC0, symBinAddr: 0x100021A88, symSize: 0x38 }
  - { offsetInCU: 0x56F6, offset: 0x1FCB5, size: 0x8, addend: 0x0, symName: __ZNSt3__113move_backwardB8ue170006IPhS1_EET0_T_S3_S2_, symObjAddr: 0x18D08, symBinAddr: 0x100021BD0, symSize: 0x40 }
  - { offsetInCU: 0x5751, offset: 0x1FD10, size: 0x8, addend: 0x0, symName: __ZNSt3__115__move_backwardB8ue170006INS_17_ClassicAlgPolicyEPhS2_S2_EENS_4pairIT0_T2_EES4_T1_S5_, symObjAddr: 0x18D70, symBinAddr: 0x100021C38, symSize: 0x44 }
  - { offsetInCU: 0x57BE, offset: 0x1FD7D, size: 0x8, addend: 0x0, symName: __ZNSt3__123__dispatch_copy_or_moveB8ue170006INS_17_ClassicAlgPolicyENS_20__move_backward_loopIS1_EENS_23__move_backward_trivialEPhS5_S5_EENS_4pairIT2_T4_EES7_T3_S8_, symObjAddr: 0x18DB4, symBinAddr: 0x100021C7C, symSize: 0x44 }
  - { offsetInCU: 0x583D, offset: 0x1FDFC, size: 0x8, addend: 0x0, symName: __ZNSt3__121__unwrap_and_dispatchB8ue170006INS_10__overloadINS_20__move_backward_loopINS_17_ClassicAlgPolicyEEENS_23__move_backward_trivialEEEPhS7_S7_Li0EEENS_4pairIT0_T2_EES9_T1_SA_, symObjAddr: 0x18DF8, symBinAddr: 0x100021CC0, symSize: 0xB4 }
  - { offsetInCU: 0x5914, offset: 0x1FED3, size: 0x8, addend: 0x0, symName: __ZNSt3__114__rewrap_rangeB8ue170006IPhS1_EET_S2_T0_, symObjAddr: 0x18EF4, symBinAddr: 0x100021DBC, symSize: 0x2C }
  - { offsetInCU: 0x5961, offset: 0x1FF20, size: 0x8, addend: 0x0, symName: __ZNSt3__128__copy_backward_trivial_implB8ue170006IhhEENS_4pairIPT_PT0_EES3_S3_S5_, symObjAddr: 0x18F20, symBinAddr: 0x100021DE8, symSize: 0x80 }
  - { offsetInCU: 0x59CA, offset: 0x1FF89, size: 0x8, addend: 0x0, symName: __ZNSt3__119__constexpr_memmoveB8ue170006IhhLi0EEEPT_S2_PT0_NS_15__element_countE, symObjAddr: 0x18FA0, symBinAddr: 0x100021E68, symSize: 0x64 }
  - { offsetInCU: 0x5A3A, offset: 0x1FFF9, size: 0x8, addend: 0x0, symName: __ZNSt3__19make_pairB8ue170006IRPhS2_EENS_4pairINS_18__unwrap_ref_decayIT_E4typeENS4_IT0_E4typeEEEOS5_OS8_, symObjAddr: 0x19004, symBinAddr: 0x100021ECC, symSize: 0x38 }
  - { offsetInCU: 0x5A8B, offset: 0x2004A, size: 0x8, addend: 0x0, symName: __ZNSt3__16__copyB8ue170006INS_17_ClassicAlgPolicyEPhS2_S2_EENS_4pairIT0_T2_EES4_T1_S5_, symObjAddr: 0x190AC, symBinAddr: 0x100021F74, symSize: 0x44 }
  - { offsetInCU: 0x5AF8, offset: 0x200B7, size: 0x8, addend: 0x0, symName: __ZNSt3__123__dispatch_copy_or_moveB8ue170006INS_17_ClassicAlgPolicyENS_11__copy_loopIS1_EENS_14__copy_trivialEPhS5_S5_EENS_4pairIT2_T4_EES7_T3_S8_, symObjAddr: 0x190F0, symBinAddr: 0x100021FB8, symSize: 0x44 }
  - { offsetInCU: 0x5B77, offset: 0x20136, size: 0x8, addend: 0x0, symName: __ZNSt3__121__unwrap_and_dispatchB8ue170006INS_10__overloadINS_11__copy_loopINS_17_ClassicAlgPolicyEEENS_14__copy_trivialEEEPhS7_S7_Li0EEENS_4pairIT0_T2_EES9_T1_SA_, symObjAddr: 0x19134, symBinAddr: 0x100021FFC, symSize: 0xB4 }
  - { offsetInCU: 0x5C4E, offset: 0x2020D, size: 0x8, addend: 0x0, symName: __ZNSt3__119__copy_trivial_implB8ue170006IhhEENS_4pairIPT_PT0_EES3_S3_S5_, symObjAddr: 0x19230, symBinAddr: 0x1000220F8, symSize: 0x78 }
  - { offsetInCU: 0x5CB7, offset: 0x20276, size: 0x8, addend: 0x0, symName: __ZNSt3__19make_pairB8ue170006IRPhS1_EENS_4pairINS_18__unwrap_ref_decayIT_E4typeENS4_IT0_E4typeEEEOS5_OS8_, symObjAddr: 0x192A8, symBinAddr: 0x100022170, symSize: 0x38 }
  - { offsetInCU: 0x5D08, offset: 0x202C7, size: 0x8, addend: 0x0, symName: __ZNSt3__142__uninitialized_allocator_move_if_noexceptB8ue170006INS_9allocatorIhEEPhS3_hvEET1_RT_T0_S7_S4_, symObjAddr: 0x193AC, symBinAddr: 0x100022274, symSize: 0x38 }
  - { offsetInCU: 0x5D88, offset: 0x20347, size: 0x8, addend: 0x0, symName: __ZNSt3__14moveB8ue170006IPhS1_EET0_T_S3_S2_, symObjAddr: 0x193E4, symBinAddr: 0x1000222AC, symSize: 0x40 }
  - { offsetInCU: 0x5DE3, offset: 0x203A2, size: 0x8, addend: 0x0, symName: __ZNSt3__16__moveB8ue170006INS_17_ClassicAlgPolicyEPhS2_S2_EENS_4pairIT0_T2_EES4_T1_S5_, symObjAddr: 0x19424, symBinAddr: 0x1000222EC, symSize: 0x44 }
  - { offsetInCU: 0x5E50, offset: 0x2040F, size: 0x8, addend: 0x0, symName: __ZNSt3__123__dispatch_copy_or_moveB8ue170006INS_17_ClassicAlgPolicyENS_11__move_loopIS1_EENS_14__move_trivialEPhS5_S5_EENS_4pairIT2_T4_EES7_T3_S8_, symObjAddr: 0x19468, symBinAddr: 0x100022330, symSize: 0x44 }
  - { offsetInCU: 0x5ECF, offset: 0x2048E, size: 0x8, addend: 0x0, symName: __ZNSt3__121__unwrap_and_dispatchB8ue170006INS_10__overloadINS_11__move_loopINS_17_ClassicAlgPolicyEEENS_14__move_trivialEEEPhS7_S7_Li0EEENS_4pairIT0_T2_EES9_T1_SA_, symObjAddr: 0x194AC, symBinAddr: 0x100022374, symSize: 0xB4 }
  - { offsetInCU: 0x5FA6, offset: 0x20565, size: 0x8, addend: 0x0, symName: __ZNSt3__110__distanceB8ue170006IPhEENS_15iterator_traitsIT_E15difference_typeES3_S3_NS_26random_access_iterator_tagE, symObjAddr: 0x195A8, symBinAddr: 0x100022470, symSize: 0x20 }
  - { offsetInCU: 0x644F, offset: 0x20A0E, size: 0x8, addend: 0x0, symName: __ZNSt3__16vectorIhNS_9allocatorIhEEE26__swap_out_circular_bufferERNS_14__split_bufferIhRS2_EE, symObjAddr: 0x16868, symBinAddr: 0x10001FB70, symSize: 0x110 }
  - { offsetInCU: 0x64A6, offset: 0x20A65, size: 0x8, addend: 0x0, symName: __ZNSt3__16vectorIhNS_9allocatorIhEEE26__swap_out_circular_bufferERNS_14__split_bufferIhRS2_EEPh, symObjAddr: 0x188A8, symBinAddr: 0x100021770, symSize: 0x14C }
  - { offsetInCU: 0x8295, offset: 0x22854, size: 0x8, addend: 0x0, symName: __Z20lodepng_read32bitIntPKh, symObjAddr: 0x0, symBinAddr: 0x100009314, symSize: 0x40 }
  - { offsetInCU: 0x82C5, offset: 0x22884, size: 0x8, addend: 0x0, symName: __Z17lodepng_load_filePPhPmPKc, symObjAddr: 0x40, symBinAddr: 0x100009354, symSize: 0xC4 }
  - { offsetInCU: 0x8325, offset: 0x228E4, size: 0x8, addend: 0x0, symName: __ZL16lodepng_filesizePKc, symObjAddr: 0x104, symBinAddr: 0x100009418, symSize: 0xCC }
  - { offsetInCU: 0x8375, offset: 0x22934, size: 0x8, addend: 0x0, symName: __ZL14lodepng_mallocm, symObjAddr: 0x1D0, symBinAddr: 0x1000094E4, symSize: 0x24 }
  - { offsetInCU: 0x83A1, offset: 0x22960, size: 0x8, addend: 0x0, symName: __ZL19lodepng_buffer_filePhmPKc, symObjAddr: 0x1F4, symBinAddr: 0x100009508, symSize: 0xA8 }
  - { offsetInCU: 0x8410, offset: 0x229CF, size: 0x8, addend: 0x0, symName: __Z17lodepng_save_filePKhmPKc, symObjAddr: 0x29C, symBinAddr: 0x1000095B0, symSize: 0x80 }
  - { offsetInCU: 0x846F, offset: 0x22A2E, size: 0x8, addend: 0x0, symName: __Z28lodepng_huffman_code_lengthsPjPKjmj, symObjAddr: 0x31C, symBinAddr: 0x100009630, symSize: 0x530 }
  - { offsetInCU: 0x853D, offset: 0x22AFC, size: 0x8, addend: 0x0, symName: __ZL12bpmnode_sortP7BPMNodem, symObjAddr: 0x84C, symBinAddr: 0x100009B60, symSize: 0x328 }
  - { offsetInCU: 0x8647, offset: 0x22C06, size: 0x8, addend: 0x0, symName: __ZL14bpmnode_createP8BPMListsijP7BPMNode, symObjAddr: 0xB74, symBinAddr: 0x100009E88, symSize: 0x260 }
  - { offsetInCU: 0x86E5, offset: 0x22CA4, size: 0x8, addend: 0x0, symName: __ZL10boundaryPMP8BPMListsP7BPMNodemii, symObjAddr: 0xDD4, symBinAddr: 0x10000A0E8, symSize: 0x250 }
  - { offsetInCU: 0x877F, offset: 0x22D3E, size: 0x8, addend: 0x0, symName: __ZL12lodepng_freePv, symObjAddr: 0x1024, symBinAddr: 0x10000A338, symSize: 0x24 }
  - { offsetInCU: 0x87A6, offset: 0x22D65, size: 0x8, addend: 0x0, symName: __Z15lodepng_inflatePPhPmPKhmPK25LodePNGDecompressSettings, symObjAddr: 0x1048, symBinAddr: 0x10000A35C, symSize: 0x7C }
  - { offsetInCU: 0x8836, offset: 0x22DF5, size: 0x8, addend: 0x0, symName: __ZL20ucvector_init_bufferP8ucvectorPhm, symObjAddr: 0x10C4, symBinAddr: 0x10000A3D8, symSize: 0x38 }
  - { offsetInCU: 0x8882, offset: 0x22E41, size: 0x8, addend: 0x0, symName: __ZL16lodepng_inflatevP8ucvectorPKhmPK25LodePNGDecompressSettings, symObjAddr: 0x10FC, symBinAddr: 0x10000A410, symSize: 0x188 }
  - { offsetInCU: 0x893F, offset: 0x22EFE, size: 0x8, addend: 0x0, symName: __Z15lodepng_deflatePPhPmPKhmPK23LodePNGCompressSettings, symObjAddr: 0x1284, symBinAddr: 0x10000A598, symSize: 0x7C }
  - { offsetInCU: 0x89CF, offset: 0x22F8E, size: 0x8, addend: 0x0, symName: __ZL16lodepng_deflatevP8ucvectorPKhmPK23LodePNGCompressSettings, symObjAddr: 0x1300, symBinAddr: 0x10000A614, symSize: 0x2D8 }
  - { offsetInCU: 0x8ACE, offset: 0x2308D, size: 0x8, addend: 0x0, symName: __Z23lodepng_zlib_decompressPPhPmPKhmPK25LodePNGDecompressSettings, symObjAddr: 0x15D8, symBinAddr: 0x10000A8EC, symSize: 0x1E0 }
  - { offsetInCU: 0x8BAC, offset: 0x2316B, size: 0x8, addend: 0x0, symName: __ZL7inflatePPhPmPKhmPK25LodePNGDecompressSettings, symObjAddr: 0x17B8, symBinAddr: 0x10000AACC, symSize: 0x90 }
  - { offsetInCU: 0x8C1C, offset: 0x231DB, size: 0x8, addend: 0x0, symName: __ZL7adler32PKhj, symObjAddr: 0x1848, symBinAddr: 0x10000AB5C, symSize: 0x30 }
  - { offsetInCU: 0x8C5B, offset: 0x2321A, size: 0x8, addend: 0x0, symName: __Z21lodepng_zlib_compressPPhPmPKhmPK23LodePNGCompressSettings, symObjAddr: 0x1878, symBinAddr: 0x10000AB8C, symSize: 0x1A0 }
  - { offsetInCU: 0x8D8B, offset: 0x2334A, size: 0x8, addend: 0x0, symName: __ZL18ucvector_push_backP8ucvectorh, symObjAddr: 0x1A18, symBinAddr: 0x10000AD2C, symSize: 0x7C }
  - { offsetInCU: 0x8DCB, offset: 0x2338A, size: 0x8, addend: 0x0, symName: __ZL7deflatePPhPmPKhmPK23LodePNGCompressSettings, symObjAddr: 0x1A94, symBinAddr: 0x10000ADA8, symSize: 0x90 }
  - { offsetInCU: 0x8E3B, offset: 0x233FA, size: 0x8, addend: 0x0, symName: __ZL19lodepng_add32bitIntP8ucvectorj, symObjAddr: 0x1B24, symBinAddr: 0x10000AE38, symSize: 0x54 }
  - { offsetInCU: 0x8E77, offset: 0x23436, size: 0x8, addend: 0x0, symName: __Z30lodepng_compress_settings_initP23LodePNGCompressSettings, symObjAddr: 0x1B78, symBinAddr: 0x10000AE8C, symSize: 0x6C }
  - { offsetInCU: 0x8EA3, offset: 0x23462, size: 0x8, addend: 0x0, symName: __Z32lodepng_decompress_settings_initP25LodePNGDecompressSettings, symObjAddr: 0x1BE4, symBinAddr: 0x10000AEF8, symSize: 0x30 }
  - { offsetInCU: 0x8ECE, offset: 0x2348D, size: 0x8, addend: 0x0, symName: __Z13lodepng_crc32PKhm, symObjAddr: 0x1C14, symBinAddr: 0x10000AF28, symSize: 0x88 }
  - { offsetInCU: 0x8F2E, offset: 0x234ED, size: 0x8, addend: 0x0, symName: __Z20lodepng_chunk_lengthPKh, symObjAddr: 0x1C9C, symBinAddr: 0x10000AFB0, symSize: 0x24 }
  - { offsetInCU: 0x8F5E, offset: 0x2351D, size: 0x8, addend: 0x0, symName: __Z18lodepng_chunk_typePcPKh, symObjAddr: 0x1CC0, symBinAddr: 0x10000AFD4, symSize: 0x70 }
  - { offsetInCU: 0x8FA9, offset: 0x23568, size: 0x8, addend: 0x0, symName: __Z25lodepng_chunk_type_equalsPKhPKc, symObjAddr: 0x1D30, symBinAddr: 0x10000B044, symSize: 0xEC }
  - { offsetInCU: 0x8FE8, offset: 0x235A7, size: 0x8, addend: 0x0, symName: __Z23lodepng_chunk_ancillaryPKh, symObjAddr: 0x1E1C, symBinAddr: 0x10000B130, symSize: 0x24 }
  - { offsetInCU: 0x9018, offset: 0x235D7, size: 0x8, addend: 0x0, symName: __Z21lodepng_chunk_privatePKh, symObjAddr: 0x1E40, symBinAddr: 0x10000B154, symSize: 0x24 }
  - { offsetInCU: 0x9048, offset: 0x23607, size: 0x8, addend: 0x0, symName: __Z24lodepng_chunk_safetocopyPKh, symObjAddr: 0x1E64, symBinAddr: 0x10000B178, symSize: 0x24 }
  - { offsetInCU: 0x9078, offset: 0x23637, size: 0x8, addend: 0x0, symName: __Z18lodepng_chunk_dataPh, symObjAddr: 0x1E88, symBinAddr: 0x10000B19C, symSize: 0x18 }
  - { offsetInCU: 0x90A8, offset: 0x23667, size: 0x8, addend: 0x0, symName: __Z24lodepng_chunk_data_constPKh, symObjAddr: 0x1EA0, symBinAddr: 0x10000B1B4, symSize: 0x18 }
  - { offsetInCU: 0x90D8, offset: 0x23697, size: 0x8, addend: 0x0, symName: __Z23lodepng_chunk_check_crcPKh, symObjAddr: 0x1EB8, symBinAddr: 0x10000B1CC, symSize: 0x8C }
  - { offsetInCU: 0x9137, offset: 0x236F6, size: 0x8, addend: 0x0, symName: __Z26lodepng_chunk_generate_crcPh, symObjAddr: 0x1F44, symBinAddr: 0x10000B258, symSize: 0x5C }
  - { offsetInCU: 0x9184, offset: 0x23743, size: 0x8, addend: 0x0, symName: __ZL19lodepng_set32bitIntPhj, symObjAddr: 0x1FA0, symBinAddr: 0x10000B2B4, symSize: 0x5C }
  - { offsetInCU: 0x91BF, offset: 0x2377E, size: 0x8, addend: 0x0, symName: __Z18lodepng_chunk_nextPh, symObjAddr: 0x1FFC, symBinAddr: 0x10000B310, symSize: 0x38 }
  - { offsetInCU: 0x91FE, offset: 0x237BD, size: 0x8, addend: 0x0, symName: __Z24lodepng_chunk_next_constPKh, symObjAddr: 0x2034, symBinAddr: 0x10000B348, symSize: 0x38 }
  - { offsetInCU: 0x923D, offset: 0x237FC, size: 0x8, addend: 0x0, symName: __Z20lodepng_chunk_appendPPhPmPKh, symObjAddr: 0x206C, symBinAddr: 0x10000B380, symSize: 0x150 }
  - { offsetInCU: 0x92DD, offset: 0x2389C, size: 0x8, addend: 0x0, symName: __ZL15lodepng_reallocPvm, symObjAddr: 0x21BC, symBinAddr: 0x10000B4D0, symSize: 0x2C }
  - { offsetInCU: 0x9316, offset: 0x238D5, size: 0x8, addend: 0x0, symName: __Z20lodepng_chunk_createPPhPmjPKcPKh, symObjAddr: 0x21E8, symBinAddr: 0x10000B4FC, symSize: 0x1B0 }
  - { offsetInCU: 0x93C6, offset: 0x23985, size: 0x8, addend: 0x0, symName: __Z23lodepng_color_mode_initP16LodePNGColorMode, symObjAddr: 0x2398, symBinAddr: 0x10000B6AC, symSize: 0x58 }
  - { offsetInCU: 0x93F1, offset: 0x239B0, size: 0x8, addend: 0x0, symName: __Z26lodepng_color_mode_cleanupP16LodePNGColorMode, symObjAddr: 0x23F0, symBinAddr: 0x10000B704, symSize: 0x24 }
  - { offsetInCU: 0x941D, offset: 0x239DC, size: 0x8, addend: 0x0, symName: __Z21lodepng_palette_clearP16LodePNGColorMode, symObjAddr: 0x2414, symBinAddr: 0x10000B728, symSize: 0x54 }
  - { offsetInCU: 0x9449, offset: 0x23A08, size: 0x8, addend: 0x0, symName: __Z23lodepng_color_mode_copyP16LodePNGColorModePKS_, symObjAddr: 0x2468, symBinAddr: 0x10000B77C, symSize: 0x10C }
  - { offsetInCU: 0x9498, offset: 0x23A57, size: 0x8, addend: 0x0, symName: __Z19lodepng_palette_addP16LodePNGColorModehhhh, symObjAddr: 0x2574, symBinAddr: 0x10000B888, symSize: 0x13C }
  - { offsetInCU: 0x9517, offset: 0x23AD6, size: 0x8, addend: 0x0, symName: __Z15lodepng_get_bppPK16LodePNGColorMode, symObjAddr: 0x26B0, symBinAddr: 0x10000B9C4, symSize: 0x30 }
  - { offsetInCU: 0x9547, offset: 0x23B06, size: 0x8, addend: 0x0, symName: __ZL19lodepng_get_bpp_lct16LodePNGColorTypej, symObjAddr: 0x26E0, symBinAddr: 0x10000B9F4, symSize: 0x30 }
  - { offsetInCU: 0x9586, offset: 0x23B45, size: 0x8, addend: 0x0, symName: __Z20lodepng_get_channelsPK16LodePNGColorMode, symObjAddr: 0x2710, symBinAddr: 0x10000BA24, symSize: 0x28 }
  - { offsetInCU: 0x95B6, offset: 0x23B75, size: 0x8, addend: 0x0, symName: __ZL19getNumColorChannels16LodePNGColorType, symObjAddr: 0x2738, symBinAddr: 0x10000BA4C, symSize: 0x8C }
  - { offsetInCU: 0x95E5, offset: 0x23BA4, size: 0x8, addend: 0x0, symName: __Z25lodepng_is_greyscale_typePK16LodePNGColorMode, symObjAddr: 0x27E0, symBinAddr: 0x10000BAF4, symSize: 0x50 }
  - { offsetInCU: 0x9615, offset: 0x23BD4, size: 0x8, addend: 0x0, symName: __Z21lodepng_is_alpha_typePK16LodePNGColorMode, symObjAddr: 0x2830, symBinAddr: 0x10000BB44, symSize: 0x24 }
  - { offsetInCU: 0x9645, offset: 0x23C04, size: 0x8, addend: 0x0, symName: __Z23lodepng_is_palette_typePK16LodePNGColorMode, symObjAddr: 0x2854, symBinAddr: 0x10000BB68, symSize: 0x24 }
  - { offsetInCU: 0x9675, offset: 0x23C34, size: 0x8, addend: 0x0, symName: __Z25lodepng_has_palette_alphaPK16LodePNGColorMode, symObjAddr: 0x2878, symBinAddr: 0x10000BB8C, symSize: 0x88 }
  - { offsetInCU: 0x96B5, offset: 0x23C74, size: 0x8, addend: 0x0, symName: __Z22lodepng_can_have_alphaPK16LodePNGColorMode, symObjAddr: 0x2900, symBinAddr: 0x10000BC14, symSize: 0x7C }
  - { offsetInCU: 0x96E4, offset: 0x23CA3, size: 0x8, addend: 0x0, symName: __Z24lodepng_get_raw_size_lctjj16LodePNGColorTypej, symObjAddr: 0x297C, symBinAddr: 0x10000BC90, symSize: 0x7C }
  - { offsetInCU: 0x9763, offset: 0x23D22, size: 0x8, addend: 0x0, symName: __Z20lodepng_get_raw_sizejjPK16LodePNGColorMode, symObjAddr: 0x29F8, symBinAddr: 0x10000BD0C, symSize: 0x40 }
  - { offsetInCU: 0x97B2, offset: 0x23D71, size: 0x8, addend: 0x0, symName: __Z18lodepng_clear_textP11LodePNGInfo, symObjAddr: 0x2A38, symBinAddr: 0x10000BD4C, symSize: 0x24 }
  - { offsetInCU: 0x97DF, offset: 0x23D9E, size: 0x8, addend: 0x0, symName: __ZL19LodePNGText_cleanupP11LodePNGInfo, symObjAddr: 0x2A5C, symBinAddr: 0x10000BD70, symSize: 0x94 }
  - { offsetInCU: 0x981A, offset: 0x23DD9, size: 0x8, addend: 0x0, symName: __Z16lodepng_add_textP11LodePNGInfoPKcS2_, symObjAddr: 0x2AF0, symBinAddr: 0x10000BE04, symSize: 0x160 }
  - { offsetInCU: 0x988A, offset: 0x23E49, size: 0x8, addend: 0x0, symName: __ZL11string_initPPc, symObjAddr: 0x2C50, symBinAddr: 0x10000BF64, symSize: 0x30 }
  - { offsetInCU: 0x98B6, offset: 0x23E75, size: 0x8, addend: 0x0, symName: __ZL10string_setPPcPKc, symObjAddr: 0x2C80, symBinAddr: 0x10000BF94, symSize: 0xA4 }
  - { offsetInCU: 0x9911, offset: 0x23ED0, size: 0x8, addend: 0x0, symName: __Z19lodepng_clear_itextP11LodePNGInfo, symObjAddr: 0x2D24, symBinAddr: 0x10000C038, symSize: 0x24 }
  - { offsetInCU: 0x993E, offset: 0x23EFD, size: 0x8, addend: 0x0, symName: __ZL20LodePNGIText_cleanupP11LodePNGInfo, symObjAddr: 0x2D48, symBinAddr: 0x10000C05C, symSize: 0xD4 }
  - { offsetInCU: 0x9979, offset: 0x23F38, size: 0x8, addend: 0x0, symName: __Z17lodepng_add_itextP11LodePNGInfoPKcS2_S2_S2_, symObjAddr: 0x2E1C, symBinAddr: 0x10000C130, symSize: 0x278 }
  - { offsetInCU: 0x9A28, offset: 0x23FE7, size: 0x8, addend: 0x0, symName: __Z17lodepng_info_initP11LodePNGInfo, symObjAddr: 0x3094, symBinAddr: 0x10000C3A8, symSize: 0x88 }
  - { offsetInCU: 0x9A55, offset: 0x24014, size: 0x8, addend: 0x0, symName: __ZL16LodePNGText_initP11LodePNGInfo, symObjAddr: 0x311C, symBinAddr: 0x10000C430, symSize: 0x28 }
  - { offsetInCU: 0x9A81, offset: 0x24040, size: 0x8, addend: 0x0, symName: __ZL17LodePNGIText_initP11LodePNGInfo, symObjAddr: 0x3144, symBinAddr: 0x10000C458, symSize: 0x38 }
  - { offsetInCU: 0x9AAD, offset: 0x2406C, size: 0x8, addend: 0x0, symName: __ZL25LodePNGUnknownChunks_initP11LodePNGInfo, symObjAddr: 0x317C, symBinAddr: 0x10000C490, symSize: 0xA0 }
  - { offsetInCU: 0x9AE8, offset: 0x240A7, size: 0x8, addend: 0x0, symName: __Z20lodepng_info_cleanupP11LodePNGInfo, symObjAddr: 0x321C, symBinAddr: 0x10000C530, symSize: 0x40 }
  - { offsetInCU: 0x9B15, offset: 0x240D4, size: 0x8, addend: 0x0, symName: __ZL28LodePNGUnknownChunks_cleanupP11LodePNGInfo, symObjAddr: 0x325C, symBinAddr: 0x10000C570, symSize: 0x60 }
  - { offsetInCU: 0x9B50, offset: 0x2410F, size: 0x8, addend: 0x0, symName: __Z17lodepng_info_copyP11LodePNGInfoPKS_, symObjAddr: 0x32BC, symBinAddr: 0x10000C5D0, symSize: 0x120 }
  - { offsetInCU: 0x9C08, offset: 0x241C7, size: 0x8, addend: 0x0, symName: __ZL16LodePNGText_copyP11LodePNGInfoPKS_, symObjAddr: 0x33DC, symBinAddr: 0x10000C6F0, symSize: 0xCC }
  - { offsetInCU: 0x9C76, offset: 0x24235, size: 0x8, addend: 0x0, symName: __ZL17LodePNGIText_copyP11LodePNGInfoPKS_, symObjAddr: 0x34A8, symBinAddr: 0x10000C7BC, symSize: 0xFC }
  - { offsetInCU: 0x9CE4, offset: 0x242A3, size: 0x8, addend: 0x0, symName: __ZL25LodePNGUnknownChunks_copyP11LodePNGInfoPKS_, symObjAddr: 0x35A4, symBinAddr: 0x10000C8B8, symSize: 0x16C }
  - { offsetInCU: 0x9D51, offset: 0x24310, size: 0x8, addend: 0x0, symName: __Z17lodepng_info_swapP11LodePNGInfoS0_, symObjAddr: 0x3710, symBinAddr: 0x10000CA24, symSize: 0x60 }
  - { offsetInCU: 0x9D9D, offset: 0x2435C, size: 0x8, addend: 0x0, symName: __Z15lodepng_convertPhPKhPK16LodePNGColorModeS4_jj, symObjAddr: 0x3770, symBinAddr: 0x10000CA84, symSize: 0x56C }
  - { offsetInCU: 0x9F97, offset: 0x24556, size: 0x8, addend: 0x0, symName: __ZL24lodepng_color_mode_equalPK16LodePNGColorModeS1_, symObjAddr: 0x3CDC, symBinAddr: 0x10000CFF0, symSize: 0x1C8 }
  - { offsetInCU: 0x9FE7, offset: 0x245A6, size: 0x8, addend: 0x0, symName: __ZL15color_tree_initP9ColorTree, symObjAddr: 0x3EA4, symBinAddr: 0x10000D1B8, symSize: 0x5C }
  - { offsetInCU: 0xA023, offset: 0x245E2, size: 0x8, addend: 0x0, symName: __ZL14color_tree_addP9ColorTreehhhhj, symObjAddr: 0x3F00, symBinAddr: 0x10000D214, symSize: 0x130 }
  - { offsetInCU: 0xA0CD, offset: 0x2468C, size: 0x8, addend: 0x0, symName: __ZL19getPixelColorRGBA16PtS_S_S_PKhmPK16LodePNGColorMode, symObjAddr: 0x4030, symBinAddr: 0x10000D344, symSize: 0x4AC }
  - { offsetInCU: 0xA159, offset: 0x24718, size: 0x8, addend: 0x0, symName: __ZL13rgba16ToPixelPhmPK16LodePNGColorModetttt, symObjAddr: 0x44DC, symBinAddr: 0x10000D7F0, symSize: 0x2E8 }
  - { offsetInCU: 0xA221, offset: 0x247E0, size: 0x8, addend: 0x0, symName: __ZL19getPixelColorsRGBA8PhmjPKhPK16LodePNGColorMode, symObjAddr: 0x47C4, symBinAddr: 0x10000DAD8, symSize: 0xCE4 }
  - { offsetInCU: 0xA327, offset: 0x248E6, size: 0x8, addend: 0x0, symName: __ZL18getPixelColorRGBA8PhS_S_S_PKhmPK16LodePNGColorMode, symObjAddr: 0x54A8, symBinAddr: 0x10000E7BC, symSize: 0x8B8 }
  - { offsetInCU: 0xA42D, offset: 0x249EC, size: 0x8, addend: 0x0, symName: __ZL12rgba8ToPixelPhmPK16LodePNGColorModeP9ColorTreehhhh, symObjAddr: 0x5D60, symBinAddr: 0x10000F074, symSize: 0x59C }
  - { offsetInCU: 0xA527, offset: 0x24AE6, size: 0x8, addend: 0x0, symName: __ZL18color_tree_cleanupP9ColorTree, symObjAddr: 0x62FC, symBinAddr: 0x10000F610, symSize: 0x8C }
  - { offsetInCU: 0xA563, offset: 0x24B22, size: 0x8, addend: 0x0, symName: __Z26lodepng_color_profile_initP19LodePNGColorProfile, symObjAddr: 0x6388, symBinAddr: 0x10000F69C, symSize: 0x54 }
  - { offsetInCU: 0xA58E, offset: 0x24B4D, size: 0x8, addend: 0x0, symName: __Z25lodepng_get_color_profileP19LodePNGColorProfilePKhjjPK16LodePNGColorMode, symObjAddr: 0x63DC, symBinAddr: 0x10000F6F0, symSize: 0xE40 }
  - { offsetInCU: 0xA832, offset: 0x24DF1, size: 0x8, addend: 0x0, symName: __ZL20getValueRequiredBitsh, symObjAddr: 0x721C, symBinAddr: 0x100010530, symSize: 0xB0 }
  - { offsetInCU: 0xA862, offset: 0x24E21, size: 0x8, addend: 0x0, symName: __ZL14color_tree_hasP9ColorTreehhhh, symObjAddr: 0x72CC, symBinAddr: 0x1000105E0, symSize: 0x50 }
  - { offsetInCU: 0xA8D1, offset: 0x24E90, size: 0x8, addend: 0x0, symName: __Z25lodepng_auto_choose_colorP16LodePNGColorModePKhjjPKS_, symObjAddr: 0x731C, symBinAddr: 0x100010630, symSize: 0x4A0 }
  - { offsetInCU: 0xA9F6, offset: 0x24FB5, size: 0x8, addend: 0x0, symName: __Z15lodepng_inspectPjS_P12LodePNGStatePKhm, symObjAddr: 0x77BC, symBinAddr: 0x100010AD0, symSize: 0x3C4 }
  - { offsetInCU: 0xAAA4, offset: 0x25063, size: 0x8, addend: 0x0, symName: __ZL18checkColorValidity16LodePNGColorTypej, symObjAddr: 0x7B80, symBinAddr: 0x100010E94, symSize: 0x1DC }
  - { offsetInCU: 0xAAE3, offset: 0x250A2, size: 0x8, addend: 0x0, symName: __Z14lodepng_decodePPhPjS1_P12LodePNGStatePKhm, symObjAddr: 0x7D78, symBinAddr: 0x10001108C, symSize: 0x230 }
  - { offsetInCU: 0xAB91, offset: 0x25150, size: 0x8, addend: 0x0, symName: __ZL13decodeGenericPPhPjS1_P12LodePNGStatePKhm, symObjAddr: 0x7FA8, symBinAddr: 0x1000112BC, symSize: 0xC24 }
  - { offsetInCU: 0xAD1A, offset: 0x252D9, size: 0x8, addend: 0x0, symName: __Z21lodepng_decode_memoryPPhPjS1_PKhm16LodePNGColorTypej, symObjAddr: 0x8BCC, symBinAddr: 0x100011EE0, symSize: 0xDC }
  - { offsetInCU: 0xB1B2, offset: 0x25771, size: 0x8, addend: 0x0, symName: __ZN12LodePNGStateC1Ev, symObjAddr: 0x8CA8, symBinAddr: 0x100011FBC, symSize: 0x2C }
  - { offsetInCU: 0xB1DD, offset: 0x2579C, size: 0x8, addend: 0x0, symName: __Z18lodepng_state_initP12LodePNGState, symObjAddr: 0x8CD4, symBinAddr: 0x100011FE8, symSize: 0x58 }
  - { offsetInCU: 0xB209, offset: 0x257C8, size: 0x8, addend: 0x0, symName: __Z21lodepng_state_cleanupP12LodePNGState, symObjAddr: 0x8D2C, symBinAddr: 0x100012040, symSize: 0x34 }
  - { offsetInCU: 0xB236, offset: 0x257F5, size: 0x8, addend: 0x0, symName: __ZN12LodePNGStateD1Ev, symObjAddr: 0x8D60, symBinAddr: 0x100012074, symSize: 0x2C }
  - { offsetInCU: 0xB25E, offset: 0x2581D, size: 0x8, addend: 0x0, symName: __Z16lodepng_decode32PPhPjS1_PKhm, symObjAddr: 0x8D8C, symBinAddr: 0x1000120A0, symSize: 0x4C }
  - { offsetInCU: 0xB2CD, offset: 0x2588C, size: 0x8, addend: 0x0, symName: __Z16lodepng_decode24PPhPjS1_PKhm, symObjAddr: 0x8DD8, symBinAddr: 0x1000120EC, symSize: 0x4C }
  - { offsetInCU: 0xB33C, offset: 0x258FB, size: 0x8, addend: 0x0, symName: __Z19lodepng_decode_filePPhPjS1_PKc16LodePNGColorTypej, symObjAddr: 0x8E24, symBinAddr: 0x100012138, symSize: 0x90 }
  - { offsetInCU: 0xB3EB, offset: 0x259AA, size: 0x8, addend: 0x0, symName: __Z21lodepng_decode32_filePPhPjS1_PKc, symObjAddr: 0x8EB4, symBinAddr: 0x1000121C8, symSize: 0x44 }
  - { offsetInCU: 0xB44A, offset: 0x25A09, size: 0x8, addend: 0x0, symName: __Z21lodepng_decode24_filePPhPjS1_PKc, symObjAddr: 0x8EF8, symBinAddr: 0x10001220C, symSize: 0x44 }
  - { offsetInCU: 0xB4A9, offset: 0x25A68, size: 0x8, addend: 0x0, symName: __Z29lodepng_decoder_settings_initP22LodePNGDecoderSettings, symObjAddr: 0x8F3C, symBinAddr: 0x100012250, symSize: 0x58 }
  - { offsetInCU: 0xB4D5, offset: 0x25A94, size: 0x8, addend: 0x0, symName: __Z29lodepng_encoder_settings_initP22LodePNGEncoderSettings, symObjAddr: 0x8F94, symBinAddr: 0x1000122A8, symSize: 0x60 }
  - { offsetInCU: 0xB501, offset: 0x25AC0, size: 0x8, addend: 0x0, symName: __Z18lodepng_state_copyP12LodePNGStatePKS_, symObjAddr: 0x8FF4, symBinAddr: 0x100012308, symSize: 0xBC }
  - { offsetInCU: 0xB54D, offset: 0x25B0C, size: 0x8, addend: 0x0, symName: __ZN12LodePNGStateaSERKS_, symObjAddr: 0x90B0, symBinAddr: 0x1000123C4, symSize: 0x40 }
  - { offsetInCU: 0xB57D, offset: 0x25B3C, size: 0x8, addend: 0x0, symName: __Z14lodepng_encodePPhPmPKhjjP12LodePNGState, symObjAddr: 0x90F0, symBinAddr: 0x100012404, symSize: 0xA38 }
  - { offsetInCU: 0xB6AB, offset: 0x25C6A, size: 0x8, addend: 0x0, symName: __ZL19preProcessScanlinesPPhPmPKhjjPK11LodePNGInfoPK22LodePNGEncoderSettings, symObjAddr: 0x9B28, symBinAddr: 0x100012E3C, symSize: 0x550 }
  - { offsetInCU: 0xB82E, offset: 0x25DED, size: 0x8, addend: 0x0, symName: __ZL13ucvector_initP8ucvector, symObjAddr: 0xA078, symBinAddr: 0x10001338C, symSize: 0x28 }
  - { offsetInCU: 0xB857, offset: 0x25E16, size: 0x8, addend: 0x0, symName: __ZL14writeSignatureP8ucvector, symObjAddr: 0xA0A0, symBinAddr: 0x1000133B4, symSize: 0x80 }
  - { offsetInCU: 0xB883, offset: 0x25E42, size: 0x8, addend: 0x0, symName: __ZL13addChunk_IHDRP8ucvectorjj16LodePNGColorTypejj, symObjAddr: 0xA120, symBinAddr: 0x100013434, symSize: 0xD4 }
  - { offsetInCU: 0xB923, offset: 0x25EE2, size: 0x8, addend: 0x0, symName: __ZL16addUnknownChunksP8ucvectorPhm, symObjAddr: 0xA1F4, symBinAddr: 0x100013508, symSize: 0xB4 }
  - { offsetInCU: 0xB9A1, offset: 0x25F60, size: 0x8, addend: 0x0, symName: __ZL13addChunk_PLTEP8ucvectorPK16LodePNGColorMode, symObjAddr: 0xA2A8, symBinAddr: 0x1000135BC, symSize: 0xD8 }
  - { offsetInCU: 0xBA11, offset: 0x25FD0, size: 0x8, addend: 0x0, symName: __ZL22getPaletteTranslucencyPKhm, symObjAddr: 0xA380, symBinAddr: 0x100013694, symSize: 0x1D8 }
  - { offsetInCU: 0xBAA1, offset: 0x26060, size: 0x8, addend: 0x0, symName: __ZL13addChunk_tRNSP8ucvectorPK16LodePNGColorMode, symObjAddr: 0xA558, symBinAddr: 0x10001386C, symSize: 0x28C }
  - { offsetInCU: 0xBB2F, offset: 0x260EE, size: 0x8, addend: 0x0, symName: __ZL13addChunk_bKGDP8ucvectorPK11LodePNGInfo, symObjAddr: 0xA7E4, symBinAddr: 0x100013AF8, symSize: 0x1B8 }
  - { offsetInCU: 0xBB8F, offset: 0x2614E, size: 0x8, addend: 0x0, symName: __ZL13addChunk_pHYsP8ucvectorPK11LodePNGInfo, symObjAddr: 0xA99C, symBinAddr: 0x100013CB0, symSize: 0x90 }
  - { offsetInCU: 0xBBEF, offset: 0x261AE, size: 0x8, addend: 0x0, symName: __ZL13addChunk_IDATP8ucvectorPKhmP23LodePNGCompressSettings, symObjAddr: 0xAA2C, symBinAddr: 0x100013D40, symSize: 0x98 }
  - { offsetInCU: 0xBC6F, offset: 0x2622E, size: 0x8, addend: 0x0, symName: __ZL13addChunk_tIMEP8ucvectorPK11LodePNGTime, symObjAddr: 0xAAC4, symBinAddr: 0x100013DD8, symSize: 0xF8 }
  - { offsetInCU: 0xBCCF, offset: 0x2628E, size: 0x8, addend: 0x0, symName: __ZL13addChunk_zTXtP8ucvectorPKcS2_P23LodePNGCompressSettings, symObjAddr: 0xABBC, symBinAddr: 0x100013ED0, symSize: 0x1A0 }
  - { offsetInCU: 0xBD7F, offset: 0x2633E, size: 0x8, addend: 0x0, symName: __ZL13addChunk_tEXtP8ucvectorPKcS2_, symObjAddr: 0xAD5C, symBinAddr: 0x100014070, symSize: 0x148 }
  - { offsetInCU: 0xBDFF, offset: 0x263BE, size: 0x8, addend: 0x0, symName: __ZL13addChunk_iTXtP8ucvectorjPKcS2_S2_S2_P23LodePNGCompressSettings, symObjAddr: 0xAEA4, symBinAddr: 0x1000141B8, symSize: 0x308 }
  - { offsetInCU: 0xBEEF, offset: 0x264AE, size: 0x8, addend: 0x0, symName: __ZL13addChunk_IENDP8ucvector, symObjAddr: 0xB1AC, symBinAddr: 0x1000144C0, symSize: 0x40 }
  - { offsetInCU: 0xBF2E, offset: 0x264ED, size: 0x8, addend: 0x0, symName: __Z21lodepng_encode_memoryPPhPmPKhjj16LodePNGColorTypej, symObjAddr: 0xB1EC, symBinAddr: 0x100014500, symSize: 0xE8 }
  - { offsetInCU: 0xBFDD, offset: 0x2659C, size: 0x8, addend: 0x0, symName: __Z16lodepng_encode32PPhPmPKhjj, symObjAddr: 0xB2D4, symBinAddr: 0x1000145E8, symSize: 0x4C }
  - { offsetInCU: 0xC04C, offset: 0x2660B, size: 0x8, addend: 0x0, symName: __Z16lodepng_encode24PPhPmPKhjj, symObjAddr: 0xB320, symBinAddr: 0x100014634, symSize: 0x4C }
  - { offsetInCU: 0xC0BB, offset: 0x2667A, size: 0x8, addend: 0x0, symName: __Z19lodepng_encode_filePKcPKhjj16LodePNGColorTypej, symObjAddr: 0xB36C, symBinAddr: 0x100014680, symSize: 0x8C }
  - { offsetInCU: 0xC16A, offset: 0x26729, size: 0x8, addend: 0x0, symName: __Z21lodepng_encode32_filePKcPKhjj, symObjAddr: 0xB3F8, symBinAddr: 0x10001470C, symSize: 0x44 }
  - { offsetInCU: 0xC1C9, offset: 0x26788, size: 0x8, addend: 0x0, symName: __Z21lodepng_encode24_filePKcPKhjj, symObjAddr: 0xB43C, symBinAddr: 0x100014750, symSize: 0x44 }
  - { offsetInCU: 0xC228, offset: 0x267E7, size: 0x8, addend: 0x0, symName: __Z18lodepng_error_textj, symObjAddr: 0xB480, symBinAddr: 0x100014794, symSize: 0x578 }
  - { offsetInCU: 0xC25D, offset: 0x2681C, size: 0x8, addend: 0x0, symName: __ZN7lodepng9load_fileERNSt3__16vectorIhNS0_9allocatorIhEEEERKNS0_12basic_stringIcNS0_11char_traitsIcEENS2_IcEEEE, symObjAddr: 0xBB78, symBinAddr: 0x100014E8C, symSize: 0xC4 }
  - { offsetInCU: 0xC2AC, offset: 0x2686B, size: 0x8, addend: 0x0, symName: __ZN7lodepng9save_fileERKNSt3__16vectorIhNS0_9allocatorIhEEEERKNS0_12basic_stringIcNS0_11char_traitsIcEENS2_IcEEEE, symObjAddr: 0xBD18, symBinAddr: 0x10001502C, symSize: 0x7C }
  - { offsetInCU: 0xC2EB, offset: 0x268AA, size: 0x8, addend: 0x0, symName: __ZN7lodepng10decompressERNSt3__16vectorIhNS0_9allocatorIhEEEEPKhmRK25LodePNGDecompressSettings, symObjAddr: 0xBE00, symBinAddr: 0x100015114, symSize: 0xB4 }
  - { offsetInCU: 0xC37A, offset: 0x26939, size: 0x8, addend: 0x0, symName: __ZN7lodepng10decompressERNSt3__16vectorIhNS0_9allocatorIhEEEERKS4_RK25LodePNGDecompressSettings, symObjAddr: 0xC024, symBinAddr: 0x100015338, symSize: 0x80 }
  - { offsetInCU: 0xC3C9, offset: 0x26988, size: 0x8, addend: 0x0, symName: __ZN7lodepng8compressERNSt3__16vectorIhNS0_9allocatorIhEEEEPKhmRK23LodePNGCompressSettings, symObjAddr: 0xC0A4, symBinAddr: 0x1000153B8, symSize: 0xB4 }
  - { offsetInCU: 0xC458, offset: 0x26A17, size: 0x8, addend: 0x0, symName: __ZN7lodepng8compressERNSt3__16vectorIhNS0_9allocatorIhEEEERKS4_RK23LodePNGCompressSettings, symObjAddr: 0xC1E8, symBinAddr: 0x1000154FC, symSize: 0x80 }
  - { offsetInCU: 0xC515, offset: 0x26AD4, size: 0x8, addend: 0x0, symName: __ZN7lodepng6decodeERNSt3__16vectorIhNS0_9allocatorIhEEEERjS6_PKhm16LodePNGColorTypej, symObjAddr: 0xC4E4, symBinAddr: 0x1000157EC, symSize: 0x15C }
  - { offsetInCU: 0xC5EF, offset: 0x26BAE, size: 0x8, addend: 0x0, symName: __ZN7lodepng6decodeERNSt3__16vectorIhNS0_9allocatorIhEEEERjS6_RKS4_16LodePNGColorTypej, symObjAddr: 0xC640, symBinAddr: 0x100015948, symSize: 0xAC }
  - { offsetInCU: 0xC66E, offset: 0x26C2D, size: 0x8, addend: 0x0, symName: __ZN7lodepng6decodeERNSt3__16vectorIhNS0_9allocatorIhEEEERjS6_RNS_5StateEPKhm, symObjAddr: 0xC6EC, symBinAddr: 0x1000159F4, symSize: 0xF0 }
  - { offsetInCU: 0xC72B, offset: 0x26CEA, size: 0x8, addend: 0x0, symName: __ZN7lodepng6decodeERNSt3__16vectorIhNS0_9allocatorIhEEEERjS6_RNS_5StateERKS4_, symObjAddr: 0xC7DC, symBinAddr: 0x100015AE4, symSize: 0xA8 }
  - { offsetInCU: 0xC79A, offset: 0x26D59, size: 0x8, addend: 0x0, symName: __ZN7lodepng6decodeERNSt3__16vectorIhNS0_9allocatorIhEEEERjS6_RKNS0_12basic_stringIcNS0_11char_traitsIcEENS2_IcEEEE16LodePNGColorTypej, symObjAddr: 0xC884, symBinAddr: 0x100015B8C, symSize: 0xE4 }
  - { offsetInCU: 0xC839, offset: 0x26DF8, size: 0x8, addend: 0x0, symName: __ZN7lodepng6encodeERNSt3__16vectorIhNS0_9allocatorIhEEEEPKhjj16LodePNGColorTypej, symObjAddr: 0xC9C0, symBinAddr: 0x100015CC8, symSize: 0xBC }
  - { offsetInCU: 0xC8E8, offset: 0x26EA7, size: 0x8, addend: 0x0, symName: __ZN7lodepng6encodeERNSt3__16vectorIhNS0_9allocatorIhEEEERKS4_jj16LodePNGColorTypej, symObjAddr: 0xCA7C, symBinAddr: 0x100015D84, symSize: 0xD4 }
  - { offsetInCU: 0xC967, offset: 0x26F26, size: 0x8, addend: 0x0, symName: __ZN7lodepng6encodeERNSt3__16vectorIhNS0_9allocatorIhEEEEPKhjjRNS_5StateE, symObjAddr: 0xCB50, symBinAddr: 0x100015E58, symSize: 0xB4 }
  - { offsetInCU: 0xCA06, offset: 0x26FC5, size: 0x8, addend: 0x0, symName: __ZN7lodepng6encodeERNSt3__16vectorIhNS0_9allocatorIhEEEERKS4_jjRNS_5StateE, symObjAddr: 0xCC04, symBinAddr: 0x100015F0C, symSize: 0xCC }
  - { offsetInCU: 0xCA75, offset: 0x27034, size: 0x8, addend: 0x0, symName: __ZN7lodepng6encodeERKNSt3__112basic_stringIcNS0_11char_traitsIcEENS0_9allocatorIcEEEEPKhjj16LodePNGColorTypej, symObjAddr: 0xCCD0, symBinAddr: 0x100015FD8, symSize: 0xD0 }
  - { offsetInCU: 0xCB14, offset: 0x270D3, size: 0x8, addend: 0x0, symName: __ZN7lodepng6encodeERKNSt3__112basic_stringIcNS0_11char_traitsIcEENS0_9allocatorIcEEEERKNS0_6vectorIhNS4_IhEEEEjj16LodePNGColorTypej, symObjAddr: 0xCDA0, symBinAddr: 0x1000160A8, symSize: 0xD4 }
  - { offsetInCU: 0xCB95, offset: 0x27154, size: 0x8, addend: 0x0, symName: __ZNKSt3__112basic_stringIcNS_11char_traitsIcEENS_9allocatorIcEEE5c_strB8ue170006Ev, symObjAddr: 0xBC3C, symBinAddr: 0x100014F50, symSize: 0x24 }
  - { offsetInCU: 0xCBB8, offset: 0x27177, size: 0x8, addend: 0x0, symName: __ZNSt3__16vectorIhNS_9allocatorIhEEE6resizeEm, symObjAddr: 0xBC60, symBinAddr: 0x100014F74, symSize: 0x94 }
  - { offsetInCU: 0xCC00, offset: 0x271BF, size: 0x8, addend: 0x0, symName: __ZNSt3__16vectorIhNS_9allocatorIhEEEixB8ue170006Em, symObjAddr: 0xBCF4, symBinAddr: 0x100015008, symSize: 0x24 }
  - { offsetInCU: 0xCC37, offset: 0x271F6, size: 0x8, addend: 0x0, symName: __ZNKSt3__16vectorIhNS_9allocatorIhEEE5emptyB8ue170006Ev, symObjAddr: 0xBD94, symBinAddr: 0x1000150A8, symSize: 0x28 }
  - { offsetInCU: 0xCC5B, offset: 0x2721A, size: 0x8, addend: 0x0, symName: __ZNKSt3__16vectorIhNS_9allocatorIhEEEixB8ue170006Em, symObjAddr: 0xBDBC, symBinAddr: 0x1000150D0, symSize: 0x24 }
  - { offsetInCU: 0xCC92, offset: 0x27251, size: 0x8, addend: 0x0, symName: __ZNKSt3__16vectorIhNS_9allocatorIhEEE4sizeB8ue170006Ev, symObjAddr: 0xBDE0, symBinAddr: 0x1000150F4, symSize: 0x20 }
  - { offsetInCU: 0xCCB6, offset: 0x27275, size: 0x8, addend: 0x0, symName: __ZL15zlib_decompressPPhPmPKhmPK25LodePNGDecompressSettings, symObjAddr: 0xBEB4, symBinAddr: 0x1000151C8, symSize: 0x90 }
  - { offsetInCU: 0xCD25, offset: 0x272E4, size: 0x8, addend: 0x0, symName: __ZNSt3__16vectorIhNS_9allocatorIhEEE6insertIPhLi0EEENS_11__wrap_iterIS5_EENS6_IPKhEET_SB_, symObjAddr: 0xBF44, symBinAddr: 0x100015258, symSize: 0x74 }
  - { offsetInCU: 0xCD8C, offset: 0x2734B, size: 0x8, addend: 0x0, symName: __ZNSt3__16vectorIhNS_9allocatorIhEEE3endB8ue170006Ev, symObjAddr: 0xBFB8, symBinAddr: 0x1000152CC, symSize: 0x30 }
  - { offsetInCU: 0xCDBE, offset: 0x2737D, size: 0x8, addend: 0x0, symName: __ZNSt3__111__wrap_iterIPKhEC1B8ue170006IPhEERKNS0_IT_EEPNS_9enable_ifIXsr14is_convertibleIS6_S2_EE5valueEvE4typeE, symObjAddr: 0xBFE8, symBinAddr: 0x1000152FC, symSize: 0x3C }
  - { offsetInCU: 0xCE09, offset: 0x273C8, size: 0x8, addend: 0x0, symName: __ZL13zlib_compressPPhPmPKhmPK23LodePNGCompressSettings, symObjAddr: 0xC158, symBinAddr: 0x10001546C, symSize: 0x90 }
  - { offsetInCU: 0xCE99, offset: 0x27458, size: 0x8, addend: 0x0, symName: __ZN7lodepng5StateC2Ev, symObjAddr: 0xC268, symBinAddr: 0x10001557C, symSize: 0x74 }
  - { offsetInCU: 0xCEC5, offset: 0x27484, size: 0x8, addend: 0x0, symName: __ZN12LodePNGStateC2Ev, symObjAddr: 0xC2DC, symBinAddr: 0x1000155F0, symSize: 0x24 }
  - { offsetInCU: 0xCEF1, offset: 0x274B0, size: 0x8, addend: 0x0, symName: __ZN12LodePNGStateD2Ev, symObjAddr: 0xC300, symBinAddr: 0x100015614, symSize: 0x14 }
  - { offsetInCU: 0xCF1A, offset: 0x274D9, size: 0x8, addend: 0x0, symName: __ZN7lodepng5StateC1Ev, symObjAddr: 0xC314, symBinAddr: 0x100015628, symSize: 0x2C }
  - { offsetInCU: 0xCF46, offset: 0x27505, size: 0x8, addend: 0x0, symName: __ZN7lodepng5StateC2ERKS0_, symObjAddr: 0xC340, symBinAddr: 0x100015654, symSize: 0x88 }
  - { offsetInCU: 0xCF82, offset: 0x27541, size: 0x8, addend: 0x0, symName: __ZN7lodepng5StateC1ERKS0_, symObjAddr: 0xC3C8, symBinAddr: 0x1000156DC, symSize: 0x34 }
  - { offsetInCU: 0xCFBE, offset: 0x2757D, size: 0x8, addend: 0x0, symName: __ZN7lodepng5StateD2Ev, symObjAddr: 0xC3FC, symBinAddr: 0x100015710, symSize: 0x4C }
  - { offsetInCU: 0xCFEA, offset: 0x275A9, size: 0x8, addend: 0x0, symName: __ZN7lodepng5StateD1Ev, symObjAddr: 0xC454, symBinAddr: 0x10001575C, symSize: 0x2C }
  - { offsetInCU: 0xD016, offset: 0x275D5, size: 0x8, addend: 0x0, symName: __ZN7lodepng5StateD0Ev, symObjAddr: 0xC480, symBinAddr: 0x100015788, symSize: 0x30 }
  - { offsetInCU: 0xD042, offset: 0x27601, size: 0x8, addend: 0x0, symName: __ZN7lodepng5StateaSERKS0_, symObjAddr: 0xC4B0, symBinAddr: 0x1000157B8, symSize: 0x34 }
  - { offsetInCU: 0xD07A, offset: 0x27639, size: 0x8, addend: 0x0, symName: __ZNSt3__16vectorIhNS_9allocatorIhEEEC1B8ue170006Ev, symObjAddr: 0xC968, symBinAddr: 0x100015C70, symSize: 0x2C }
  - { offsetInCU: 0xD0A3, offset: 0x27662, size: 0x8, addend: 0x0, symName: __ZNSt3__16vectorIhNS_9allocatorIhEEED1B8ue170006Ev, symObjAddr: 0xC994, symBinAddr: 0x100015C9C, symSize: 0x2C }
  - { offsetInCU: 0xD0CC, offset: 0x2768B, size: 0x8, addend: 0x0, symName: __ZL17readBitFromStreamPmPKh, symObjAddr: 0xCE74, symBinAddr: 0x10001617C, symSize: 0x54 }
  - { offsetInCU: 0xD11C, offset: 0x276DB, size: 0x8, addend: 0x0, symName: __ZL20inflateNoCompressionP8ucvectorPKhPmS3_m, symObjAddr: 0xCEC8, symBinAddr: 0x1000161D0, symSize: 0x220 }
  - { offsetInCU: 0xD1DC, offset: 0x2779B, size: 0x8, addend: 0x0, symName: __ZL19inflateHuffmanBlockP8ucvectorPKhPmS3_mj, symObjAddr: 0xD0E8, symBinAddr: 0x1000163F0, symSize: 0x4A0 }
  - { offsetInCU: 0xD34A, offset: 0x27909, size: 0x8, addend: 0x0, symName: __ZL15ucvector_resizeP8ucvectorm, symObjAddr: 0xD588, symBinAddr: 0x100016890, symSize: 0x64 }
  - { offsetInCU: 0xD384, offset: 0x27943, size: 0x8, addend: 0x0, symName: __ZL16ucvector_reserveP8ucvectorm, symObjAddr: 0xD5EC, symBinAddr: 0x1000168F4, symSize: 0xE8 }
  - { offsetInCU: 0xD3E8, offset: 0x279A7, size: 0x8, addend: 0x0, symName: __ZL16HuffmanTree_initP11HuffmanTree, symObjAddr: 0xD6D4, symBinAddr: 0x1000169DC, symSize: 0x28 }
  - { offsetInCU: 0xD414, offset: 0x279D3, size: 0x8, addend: 0x0, symName: __ZL19getTreeInflateFixedP11HuffmanTreeS0_, symObjAddr: 0xD6FC, symBinAddr: 0x100016A04, symSize: 0x30 }
  - { offsetInCU: 0xD450, offset: 0x27A0F, size: 0x8, addend: 0x0, symName: __ZL21getTreeInflateDynamicP11HuffmanTreeS0_PKhPmm, symObjAddr: 0xD72C, symBinAddr: 0x100016A34, symSize: 0x890 }
  - { offsetInCU: 0xD5FE, offset: 0x27BBD, size: 0x8, addend: 0x0, symName: __ZL19huffmanDecodeSymbolPKhPmPK11HuffmanTreem, symObjAddr: 0xDFBC, symBinAddr: 0x1000172C4, symSize: 0x10C }
  - { offsetInCU: 0xD67E, offset: 0x27C3D, size: 0x8, addend: 0x0, symName: __ZL18readBitsFromStreamPmPKhm, symObjAddr: 0xE0C8, symBinAddr: 0x1000173D0, symSize: 0xA0 }
  - { offsetInCU: 0xD6EE, offset: 0x27CAD, size: 0x8, addend: 0x0, symName: __ZL19HuffmanTree_cleanupP11HuffmanTree, symObjAddr: 0xE168, symBinAddr: 0x100017470, symSize: 0x40 }
  - { offsetInCU: 0xD71A, offset: 0x27CD9, size: 0x8, addend: 0x0, symName: __ZL23generateFixedLitLenTreeP11HuffmanTree, symObjAddr: 0xE1A8, symBinAddr: 0x1000174B0, symSize: 0x198 }
  - { offsetInCU: 0xD77A, offset: 0x27D39, size: 0x8, addend: 0x0, symName: __ZL25generateFixedDistanceTreeP11HuffmanTree, symObjAddr: 0xE340, symBinAddr: 0x100017648, symSize: 0xC0 }
  - { offsetInCU: 0xD7DA, offset: 0x27D99, size: 0x8, addend: 0x0, symName: __ZL27HuffmanTree_makeFromLengthsP11HuffmanTreePKjmj, symObjAddr: 0xE400, symBinAddr: 0x100017708, symSize: 0xDC }
  - { offsetInCU: 0xD84A, offset: 0x27E09, size: 0x8, addend: 0x0, symName: __ZL28HuffmanTree_makeFromLengths2P11HuffmanTree, symObjAddr: 0xE4DC, symBinAddr: 0x1000177E4, symSize: 0x288 }
  - { offsetInCU: 0xD8CA, offset: 0x27E89, size: 0x8, addend: 0x0, symName: __ZL13uivector_initP8uivector, symObjAddr: 0xE764, symBinAddr: 0x100017A6C, symSize: 0x28 }
  - { offsetInCU: 0xD8F3, offset: 0x27EB2, size: 0x8, addend: 0x0, symName: __ZL16uivector_resizevP8uivectormj, symObjAddr: 0xE78C, symBinAddr: 0x100017A94, symSize: 0xB0 }
  - { offsetInCU: 0xD957, offset: 0x27F16, size: 0x8, addend: 0x0, symName: __ZL16uivector_cleanupPv, symObjAddr: 0xE83C, symBinAddr: 0x100017B44, symSize: 0x40 }
  - { offsetInCU: 0xD97F, offset: 0x27F3E, size: 0x8, addend: 0x0, symName: __ZL22HuffmanTree_make2DTreeP11HuffmanTree, symObjAddr: 0xE87C, symBinAddr: 0x100017B84, symSize: 0x334 }
  - { offsetInCU: 0xDA0D, offset: 0x27FCC, size: 0x8, addend: 0x0, symName: __ZL15uivector_resizeP8uivectorm, symObjAddr: 0xEBB0, symBinAddr: 0x100017EB8, symSize: 0x64 }
  - { offsetInCU: 0xDA47, offset: 0x28006, size: 0x8, addend: 0x0, symName: __ZL16uivector_reserveP8uivectorm, symObjAddr: 0xEC14, symBinAddr: 0x100017F1C, symSize: 0xE8 }
  - { offsetInCU: 0xDAAB, offset: 0x2806A, size: 0x8, addend: 0x0, symName: __ZL20deflateNoCompressionP8ucvectorPKhm, symObjAddr: 0xECFC, symBinAddr: 0x100018004, symSize: 0x1D8 }
  - { offsetInCU: 0xDB99, offset: 0x28158, size: 0x8, addend: 0x0, symName: __ZL9hash_initP4Hashj, symObjAddr: 0xEED4, symBinAddr: 0x1000181DC, symSize: 0x2C0 }
  - { offsetInCU: 0xDBE9, offset: 0x281A8, size: 0x8, addend: 0x0, symName: __ZL12deflateFixedP8ucvectorPmP4HashPKhmmPK23LodePNGCompressSettingsj, symObjAddr: 0xF194, symBinAddr: 0x10001849C, symSize: 0x37C }
  - { offsetInCU: 0xDCFF, offset: 0x282BE, size: 0x8, addend: 0x0, symName: __ZL14deflateDynamicP8ucvectorPmP4HashPKhmmPK23LodePNGCompressSettingsj, symObjAddr: 0xF510, symBinAddr: 0x100018818, symSize: 0xD80 }
  - { offsetInCU: 0xDF82, offset: 0x28541, size: 0x8, addend: 0x0, symName: __ZL12hash_cleanupP4Hash, symObjAddr: 0x10290, symBinAddr: 0x100019598, symSize: 0x64 }
  - { offsetInCU: 0xDFAE, offset: 0x2856D, size: 0x8, addend: 0x0, symName: __ZL10encodeLZ77P8uivectorP4HashPKhmmjjjj, symObjAddr: 0x102F4, symBinAddr: 0x1000195FC, symSize: 0x99C }
  - { offsetInCU: 0xE1FD, offset: 0x287BC, size: 0x8, addend: 0x0, symName: __ZL13writeLZ77dataPmP8ucvectorPK8uivectorPK11HuffmanTreeS7_, symObjAddr: 0x10C90, symBinAddr: 0x100019F98, symSize: 0x1DC }
  - { offsetInCU: 0xE316, offset: 0x288D5, size: 0x8, addend: 0x0, symName: __ZL16addHuffmanSymbolPmP8ucvectorjj, symObjAddr: 0x10E6C, symBinAddr: 0x10001A174, symSize: 0x40 }
  - { offsetInCU: 0xE372, offset: 0x28931, size: 0x8, addend: 0x0, symName: __ZL19HuffmanTree_getCodePK11HuffmanTreej, symObjAddr: 0x10EAC, symBinAddr: 0x10001A1B4, symSize: 0x24 }
  - { offsetInCU: 0xE3B2, offset: 0x28971, size: 0x8, addend: 0x0, symName: __ZL21HuffmanTree_getLengthPK11HuffmanTreej, symObjAddr: 0x10ED0, symBinAddr: 0x10001A1D8, symSize: 0x24 }
  - { offsetInCU: 0xE3F2, offset: 0x289B1, size: 0x8, addend: 0x0, symName: __ZL7getHashPKhmm, symObjAddr: 0x10EF4, symBinAddr: 0x10001A1FC, symSize: 0x134 }
  - { offsetInCU: 0xE480, offset: 0x28A3F, size: 0x8, addend: 0x0, symName: __ZL10countZerosPKhmm, symObjAddr: 0x11028, symBinAddr: 0x10001A330, symSize: 0xD8 }
  - { offsetInCU: 0xE4F0, offset: 0x28AAF, size: 0x8, addend: 0x0, symName: __ZL15updateHashChainP4Hashmjt, symObjAddr: 0x11100, symBinAddr: 0x10001A408, symSize: 0xF8 }
  - { offsetInCU: 0xE54C, offset: 0x28B0B, size: 0x8, addend: 0x0, symName: __ZL18uivector_push_backP8uivectorj, symObjAddr: 0x111F8, symBinAddr: 0x10001A500, symSize: 0x78 }
  - { offsetInCU: 0xE586, offset: 0x28B45, size: 0x8, addend: 0x0, symName: __ZL17addLengthDistanceP8uivectormm, symObjAddr: 0x11270, symBinAddr: 0x10001A578, symSize: 0xC8 }
  - { offsetInCU: 0xE612, offset: 0x28BD1, size: 0x8, addend: 0x0, symName: __ZL15searchCodeIndexPKjmm, symObjAddr: 0x11338, symBinAddr: 0x10001A640, symSize: 0xEC }
  - { offsetInCU: 0xE6A0, offset: 0x28C5F, size: 0x8, addend: 0x0, symName: __ZL15addBitsToStreamPmP8ucvectorjm, symObjAddr: 0x11424, symBinAddr: 0x10001A72C, symSize: 0xDC }
  - { offsetInCU: 0xE70C, offset: 0x28CCB, size: 0x8, addend: 0x0, symName: __ZL23addBitsToStreamReversedPmP8ucvectorjm, symObjAddr: 0x11500, symBinAddr: 0x10001A808, symSize: 0xE8 }
  - { offsetInCU: 0xE778, offset: 0x28D37, size: 0x8, addend: 0x0, symName: __ZL31HuffmanTree_makeFromFrequenciesP11HuffmanTreePKjmmj, symObjAddr: 0x115E8, symBinAddr: 0x10001A8F0, symSize: 0x14C }
  - { offsetInCU: 0xE7F8, offset: 0x28DB7, size: 0x8, addend: 0x0, symName: __ZL14update_adler32jPKhj, symObjAddr: 0x11734, symBinAddr: 0x10001AA3C, symSize: 0x120 }
  - { offsetInCU: 0xE886, offset: 0x28E45, size: 0x8, addend: 0x0, symName: __ZL14string_cleanupPPc, symObjAddr: 0x11854, symBinAddr: 0x10001AB5C, symSize: 0x30 }
  - { offsetInCU: 0xE8B2, offset: 0x28E71, size: 0x8, addend: 0x0, symName: __ZL13string_resizePPcm, symObjAddr: 0x11884, symBinAddr: 0x10001AB8C, symSize: 0x7C }
  - { offsetInCU: 0xE902, offset: 0x28EC1, size: 0x8, addend: 0x0, symName: __ZL26readBitsFromReversedStreamPmPKhm, symObjAddr: 0x11900, symBinAddr: 0x10001AC08, symSize: 0x88 }
  - { offsetInCU: 0xE972, offset: 0x28F31, size: 0x8, addend: 0x0, symName: __ZL25readBitFromReversedStreamPmPKh, symObjAddr: 0x11988, symBinAddr: 0x10001AC90, symSize: 0x5C }
  - { offsetInCU: 0xE9C2, offset: 0x28F81, size: 0x8, addend: 0x0, symName: __ZL12addColorBitsPhmjj, symObjAddr: 0x119E4, symBinAddr: 0x10001ACEC, symSize: 0x11C }
  - { offsetInCU: 0xEA3E, offset: 0x28FFD, size: 0x8, addend: 0x0, symName: __ZL14color_tree_getP9ColorTreehhhh, symObjAddr: 0x11B00, symBinAddr: 0x10001AE08, symSize: 0x140 }
  - { offsetInCU: 0xEADC, offset: 0x2909B, size: 0x8, addend: 0x0, symName: __ZL22lodepng_pixel_overflowjjPK16LodePNGColorModeS1_, symObjAddr: 0x11C40, symBinAddr: 0x10001AF48, symSize: 0x1C4 }
  - { offsetInCU: 0xEB7C, offset: 0x2913B, size: 0x8, addend: 0x0, symName: __ZL14lodepng_addoflmmPm, symObjAddr: 0x11E04, symBinAddr: 0x10001B10C, symSize: 0x44 }
  - { offsetInCU: 0xEBCC, offset: 0x2918B, size: 0x8, addend: 0x0, symName: __ZL14readChunk_PLTEP16LodePNGColorModePKhm, symObjAddr: 0x11E48, symBinAddr: 0x10001B150, symSize: 0x1F8 }
  - { offsetInCU: 0xEC3C, offset: 0x291FB, size: 0x8, addend: 0x0, symName: __ZL14readChunk_tRNSP16LodePNGColorModePKhm, symObjAddr: 0x12040, symBinAddr: 0x10001B348, symSize: 0x208 }
  - { offsetInCU: 0xEC9C, offset: 0x2925B, size: 0x8, addend: 0x0, symName: __ZL14readChunk_bKGDP11LodePNGInfoPKhm, symObjAddr: 0x12248, symBinAddr: 0x10001B550, symSize: 0x1EC }
  - { offsetInCU: 0xECEC, offset: 0x292AB, size: 0x8, addend: 0x0, symName: __ZL14readChunk_tEXtP11LodePNGInfoPKhm, symObjAddr: 0x12434, symBinAddr: 0x10001B73C, symSize: 0x28C }
  - { offsetInCU: 0xEDAA, offset: 0x29369, size: 0x8, addend: 0x0, symName: __ZL14readChunk_zTXtP11LodePNGInfoPK25LodePNGDecompressSettingsPKhm, symObjAddr: 0x126C0, symBinAddr: 0x10001B9C8, symSize: 0x28C }
  - { offsetInCU: 0xEE6A, offset: 0x29429, size: 0x8, addend: 0x0, symName: __ZL14readChunk_iTXtP11LodePNGInfoPK25LodePNGDecompressSettingsPKhm, symObjAddr: 0x1294C, symBinAddr: 0x10001BC54, symSize: 0x620 }
  - { offsetInCU: 0xEF5B, offset: 0x2951A, size: 0x8, addend: 0x0, symName: __ZL14readChunk_tIMEP11LodePNGInfoPKhm, symObjAddr: 0x12F6C, symBinAddr: 0x10001C274, symSize: 0xC4 }
  - { offsetInCU: 0xEFAB, offset: 0x2956A, size: 0x8, addend: 0x0, symName: __ZL14readChunk_pHYsP11LodePNGInfoPKhm, symObjAddr: 0x13030, symBinAddr: 0x10001C338, symSize: 0xEC }
  - { offsetInCU: 0xEFFB, offset: 0x295BA, size: 0x8, addend: 0x0, symName: __ZL25lodepng_get_raw_size_idatjjPK16LodePNGColorMode, symObjAddr: 0x1311C, symBinAddr: 0x10001C424, symSize: 0x7C }
  - { offsetInCU: 0xF06B, offset: 0x2962A, size: 0x8, addend: 0x0, symName: __ZL16ucvector_cleanupPv, symObjAddr: 0x13198, symBinAddr: 0x10001C4A0, symSize: 0x40 }
  - { offsetInCU: 0xF093, offset: 0x29652, size: 0x8, addend: 0x0, symName: __ZL20postProcessScanlinesPhS_jjPK11LodePNGInfo, symObjAddr: 0x131D8, symBinAddr: 0x10001C4E0, symSize: 0x358 }
  - { offsetInCU: 0xF1DF, offset: 0x2979E, size: 0x8, addend: 0x0, symName: __ZL14lodepng_muloflmmPm, symObjAddr: 0x13530, symBinAddr: 0x10001C838, symSize: 0x74 }
  - { offsetInCU: 0xF22F, offset: 0x297EE, size: 0x8, addend: 0x0, symName: __ZL8unfilterPhPKhjjj, symObjAddr: 0x135A4, symBinAddr: 0x10001C8AC, symSize: 0x138 }
  - { offsetInCU: 0xF33B, offset: 0x298FA, size: 0x8, addend: 0x0, symName: __ZL17removePaddingBitsPhPKhmmj, symObjAddr: 0x136DC, symBinAddr: 0x10001C9E4, symSize: 0xDC }
  - { offsetInCU: 0xF423, offset: 0x299E2, size: 0x8, addend: 0x0, symName: __ZL19Adam7_getpassvaluesPjS_PmS0_S0_jjj, symObjAddr: 0x137B8, symBinAddr: 0x10001CAC0, symSize: 0x2F4 }
  - { offsetInCU: 0xF4D1, offset: 0x29A90, size: 0x8, addend: 0x0, symName: __ZL17Adam7_deinterlacePhPKhjjj, symObjAddr: 0x13AAC, symBinAddr: 0x10001CDB4, symSize: 0x478 }
  - { offsetInCU: 0xF6C4, offset: 0x29C83, size: 0x8, addend: 0x0, symName: __ZL16unfilterScanlinePhPKhS1_mhm, symObjAddr: 0x13F24, symBinAddr: 0x10001D22C, symSize: 0x5EC }
  - { offsetInCU: 0xF754, offset: 0x29D13, size: 0x8, addend: 0x0, symName: __ZL14paethPredictorsss, symObjAddr: 0x14524, symBinAddr: 0x10001D82C, symSize: 0xE0 }
  - { offsetInCU: 0xF7D4, offset: 0x29D93, size: 0x8, addend: 0x0, symName: __ZL22setBitOfReversedStreamPmPhh, symObjAddr: 0x14604, symBinAddr: 0x10001D90C, symSize: 0xC4 }
  - { offsetInCU: 0xF820, offset: 0x29DDF, size: 0x8, addend: 0x0, symName: __ZL23setBitOfReversedStream0PmPhh, symObjAddr: 0x146C8, symBinAddr: 0x10001D9D0, symSize: 0x78 }
  - { offsetInCU: 0xF86C, offset: 0x29E2B, size: 0x8, addend: 0x0, symName: __ZL14addPaddingBitsPhPKhmmj, symObjAddr: 0x14740, symBinAddr: 0x10001DA48, symSize: 0x110 }
  - { offsetInCU: 0xF954, offset: 0x29F13, size: 0x8, addend: 0x0, symName: __ZL6filterPhPKhjjPK16LodePNGColorModePK22LodePNGEncoderSettings, symObjAddr: 0x14850, symBinAddr: 0x10001DB58, symSize: 0xE34 }
  - { offsetInCU: 0xFC89, offset: 0x2A248, size: 0x8, addend: 0x0, symName: __ZL15Adam7_interlacePhPKhjjj, symObjAddr: 0x15684, symBinAddr: 0x10001E98C, symSize: 0x478 }
  - { offsetInCU: 0xFE7C, offset: 0x2A43B, size: 0x8, addend: 0x0, symName: __ZL14filterScanlinePhPKhS1_mmh, symObjAddr: 0x15AFC, symBinAddr: 0x10001EE04, symSize: 0x5D8 }
  - { offsetInCU: 0xFF08, offset: 0x2A4C7, size: 0x8, addend: 0x0, symName: __ZL5flog2f, symObjAddr: 0x160E8, symBinAddr: 0x10001F3F0, symSize: 0xFC }
  - { offsetInCU: 0xFF48, offset: 0x2A507, size: 0x8, addend: 0x0, symName: __ZL8addChunkP8ucvectorPKcPKhm, symObjAddr: 0x161E4, symBinAddr: 0x10001F4EC, symSize: 0x88 }
  - { offsetInCU: 0xFFC6, offset: 0x2A585, size: 0x8, addend: 0x0, symName: __ZNSt3__111__wrap_iterIPKhEC2B8ue170006IPhEERKNS0_IT_EEPNS_9enable_ifIXsr14is_convertibleIS6_S2_EE5valueEvE4typeE, symObjAddr: 0x1626C, symBinAddr: 0x10001F574, symSize: 0x40 }
  - { offsetInCU: 0x10011, offset: 0x2A5D0, size: 0x8, addend: 0x0, symName: __ZNKSt3__111__wrap_iterIPhE4baseB8ue170006Ev, symObjAddr: 0x162AC, symBinAddr: 0x10001F5B4, symSize: 0x18 }
  - { offsetInCU: 0x10035, offset: 0x2A5F4, size: 0x8, addend: 0x0, symName: __ZN12LodePNGStateD0Ev, symObjAddr: 0x162C4, symBinAddr: 0x10001F5CC, symSize: 0x30 }
  - { offsetInCU: 0x1005E, offset: 0x2A61D, size: 0x8, addend: 0x0, symName: __ZNKSt3__112basic_stringIcNS_11char_traitsIcEENS_9allocatorIcEEE4dataB8ue170006Ev, symObjAddr: 0x162F4, symBinAddr: 0x10001F5FC, symSize: 0x28 }
  - { offsetInCU: 0x10082, offset: 0x2A641, size: 0x8, addend: 0x0, symName: __ZNKSt3__112basic_stringIcNS_11char_traitsIcEENS_9allocatorIcEEE13__get_pointerB8ue170006Ev, symObjAddr: 0x16330, symBinAddr: 0x10001F638, symSize: 0x54 }
  - { offsetInCU: 0x100A6, offset: 0x2A665, size: 0x8, addend: 0x0, symName: __ZNKSt3__112basic_stringIcNS_11char_traitsIcEENS_9allocatorIcEEE9__is_longB8ue170006Ev, symObjAddr: 0x16384, symBinAddr: 0x10001F68C, symSize: 0x38 }
  - { offsetInCU: 0x100CA, offset: 0x2A689, size: 0x8, addend: 0x0, symName: __ZNKSt3__112basic_stringIcNS_11char_traitsIcEENS_9allocatorIcEEE18__get_long_pointerB8ue170006Ev, symObjAddr: 0x163BC, symBinAddr: 0x10001F6C4, symSize: 0x28 }
  - { offsetInCU: 0x100EE, offset: 0x2A6AD, size: 0x8, addend: 0x0, symName: __ZNKSt3__112basic_stringIcNS_11char_traitsIcEENS_9allocatorIcEEE19__get_short_pointerB8ue170006Ev, symObjAddr: 0x163E4, symBinAddr: 0x10001F6EC, symSize: 0x28 }
  - { offsetInCU: 0x10112, offset: 0x2A6D1, size: 0x8, addend: 0x0, symName: __ZNKSt3__117__compressed_pairINS_12basic_stringIcNS_11char_traitsIcEENS_9allocatorIcEEE5__repES5_E5firstB8ue170006Ev, symObjAddr: 0x1640C, symBinAddr: 0x10001F714, symSize: 0x24 }
  - { offsetInCU: 0x10136, offset: 0x2A6F5, size: 0x8, addend: 0x0, symName: __ZNKSt3__122__compressed_pair_elemINS_12basic_stringIcNS_11char_traitsIcEENS_9allocatorIcEEE5__repELi0ELb0EE5__getB8ue170006Ev, symObjAddr: 0x16430, symBinAddr: 0x10001F738, symSize: 0x14 }
  - { offsetInCU: 0x1015A, offset: 0x2A719, size: 0x8, addend: 0x0, symName: __ZNSt3__114pointer_traitsIPKcE10pointer_toB8ue170006ERS1_, symObjAddr: 0x16444, symBinAddr: 0x10001F74C, symSize: 0x14 }
  - { offsetInCU: 0x1017C, offset: 0x2A73B, size: 0x8, addend: 0x0, symName: __ZNSt3__16vectorIhNS_9allocatorIhEEE8__appendEm, symObjAddr: 0x16458, symBinAddr: 0x10001F760, symSize: 0x100 }
  - { offsetInCU: 0x101DB, offset: 0x2A79A, size: 0x8, addend: 0x0, symName: __ZNSt3__16vectorIhNS_9allocatorIhEEE17__destruct_at_endB8ue170006EPh, symObjAddr: 0x16558, symBinAddr: 0x10001F860, symSize: 0x4C }
  - { offsetInCU: 0x1021F, offset: 0x2A7DE, size: 0x8, addend: 0x0, symName: __ZNSt3__16vectorIhNS_9allocatorIhEEE9__end_capB8ue170006Ev, symObjAddr: 0x165A4, symBinAddr: 0x10001F8AC, symSize: 0x28 }
  - { offsetInCU: 0x10242, offset: 0x2A801, size: 0x8, addend: 0x0, symName: __ZNSt3__16vectorIhNS_9allocatorIhEEE18__construct_at_endEm, symObjAddr: 0x165CC, symBinAddr: 0x10001F8D4, symSize: 0xC8 }
  - { offsetInCU: 0x102B8, offset: 0x2A877, size: 0x8, addend: 0x0, symName: __ZNSt3__16vectorIhNS_9allocatorIhEEE7__allocB8ue170006Ev, symObjAddr: 0x16694, symBinAddr: 0x10001F99C, symSize: 0x28 }
  - { offsetInCU: 0x102DB, offset: 0x2A89A, size: 0x8, addend: 0x0, symName: __ZNKSt3__16vectorIhNS_9allocatorIhEEE11__recommendB8ue170006Em, symObjAddr: 0x166BC, symBinAddr: 0x10001F9C4, symSize: 0xB4 }
  - { offsetInCU: 0x10333, offset: 0x2A8F2, size: 0x8, addend: 0x0, symName: __ZNSt3__114__split_bufferIhRNS_9allocatorIhEEEC1EmmS3_, symObjAddr: 0x16770, symBinAddr: 0x10001FA78, symSize: 0x44 }
  - { offsetInCU: 0x10387, offset: 0x2A946, size: 0x8, addend: 0x0, symName: __ZNSt3__114__split_bufferIhRNS_9allocatorIhEEE18__construct_at_endEm, symObjAddr: 0x167B4, symBinAddr: 0x10001FABC, symSize: 0xB4 }
  - { offsetInCU: 0x103CD, offset: 0x2A98C, size: 0x8, addend: 0x0, symName: __ZNSt3__114__split_bufferIhRNS_9allocatorIhEEED1Ev, symObjAddr: 0x16978, symBinAddr: 0x10001FC80, symSize: 0x2C }
  - { offsetInCU: 0x103F8, offset: 0x2A9B7, size: 0x8, addend: 0x0, symName: __ZNSt3__117__compressed_pairIPhNS_9allocatorIhEEE5firstB8ue170006Ev, symObjAddr: 0x169A4, symBinAddr: 0x10001FCAC, symSize: 0x24 }
  - { offsetInCU: 0x1041C, offset: 0x2A9DB, size: 0x8, addend: 0x0, symName: __ZNSt3__122__compressed_pair_elemIPhLi0ELb0EE5__getB8ue170006Ev, symObjAddr: 0x169C8, symBinAddr: 0x10001FCD0, symSize: 0x14 }
  - { offsetInCU: 0x10459, offset: 0x2AA18, size: 0x8, addend: 0x0, symName: __ZNSt3__16vectorIhNS_9allocatorIhEEE21_ConstructTransactionC1B8ue170006ERS3_m, symObjAddr: 0x169DC, symBinAddr: 0x10001FCE4, symSize: 0x3C }
  - { offsetInCU: 0x104A2, offset: 0x2AA61, size: 0x8, addend: 0x0, symName: __ZNSt3__116allocator_traitsINS_9allocatorIhEEE9constructB8ue170006IhJEvEEvRS2_PT_DpOT0_, symObjAddr: 0x16A18, symBinAddr: 0x10001FD20, symSize: 0x2C }
  - { offsetInCU: 0x104E6, offset: 0x2AAA5, size: 0x8, addend: 0x0, symName: __ZNSt3__16vectorIhNS_9allocatorIhEEE21_ConstructTransactionD1B8ue170006Ev, symObjAddr: 0x16A58, symBinAddr: 0x10001FD60, symSize: 0x2C }
  - { offsetInCU: 0x1050F, offset: 0x2AACE, size: 0x8, addend: 0x0, symName: __ZNSt3__16vectorIhNS_9allocatorIhEEE21_ConstructTransactionC2B8ue170006ERS3_m, symObjAddr: 0x16A84, symBinAddr: 0x10001FD8C, symSize: 0x44 }
  - { offsetInCU: 0x10558, offset: 0x2AB17, size: 0x8, addend: 0x0, symName: __ZNSt3__19allocatorIhE9constructB8ue170006IhJEEEvPT_DpOT0_, symObjAddr: 0x16AC8, symBinAddr: 0x10001FDD0, symSize: 0x1C }
  - { offsetInCU: 0x10598, offset: 0x2AB57, size: 0x8, addend: 0x0, symName: __ZNSt3__16vectorIhNS_9allocatorIhEEE21_ConstructTransactionD2B8ue170006Ev, symObjAddr: 0x16AE4, symBinAddr: 0x10001FDEC, symSize: 0x20 }
  - { offsetInCU: 0x105C1, offset: 0x2AB80, size: 0x8, addend: 0x0, symName: __ZNSt3__117__compressed_pairIPhNS_9allocatorIhEEE6secondB8ue170006Ev, symObjAddr: 0x16B04, symBinAddr: 0x10001FE0C, symSize: 0x24 }
  - { offsetInCU: 0x105E5, offset: 0x2ABA4, size: 0x8, addend: 0x0, symName: __ZNSt3__122__compressed_pair_elemINS_9allocatorIhEELi1ELb1EE5__getB8ue170006Ev, symObjAddr: 0x16B28, symBinAddr: 0x10001FE30, symSize: 0x14 }
  - { offsetInCU: 0x10608, offset: 0x2ABC7, size: 0x8, addend: 0x0, symName: __ZNKSt3__16vectorIhNS_9allocatorIhEEE8max_sizeEv, symObjAddr: 0x16B3C, symBinAddr: 0x10001FE44, symSize: 0x60 }
  - { offsetInCU: 0x10630, offset: 0x2ABEF, size: 0x8, addend: 0x0, symName: __ZNKSt3__16vectorIhNS_9allocatorIhEEE20__throw_length_errorB8ue170006Ev, symObjAddr: 0x16B9C, symBinAddr: 0x10001FEA4, symSize: 0x1C }
  - { offsetInCU: 0x10654, offset: 0x2AC13, size: 0x8, addend: 0x0, symName: __ZNKSt3__16vectorIhNS_9allocatorIhEEE8capacityB8ue170006Ev, symObjAddr: 0x16BB8, symBinAddr: 0x10001FEC0, symSize: 0x38 }
  - { offsetInCU: 0x10682, offset: 0x2AC41, size: 0x8, addend: 0x0, symName: __ZNSt3__116allocator_traitsINS_9allocatorIhEEE8max_sizeB8ue170006IS2_vEEmRKS2_, symObjAddr: 0x16C48, symBinAddr: 0x10001FEF8, symSize: 0x24 }
  - { offsetInCU: 0x106B1, offset: 0x2AC70, size: 0x8, addend: 0x0, symName: __ZNKSt3__16vectorIhNS_9allocatorIhEEE7__allocB8ue170006Ev, symObjAddr: 0x16C6C, symBinAddr: 0x10001FF1C, symSize: 0x28 }
  - { offsetInCU: 0x106D5, offset: 0x2AC94, size: 0x8, addend: 0x0, symName: __ZNKSt3__19allocatorIhE8max_sizeB8ue170006Ev, symObjAddr: 0x16D30, symBinAddr: 0x10001FF44, symSize: 0x14 }
  - { offsetInCU: 0x106F9, offset: 0x2ACB8, size: 0x8, addend: 0x0, symName: __ZNKSt3__117__compressed_pairIPhNS_9allocatorIhEEE6secondB8ue170006Ev, symObjAddr: 0x16D44, symBinAddr: 0x10001FF58, symSize: 0x24 }
  - { offsetInCU: 0x1071D, offset: 0x2ACDC, size: 0x8, addend: 0x0, symName: __ZNKSt3__122__compressed_pair_elemINS_9allocatorIhEELi1ELb1EE5__getB8ue170006Ev, symObjAddr: 0x16D68, symBinAddr: 0x10001FF7C, symSize: 0x14 }
  - { offsetInCU: 0x10741, offset: 0x2AD00, size: 0x8, addend: 0x0, symName: __ZNKSt3__16vectorIhNS_9allocatorIhEEE9__end_capB8ue170006Ev, symObjAddr: 0x16E68, symBinAddr: 0x10001FF90, symSize: 0x28 }
  - { offsetInCU: 0x10765, offset: 0x2AD24, size: 0x8, addend: 0x0, symName: __ZNKSt3__117__compressed_pairIPhNS_9allocatorIhEEE5firstB8ue170006Ev, symObjAddr: 0x16E90, symBinAddr: 0x10001FFB8, symSize: 0x24 }
  - { offsetInCU: 0x10789, offset: 0x2AD48, size: 0x8, addend: 0x0, symName: __ZNKSt3__122__compressed_pair_elemIPhLi0ELb0EE5__getB8ue170006Ev, symObjAddr: 0x16EB4, symBinAddr: 0x10001FFDC, symSize: 0x14 }
  - { offsetInCU: 0x107AD, offset: 0x2AD6C, size: 0x8, addend: 0x0, symName: __ZNSt3__114__split_bufferIhRNS_9allocatorIhEEEC2EmmS3_, symObjAddr: 0x16F1C, symBinAddr: 0x10001FFF0, symSize: 0xD4 }
  - { offsetInCU: 0x10826, offset: 0x2ADE5, size: 0x8, addend: 0x0, symName: __ZNSt3__117__compressed_pairIPhRNS_9allocatorIhEEEC1B8ue170006IDnS4_EEOT_OT0_, symObjAddr: 0x16FF0, symBinAddr: 0x1000200C4, symSize: 0x3C }
  - { offsetInCU: 0x1087D, offset: 0x2AE3C, size: 0x8, addend: 0x0, symName: __ZNSt3__114__split_bufferIhRNS_9allocatorIhEEE7__allocB8ue170006Ev, symObjAddr: 0x1706C, symBinAddr: 0x100020140, symSize: 0x28 }
  - { offsetInCU: 0x108A1, offset: 0x2AE60, size: 0x8, addend: 0x0, symName: __ZNSt3__114__split_bufferIhRNS_9allocatorIhEEE9__end_capB8ue170006Ev, symObjAddr: 0x17094, symBinAddr: 0x100020168, symSize: 0x28 }
  - { offsetInCU: 0x108C5, offset: 0x2AE84, size: 0x8, addend: 0x0, symName: __ZNSt3__117__compressed_pairIPhRNS_9allocatorIhEEEC2B8ue170006IDnS4_EEOT_OT0_, symObjAddr: 0x170BC, symBinAddr: 0x100020190, symSize: 0x48 }
  - { offsetInCU: 0x1091C, offset: 0x2AEDB, size: 0x8, addend: 0x0, symName: __ZNSt3__122__compressed_pair_elemIPhLi0ELb0EEC2B8ue170006IDnvEEOT_, symObjAddr: 0x17104, symBinAddr: 0x1000201D8, symSize: 0x1C }
  - { offsetInCU: 0x1095D, offset: 0x2AF1C, size: 0x8, addend: 0x0, symName: __ZNSt3__122__compressed_pair_elemIRNS_9allocatorIhEELi1ELb0EEC2B8ue170006IS3_vEEOT_, symObjAddr: 0x17120, symBinAddr: 0x1000201F4, symSize: 0x20 }
  - { offsetInCU: 0x1099E, offset: 0x2AF5D, size: 0x8, addend: 0x0, symName: __ZNSt3__19allocatorIhE8allocateB8ue170006Em, symObjAddr: 0x17140, symBinAddr: 0x100020214, symSize: 0x58 }
  - { offsetInCU: 0x109D0, offset: 0x2AF8F, size: 0x8, addend: 0x0, symName: __ZNSt3__117__compressed_pairIPhRNS_9allocatorIhEEE6secondB8ue170006Ev, symObjAddr: 0x1729C, symBinAddr: 0x10002026C, symSize: 0x28 }
  - { offsetInCU: 0x109F4, offset: 0x2AFB3, size: 0x8, addend: 0x0, symName: __ZNSt3__122__compressed_pair_elemIRNS_9allocatorIhEELi1ELb0EE5__getB8ue170006Ev, symObjAddr: 0x172C4, symBinAddr: 0x100020294, symSize: 0x18 }
  - { offsetInCU: 0x10A18, offset: 0x2AFD7, size: 0x8, addend: 0x0, symName: __ZNSt3__117__compressed_pairIPhRNS_9allocatorIhEEE5firstB8ue170006Ev, symObjAddr: 0x172DC, symBinAddr: 0x1000202AC, symSize: 0x24 }
  - { offsetInCU: 0x10A46, offset: 0x2B005, size: 0x8, addend: 0x0, symName: __ZNSt3__114__split_bufferIhRNS_9allocatorIhEEE21_ConstructTransactionC1B8ue170006EPPhm, symObjAddr: 0x17300, symBinAddr: 0x1000202D0, symSize: 0x3C }
  - { offsetInCU: 0x10A8B, offset: 0x2B04A, size: 0x8, addend: 0x0, symName: __ZNSt3__114__split_bufferIhRNS_9allocatorIhEEE21_ConstructTransactionD1B8ue170006Ev, symObjAddr: 0x1733C, symBinAddr: 0x10002030C, symSize: 0x2C }
  - { offsetInCU: 0x10AB4, offset: 0x2B073, size: 0x8, addend: 0x0, symName: __ZNSt3__114__split_bufferIhRNS_9allocatorIhEEE21_ConstructTransactionC2B8ue170006EPPhm, symObjAddr: 0x17368, symBinAddr: 0x100020338, symSize: 0x44 }
  - { offsetInCU: 0x10AF9, offset: 0x2B0B8, size: 0x8, addend: 0x0, symName: __ZNSt3__114__split_bufferIhRNS_9allocatorIhEEE21_ConstructTransactionD2B8ue170006Ev, symObjAddr: 0x173AC, symBinAddr: 0x10002037C, symSize: 0x20 }
  - { offsetInCU: 0x10B22, offset: 0x2B0E1, size: 0x8, addend: 0x0, symName: __ZNKSt3__16vectorIhNS_9allocatorIhEEE17__annotate_deleteB8ue170006Ev, symObjAddr: 0x173CC, symBinAddr: 0x10002039C, symSize: 0xB8 }
  - { offsetInCU: 0x10B46, offset: 0x2B105, size: 0x8, addend: 0x0, symName: __ZNSt3__116reverse_iteratorIPhEC1B8ue170006ES1_, symObjAddr: 0x174FC, symBinAddr: 0x1000204CC, symSize: 0x34 }
  - { offsetInCU: 0x10B7D, offset: 0x2B13C, size: 0x8, addend: 0x0, symName: __ZNKSt3__116reverse_iteratorIPhE4baseB8ue170006Ev, symObjAddr: 0x17530, symBinAddr: 0x100020500, symSize: 0x18 }
  - { offsetInCU: 0x10BA1, offset: 0x2B160, size: 0x8, addend: 0x0, symName: __ZNKSt3__16vectorIhNS_9allocatorIhEEE14__annotate_newB8ue170006Em, symObjAddr: 0x17584, symBinAddr: 0x100020554, symSize: 0xAC }
  - { offsetInCU: 0x10BD5, offset: 0x2B194, size: 0x8, addend: 0x0, symName: __ZNKSt3__16vectorIhNS_9allocatorIhEEE31__annotate_contiguous_containerB8ue170006EPKvS5_S5_S5_, symObjAddr: 0x17630, symBinAddr: 0x100020600, symSize: 0x20 }
  - { offsetInCU: 0x10C29, offset: 0x2B1E8, size: 0x8, addend: 0x0, symName: __ZNKSt3__16vectorIhNS_9allocatorIhEEE4dataB8ue170006Ev, symObjAddr: 0x17650, symBinAddr: 0x100020620, symSize: 0x28 }
  - { offsetInCU: 0x10C71, offset: 0x2B230, size: 0x8, addend: 0x0, symName: __ZNKSt3__111__move_loopINS_17_ClassicAlgPolicyEEclB8ue170006INS_16reverse_iteratorIPhEES6_S6_EENS_4pairIT_T1_EES8_T0_S9_, symObjAddr: 0x17968, symBinAddr: 0x100020938, symSize: 0xA0 }
  - { offsetInCU: 0x10CE0, offset: 0x2B29F, size: 0x8, addend: 0x0, symName: __ZNSt3__18_IterOpsINS_17_ClassicAlgPolicyEE11__iter_moveB8ue170006IRNS_16reverse_iteratorIPhEEEENS_9enable_ifIXsr12is_referenceIDTdeclsr3stdE7declvalIRT_EEEEE5valueEDTclsr3stdE4movedeclsr3stdE7declvalISA_EEEEE4typeEOS9_, symObjAddr: 0x17B9C, symBinAddr: 0x100020B6C, symSize: 0x28 }
  - { offsetInCU: 0x10D0C, offset: 0x2B2CB, size: 0x8, addend: 0x0, symName: __ZNKSt3__116reverse_iteratorIPhEdeB8ue170006Ev, symObjAddr: 0x17BC4, symBinAddr: 0x100020B94, symSize: 0x28 }
  - { offsetInCU: 0x10D3E, offset: 0x2B2FD, size: 0x8, addend: 0x0, symName: __ZNSt3__116reverse_iteratorIPhEppB8ue170006Ev, symObjAddr: 0x17BEC, symBinAddr: 0x100020BBC, symSize: 0x20 }
  - { offsetInCU: 0x10D62, offset: 0x2B321, size: 0x8, addend: 0x0, symName: __ZNSt3__18_IterOpsINS_17_ClassicAlgPolicyEE25__validate_iter_referenceB8ue170006IRNS_16reverse_iteratorIPhEEEEvv, symObjAddr: 0x17C0C, symBinAddr: 0x100020BDC, symSize: 0x4 }
  - { offsetInCU: 0x10D80, offset: 0x2B33F, size: 0x8, addend: 0x0, symName: __ZNSt3__118__unwrap_iter_implINS_16reverse_iteratorIPhEELb0EE8__unwrapB8ue170006ES3_, symObjAddr: 0x17C10, symBinAddr: 0x100020BE0, symSize: 0x24 }
  - { offsetInCU: 0x10DA9, offset: 0x2B368, size: 0x8, addend: 0x0, symName: __ZNSt3__14pairINS_16reverse_iteratorIPhEES3_EC1B8ue170006IS3_S3_LPv0EEEOT_OT0_, symObjAddr: 0x17C34, symBinAddr: 0x100020C04, symSize: 0x3C }
  - { offsetInCU: 0x10E07, offset: 0x2B3C6, size: 0x8, addend: 0x0, symName: __ZNSt3__14pairINS_16reverse_iteratorIPhEES3_EC2B8ue170006IS3_S3_LPv0EEEOT_OT0_, symObjAddr: 0x17C70, symBinAddr: 0x100020C40, symSize: 0x34 }
  - { offsetInCU: 0x10E65, offset: 0x2B424, size: 0x8, addend: 0x0, symName: __ZNSt3__118__unwrap_iter_implINS_16reverse_iteratorIPhEELb0EE8__rewrapB8ue170006ES3_S3_, symObjAddr: 0x17CA4, symBinAddr: 0x100020C74, symSize: 0x2C }
  - { offsetInCU: 0x10E93, offset: 0x2B452, size: 0x8, addend: 0x0, symName: __ZNSt3__116reverse_iteratorIPhEC2B8ue170006ES1_, symObjAddr: 0x17CD0, symBinAddr: 0x100020CA0, symSize: 0x28 }
  - { offsetInCU: 0x10ECA, offset: 0x2B489, size: 0x8, addend: 0x0, symName: __ZNSt3__114__split_bufferIhRNS_9allocatorIhEEED2Ev, symObjAddr: 0x17CF8, symBinAddr: 0x100020CC8, symSize: 0x8C }
  - { offsetInCU: 0x10EF5, offset: 0x2B4B4, size: 0x8, addend: 0x0, symName: __ZNSt3__114__split_bufferIhRNS_9allocatorIhEEE5clearB8ue170006Ev, symObjAddr: 0x17D84, symBinAddr: 0x100020D54, symSize: 0x28 }
  - { offsetInCU: 0x10F19, offset: 0x2B4D8, size: 0x8, addend: 0x0, symName: __ZNSt3__116allocator_traitsINS_9allocatorIhEEE10deallocateB8ue170006ERS2_Phm, symObjAddr: 0x17DAC, symBinAddr: 0x100020D7C, symSize: 0x34 }
  - { offsetInCU: 0x10F5E, offset: 0x2B51D, size: 0x8, addend: 0x0, symName: __ZNKSt3__114__split_bufferIhRNS_9allocatorIhEEE8capacityB8ue170006Ev, symObjAddr: 0x17DE0, symBinAddr: 0x100020DB0, symSize: 0x38 }
  - { offsetInCU: 0x10F82, offset: 0x2B541, size: 0x8, addend: 0x0, symName: __ZNSt3__114__split_bufferIhRNS_9allocatorIhEEE17__destruct_at_endB8ue170006EPh, symObjAddr: 0x17E18, symBinAddr: 0x100020DE8, symSize: 0x2C }
  - { offsetInCU: 0x10FB3, offset: 0x2B572, size: 0x8, addend: 0x0, symName: __ZNSt3__114__split_bufferIhRNS_9allocatorIhEEE17__destruct_at_endB8ue170006EPhNS_17integral_constantIbLb0EEE, symObjAddr: 0x17E44, symBinAddr: 0x100020E14, symSize: 0x80 }
  - { offsetInCU: 0x10FF4, offset: 0x2B5B3, size: 0x8, addend: 0x0, symName: __ZNSt3__116allocator_traitsINS_9allocatorIhEEE7destroyB8ue170006IhvEEvRS2_PT_, symObjAddr: 0x17EC4, symBinAddr: 0x100020E94, symSize: 0x2C }
  - { offsetInCU: 0x11033, offset: 0x2B5F2, size: 0x8, addend: 0x0, symName: __ZNSt3__19allocatorIhE7destroyB8ue170006EPh, symObjAddr: 0x17EF0, symBinAddr: 0x100020EC0, symSize: 0x14 }
  - { offsetInCU: 0x11065, offset: 0x2B624, size: 0x8, addend: 0x0, symName: __ZNSt3__19allocatorIhE10deallocateB8ue170006EPhm, symObjAddr: 0x17F04, symBinAddr: 0x100020ED4, symSize: 0x40 }
  - { offsetInCU: 0x110A5, offset: 0x2B664, size: 0x8, addend: 0x0, symName: __ZNKSt3__114__split_bufferIhRNS_9allocatorIhEEE9__end_capB8ue170006Ev, symObjAddr: 0x1804C, symBinAddr: 0x100020F14, symSize: 0x28 }
  - { offsetInCU: 0x110C9, offset: 0x2B688, size: 0x8, addend: 0x0, symName: __ZNKSt3__117__compressed_pairIPhRNS_9allocatorIhEEE5firstB8ue170006Ev, symObjAddr: 0x18074, symBinAddr: 0x100020F3C, symSize: 0x24 }
  - { offsetInCU: 0x110ED, offset: 0x2B6AC, size: 0x8, addend: 0x0, symName: __ZNSt3__16vectorIhNS_9allocatorIhEEE22__base_destruct_at_endB8ue170006EPh, symObjAddr: 0x18098, symBinAddr: 0x100020F60, symSize: 0x8C }
  - { offsetInCU: 0x11131, offset: 0x2B6F0, size: 0x8, addend: 0x0, symName: __ZNKSt3__16vectorIhNS_9allocatorIhEEE17__annotate_shrinkB8ue170006Em, symObjAddr: 0x18124, symBinAddr: 0x100020FEC, symSize: 0xB4 }
  - { offsetInCU: 0x11165, offset: 0x2B724, size: 0x8, addend: 0x0, symName: __ZNSt3__16vectorIhNS_9allocatorIhEEE11__make_iterB8ue170006EPh, symObjAddr: 0x181D8, symBinAddr: 0x1000210A0, symSize: 0x30 }
  - { offsetInCU: 0x11199, offset: 0x2B758, size: 0x8, addend: 0x0, symName: __ZNSt3__111__wrap_iterIPhEC1B8ue170006ES1_, symObjAddr: 0x18208, symBinAddr: 0x1000210D0, symSize: 0x34 }
  - { offsetInCU: 0x111D0, offset: 0x2B78F, size: 0x8, addend: 0x0, symName: __ZNSt3__111__wrap_iterIPhEC2B8ue170006ES1_, symObjAddr: 0x1823C, symBinAddr: 0x100021104, symSize: 0x20 }
  - { offsetInCU: 0x11206, offset: 0x2B7C5, size: 0x8, addend: 0x0, symName: __ZNSt3__16vectorIhNS_9allocatorIhEEE18__insert_with_sizeB8ue170006IPhS5_EENS_11__wrap_iterIS5_EENS6_IPKhEET_T0_l, symObjAddr: 0x1825C, symBinAddr: 0x100021124, symSize: 0x290 }
  - { offsetInCU: 0x1133B, offset: 0x2B8FA, size: 0x8, addend: 0x0, symName: __ZNSt3__16vectorIhNS_9allocatorIhEEE5beginB8ue170006Ev, symObjAddr: 0x18558, symBinAddr: 0x100021420, symSize: 0x30 }
  - { offsetInCU: 0x11362, offset: 0x2B921, size: 0x8, addend: 0x0, symName: __ZNSt3__16vectorIhNS_9allocatorIhEEE18__construct_at_endIPhS5_EEvT_T0_m, symObjAddr: 0x185F4, symBinAddr: 0x1000214BC, symSize: 0x8C }
  - { offsetInCU: 0x113DB, offset: 0x2B99A, size: 0x8, addend: 0x0, symName: __ZNSt3__16vectorIhNS_9allocatorIhEEE12__move_rangeEPhS4_S4_, symObjAddr: 0x18680, symBinAddr: 0x100021548, symSize: 0x120 }
  - { offsetInCU: 0x1149E, offset: 0x2BA5D, size: 0x8, addend: 0x0, symName: __ZNSt3__114__split_bufferIhRNS_9allocatorIhEEE28__construct_at_end_with_sizeIPhEEvT_m, symObjAddr: 0x187E0, symBinAddr: 0x1000216A8, symSize: 0xC8 }
  - { offsetInCU: 0x114FB, offset: 0x2BABA, size: 0x8, addend: 0x0, symName: __ZNKSt3__111__wrap_iterIPKhE4baseB8ue170006Ev, symObjAddr: 0x189F4, symBinAddr: 0x1000218BC, symSize: 0x18 }
  - { offsetInCU: 0x1153F, offset: 0x2BAFE, size: 0x8, addend: 0x0, symName: __ZNSt3__14pairIPhS1_EC1B8ue170006IS1_S1_LPv0EEEOT_OT0_, symObjAddr: 0x18BF8, symBinAddr: 0x100021AC0, symSize: 0x3C }
  - { offsetInCU: 0x1159D, offset: 0x2BB5C, size: 0x8, addend: 0x0, symName: __ZNSt3__14pairIPhS1_EC2B8ue170006IS1_S1_LPv0EEEOT_OT0_, symObjAddr: 0x18C34, symBinAddr: 0x100021AFC, symSize: 0x34 }
  - { offsetInCU: 0x115FB, offset: 0x2BBBA, size: 0x8, addend: 0x0, symName: __ZNSt3__118__unwrap_iter_implIPhLb1EE8__unwrapB8ue170006ES1_, symObjAddr: 0x18C68, symBinAddr: 0x100021B30, symSize: 0x24 }
  - { offsetInCU: 0x1161E, offset: 0x2BBDD, size: 0x8, addend: 0x0, symName: __ZNSt3__118__unwrap_iter_implIPhLb1EE8__rewrapB8ue170006ES1_S1_, symObjAddr: 0x18C8C, symBinAddr: 0x100021B54, symSize: 0x48 }
  - { offsetInCU: 0x1164F, offset: 0x2BC0E, size: 0x8, addend: 0x0, symName: __ZNSt3__116allocator_traitsINS_9allocatorIhEEE9constructB8ue170006IhJhEvEEvRS2_PT_DpOT0_, symObjAddr: 0x18CD4, symBinAddr: 0x100021B9C, symSize: 0x34 }
  - { offsetInCU: 0x116A9, offset: 0x2BC68, size: 0x8, addend: 0x0, symName: __ZNSt3__19allocatorIhE9constructB8ue170006IhJhEEEvPT_DpOT0_, symObjAddr: 0x18D48, symBinAddr: 0x100021C10, symSize: 0x28 }
  - { offsetInCU: 0x11707, offset: 0x2BCC6, size: 0x8, addend: 0x0, symName: __ZNKSt3__123__move_backward_trivialclB8ue170006IhhLi0EEENS_4pairIPT_PT0_EES4_S4_S6_, symObjAddr: 0x18EAC, symBinAddr: 0x100021D74, symSize: 0x48 }
  - { offsetInCU: 0x1176E, offset: 0x2BD2D, size: 0x8, addend: 0x0, symName: __ZNSt3__14pairIPhS1_EC1B8ue170006IRS1_S4_LPv0EEEOT_OT0_, symObjAddr: 0x1903C, symBinAddr: 0x100021F04, symSize: 0x3C }
  - { offsetInCU: 0x117CC, offset: 0x2BD8B, size: 0x8, addend: 0x0, symName: __ZNSt3__14pairIPhS1_EC2B8ue170006IRS1_S4_LPv0EEEOT_OT0_, symObjAddr: 0x19078, symBinAddr: 0x100021F40, symSize: 0x34 }
  - { offsetInCU: 0x11834, offset: 0x2BDF3, size: 0x8, addend: 0x0, symName: __ZNKSt3__114__copy_trivialclB8ue170006IhhLi0EEENS_4pairIPT_PT0_EES4_S4_S6_, symObjAddr: 0x191E8, symBinAddr: 0x1000220B0, symSize: 0x48 }
  - { offsetInCU: 0x1189B, offset: 0x2BE5A, size: 0x8, addend: 0x0, symName: __ZNSt3__14pairIPhS1_EC1B8ue170006IRS1_S1_LPv0EEEOT_OT0_, symObjAddr: 0x192E0, symBinAddr: 0x1000221A8, symSize: 0x3C }
  - { offsetInCU: 0x118F9, offset: 0x2BEB8, size: 0x8, addend: 0x0, symName: __ZNSt3__14pairIPhS1_EC2B8ue170006IRS1_S1_LPv0EEEOT_OT0_, symObjAddr: 0x1931C, symBinAddr: 0x1000221E4, symSize: 0x34 }
  - { offsetInCU: 0x11957, offset: 0x2BF16, size: 0x8, addend: 0x0, symName: __ZNSt3__116allocator_traitsINS_9allocatorIhEEE9constructB8ue170006IhJRhEvEEvRS2_PT_DpOT0_, symObjAddr: 0x19350, symBinAddr: 0x100022218, symSize: 0x34 }
  - { offsetInCU: 0x119B1, offset: 0x2BF70, size: 0x8, addend: 0x0, symName: __ZNSt3__19allocatorIhE9constructB8ue170006IhJRhEEEvPT_DpOT0_, symObjAddr: 0x19384, symBinAddr: 0x10002224C, symSize: 0x28 }
  - { offsetInCU: 0x11A0F, offset: 0x2BFCE, size: 0x8, addend: 0x0, symName: __ZNKSt3__114__move_trivialclB8ue170006IhhLi0EEENS_4pairIPT_PT0_EES4_S4_S6_, symObjAddr: 0x19560, symBinAddr: 0x100022428, symSize: 0x48 }
  - { offsetInCU: 0x11A76, offset: 0x2C035, size: 0x8, addend: 0x0, symName: __ZNSt3__16vectorIhNS_9allocatorIhEEEC2B8ue170006Ev, symObjAddr: 0x195C8, symBinAddr: 0x100022490, symSize: 0x4C }
  - { offsetInCU: 0x11AA5, offset: 0x2C064, size: 0x8, addend: 0x0, symName: __ZNSt3__117__compressed_pairIPhNS_9allocatorIhEEEC1B8ue170006IDnNS_18__default_init_tagEEEOT_OT0_, symObjAddr: 0x19614, symBinAddr: 0x1000224DC, symSize: 0x3C }
  - { offsetInCU: 0x11AFC, offset: 0x2C0BB, size: 0x8, addend: 0x0, symName: __ZNSt3__117__compressed_pairIPhNS_9allocatorIhEEEC2B8ue170006IDnNS_18__default_init_tagEEEOT_OT0_, symObjAddr: 0x19650, symBinAddr: 0x100022518, symSize: 0x40 }
  - { offsetInCU: 0x11B53, offset: 0x2C112, size: 0x8, addend: 0x0, symName: __ZNSt3__122__compressed_pair_elemINS_9allocatorIhEELi1ELb1EEC2B8ue170006ENS_18__default_init_tagE, symObjAddr: 0x19690, symBinAddr: 0x100022558, symSize: 0x2C }
  - { offsetInCU: 0x11B87, offset: 0x2C146, size: 0x8, addend: 0x0, symName: __ZNSt3__19allocatorIhEC2B8ue170006Ev, symObjAddr: 0x196BC, symBinAddr: 0x100022584, symSize: 0x2C }
  - { offsetInCU: 0x11BB0, offset: 0x2C16F, size: 0x8, addend: 0x0, symName: __ZNSt3__116__non_trivial_ifILb1ENS_9allocatorIhEEEC2B8ue170006Ev, symObjAddr: 0x196E8, symBinAddr: 0x1000225B0, symSize: 0x14 }
  - { offsetInCU: 0x11BD9, offset: 0x2C198, size: 0x8, addend: 0x0, symName: __ZNSt3__16vectorIhNS_9allocatorIhEEED2B8ue170006Ev, symObjAddr: 0x196FC, symBinAddr: 0x1000225C4, symSize: 0x44 }
  - { offsetInCU: 0x11C02, offset: 0x2C1C1, size: 0x8, addend: 0x0, symName: __ZNSt3__16vectorIhNS_9allocatorIhEEE16__destroy_vectorC1B8ue170006ERS3_, symObjAddr: 0x19740, symBinAddr: 0x100022608, symSize: 0x34 }
  - { offsetInCU: 0x11C3B, offset: 0x2C1FA, size: 0x8, addend: 0x0, symName: __ZNSt3__16vectorIhNS_9allocatorIhEEE16__destroy_vectorclB8ue170006Ev, symObjAddr: 0x19774, symBinAddr: 0x10002263C, symSize: 0x90 }
  - { offsetInCU: 0x11C5F, offset: 0x2C21E, size: 0x8, addend: 0x0, symName: __ZNSt3__16vectorIhNS_9allocatorIhEEE16__destroy_vectorC2B8ue170006ERS3_, symObjAddr: 0x19804, symBinAddr: 0x1000226CC, symSize: 0x20 }
  - { offsetInCU: 0x11C98, offset: 0x2C257, size: 0x8, addend: 0x0, symName: __ZNSt3__16vectorIhNS_9allocatorIhEEE7__clearB8ue170006Ev, symObjAddr: 0x19824, symBinAddr: 0x1000226EC, symSize: 0x28 }
  - { offsetInCU: 0x26, offset: 0x2C5FB, size: 0x8, addend: 0x0, symName: __ZN12TwoDGradientC2E6GPointS0_S0_6GColorS1_S1_, symObjAddr: 0x0, symBinAddr: 0x100022714, symSize: 0x284 }
  - { offsetInCU: 0x35D4, offset: 0x2FBA9, size: 0x8, addend: 0x0, symName: __ZN12TwoDGradientC2E6GPointS0_S0_6GColorS1_S1_, symObjAddr: 0x0, symBinAddr: 0x100022714, symSize: 0x284 }
  - { offsetInCU: 0x3656, offset: 0x2FC2B, size: 0x8, addend: 0x0, symName: __ZN7GShaderC2Ev, symObjAddr: 0x284, symBinAddr: 0x100022998, symSize: 0x48 }
  - { offsetInCU: 0x3681, offset: 0x2FC56, size: 0x8, addend: 0x0, symName: __ZNK6GPointmiES_, symObjAddr: 0x2CC, symBinAddr: 0x1000229E0, symSize: 0x44 }
  - { offsetInCU: 0x36B3, offset: 0x2FC88, size: 0x8, addend: 0x0, symName: __ZNK6GColormiERKS_, symObjAddr: 0x310, symBinAddr: 0x100022A24, symSize: 0x78 }
  - { offsetInCU: 0x36E5, offset: 0x2FCBA, size: 0x8, addend: 0x0, symName: __ZN7GMatrixC1Effffff, symObjAddr: 0x388, symBinAddr: 0x100022A9C, symSize: 0x5C }
  - { offsetInCU: 0x3762, offset: 0x2FD37, size: 0x8, addend: 0x0, symName: __ZN7GShaderD2Ev, symObjAddr: 0x3E4, symBinAddr: 0x100022AF8, symSize: 0x30 }
  - { offsetInCU: 0x378B, offset: 0x2FD60, size: 0x8, addend: 0x0, symName: __ZN12TwoDGradientC1E6GPointS0_S0_6GColorS1_S1_, symObjAddr: 0x414, symBinAddr: 0x100022B28, symSize: 0x120 }
  - { offsetInCU: 0x380C, offset: 0x2FDE1, size: 0x8, addend: 0x0, symName: __ZN12TwoDGradient10setContextERK7GMatrix, symObjAddr: 0x534, symBinAddr: 0x100022C48, symSize: 0xA8 }
  - { offsetInCU: 0x3855, offset: 0x2FE2A, size: 0x8, addend: 0x0, symName: __ZmlRK7GMatrixS1_, symObjAddr: 0x5DC, symBinAddr: 0x100022CF0, symSize: 0x2C }
  - { offsetInCU: 0x3890, offset: 0x2FE65, size: 0x8, addend: 0x0, symName: __ZNKSt3__18optionalI7GMatrixEcvbB8ue170006Ev, symObjAddr: 0x608, symBinAddr: 0x100022D1C, symSize: 0x28 }
  - { offsetInCU: 0x38B4, offset: 0x2FE89, size: 0x8, addend: 0x0, symName: __ZNRSt3__18optionalI7GMatrixEdeB8ue170006Ev, symObjAddr: 0x630, symBinAddr: 0x100022D44, symSize: 0x24 }
  - { offsetInCU: 0x38D8, offset: 0x2FEAD, size: 0x8, addend: 0x0, symName: __ZN12TwoDGradient8isOpaqueEv, symObjAddr: 0x654, symBinAddr: 0x100022D68, symSize: 0x18 }
  - { offsetInCU: 0x38FF, offset: 0x2FED4, size: 0x8, addend: 0x0, symName: __ZN12TwoDGradient8shadeRowEiiiPj, symObjAddr: 0x66C, symBinAddr: 0x100022D80, symSize: 0x2C0 }
  - { offsetInCU: 0x39B2, offset: 0x2FF87, size: 0x8, addend: 0x0, symName: __ZNK7GMatrixmlE6GPoint, symObjAddr: 0x92C, symBinAddr: 0x100023040, symSize: 0x44 }
  - { offsetInCU: 0x39E4, offset: 0x2FFB9, size: 0x8, addend: 0x0, symName: __ZmlfRK6GColor, symObjAddr: 0x970, symBinAddr: 0x100023084, symSize: 0x4C }
  - { offsetInCU: 0x3A1F, offset: 0x2FFF4, size: 0x8, addend: 0x0, symName: __ZNK6GColorplERKS_, symObjAddr: 0x9BC, symBinAddr: 0x1000230D0, symSize: 0x78 }
  - { offsetInCU: 0x3A51, offset: 0x30026, size: 0x8, addend: 0x0, symName: __ZN12TwoDGradient9color2PixERK6GColor, symObjAddr: 0xA34, symBinAddr: 0x100023148, symSize: 0xC0 }
  - { offsetInCU: 0x3ABD, offset: 0x30092, size: 0x8, addend: 0x0, symName: __ZL11GRoundToIntf, symObjAddr: 0xAF4, symBinAddr: 0x100023208, symSize: 0x20 }
  - { offsetInCU: 0x3AE9, offset: 0x300BE, size: 0x8, addend: 0x0, symName: __ZL15GPixel_PackARGBjjjj, symObjAddr: 0xB14, symBinAddr: 0x100023228, symSize: 0x134 }
  - { offsetInCU: 0x3B3F, offset: 0x30114, size: 0x8, addend: 0x0, symName: __ZN12TwoDGradientD1Ev, symObjAddr: 0xC48, symBinAddr: 0x10002335C, symSize: 0x2C }
  - { offsetInCU: 0x3B6A, offset: 0x3013F, size: 0x8, addend: 0x0, symName: __ZN12TwoDGradientD0Ev, symObjAddr: 0xC74, symBinAddr: 0x100023388, symSize: 0x30 }
  - { offsetInCU: 0x3B95, offset: 0x3016A, size: 0x8, addend: 0x0, symName: __ZNSt3__123enable_shared_from_thisI7GShaderEC2B8ue170006Ev, symObjAddr: 0xCA4, symBinAddr: 0x1000233B8, symSize: 0x2C }
  - { offsetInCU: 0x3BBE, offset: 0x30193, size: 0x8, addend: 0x0, symName: __ZN7GShaderD1Ev, symObjAddr: 0xCD0, symBinAddr: 0x1000233E4, symSize: 0x14 }
  - { offsetInCU: 0x3BE7, offset: 0x301BC, size: 0x8, addend: 0x0, symName: __ZN7GShaderD0Ev, symObjAddr: 0xCE4, symBinAddr: 0x1000233F8, symSize: 0xC }
  - { offsetInCU: 0x3C10, offset: 0x301E5, size: 0x8, addend: 0x0, symName: __ZNSt3__18weak_ptrI7GShaderEC1Ev, symObjAddr: 0xCF0, symBinAddr: 0x100023404, symSize: 0x2C }
  - { offsetInCU: 0x3C3B, offset: 0x30210, size: 0x8, addend: 0x0, symName: __ZNSt3__18weak_ptrI7GShaderEC2Ev, symObjAddr: 0xD1C, symBinAddr: 0x100023430, symSize: 0x1C }
  - { offsetInCU: 0x3C66, offset: 0x3023B, size: 0x8, addend: 0x0, symName: __ZN7GMatrixC2Effffff, symObjAddr: 0xD38, symBinAddr: 0x10002344C, symSize: 0x5C }
  - { offsetInCU: 0x3CE3, offset: 0x302B8, size: 0x8, addend: 0x0, symName: __ZNSt3__123enable_shared_from_thisI7GShaderED2B8ue170006Ev, symObjAddr: 0xD94, symBinAddr: 0x1000234A8, symSize: 0x2C }
  - { offsetInCU: 0x3D0C, offset: 0x302E1, size: 0x8, addend: 0x0, symName: __ZNSt3__18weak_ptrI7GShaderED1Ev, symObjAddr: 0xDC0, symBinAddr: 0x1000234D4, symSize: 0x2C }
  - { offsetInCU: 0x3D37, offset: 0x3030C, size: 0x8, addend: 0x0, symName: __ZNSt3__18weak_ptrI7GShaderED2Ev, symObjAddr: 0xDEC, symBinAddr: 0x100023500, symSize: 0x54 }
  - { offsetInCU: 0x3D62, offset: 0x30337, size: 0x8, addend: 0x0, symName: __ZNKSt3__123__optional_storage_baseI7GMatrixLb0EE9has_valueB8ue170006Ev, symObjAddr: 0xE40, symBinAddr: 0x100023554, symSize: 0x1C }
  - { offsetInCU: 0x3D86, offset: 0x3035B, size: 0x8, addend: 0x0, symName: __ZNRSt3__123__optional_storage_baseI7GMatrixLb0EE5__getB8ue170006Ev, symObjAddr: 0xE5C, symBinAddr: 0x100023570, symSize: 0x14 }
  - { offsetInCU: 0x3DAA, offset: 0x3037F, size: 0x8, addend: 0x0, symName: __ZmlRK6GColorf, symObjAddr: 0xEA8, symBinAddr: 0x100023584, symSize: 0x74 }
  - { offsetInCU: 0x3DE5, offset: 0x303BA, size: 0x8, addend: 0x0, symName: __ZN12TwoDGradientD2Ev, symObjAddr: 0xF1C, symBinAddr: 0x1000235F8, symSize: 0x2C }
  - { offsetInCU: 0x3FC3, offset: 0x343D5, size: 0x8, addend: 0x0, symName: __ZNSt3__112__to_addressB8ue170006I6GColorEEPT_S3_, symObjAddr: 0x146C, symBinAddr: 0x1000247DC, symSize: 0x14 }
  - { offsetInCU: 0x4071, offset: 0x34483, size: 0x8, addend: 0x0, symName: __ZNSt3__119__allocate_at_leastB8ue170006INS_9allocatorI6GColorEEEENS_19__allocation_resultINS_16allocator_traitsIT_E7pointerEEERS6_m, symObjAddr: 0x1CC4, symBinAddr: 0x100024E00, symSize: 0x40 }
  - { offsetInCU: 0x40B5, offset: 0x344C7, size: 0x8, addend: 0x0, symName: __ZNSt3__142__uninitialized_allocator_move_if_noexceptB8ue170006INS_9allocatorI6GColorEENS_16reverse_iteratorIPS2_EES6_S2_vEET1_RT_T0_SA_S7_, symObjAddr: 0x2034, symBinAddr: 0x10002506C, symSize: 0x78 }
  - { offsetInCU: 0x4136, offset: 0x34548, size: 0x8, addend: 0x0, symName: __ZNSt3__14swapB8ue170006IP6GColorEENS_9enable_ifIXaasr21is_move_constructibleIT_EE5valuesr18is_move_assignableIS4_EE5valueEvE4typeERS4_S7_, symObjAddr: 0x20F8, symBinAddr: 0x100025130, symSize: 0x3C }
  - { offsetInCU: 0x4188, offset: 0x3459A, size: 0x8, addend: 0x0, symName: __ZNSt3__14moveB8ue170006INS_16reverse_iteratorIP6GColorEES4_EET0_T_S6_S5_, symObjAddr: 0x2228, symBinAddr: 0x100025260, symSize: 0x78 }
  - { offsetInCU: 0x41E3, offset: 0x345F5, size: 0x8, addend: 0x0, symName: __ZNSt3__16__moveB8ue170006INS_17_ClassicAlgPolicyENS_16reverse_iteratorIP6GColorEES5_S5_EENS_4pairIT0_T2_EES7_T1_S8_, symObjAddr: 0x22A0, symBinAddr: 0x1000252D8, symSize: 0x64 }
  - { offsetInCU: 0x4250, offset: 0x34662, size: 0x8, addend: 0x0, symName: __ZNSt3__123__dispatch_copy_or_moveB8ue170006INS_17_ClassicAlgPolicyENS_11__move_loopIS1_EENS_14__move_trivialENS_16reverse_iteratorIP6GColorEES8_S8_EENS_4pairIT2_T4_EESA_T3_SB_, symObjAddr: 0x2304, symBinAddr: 0x10002533C, symSize: 0x64 }
  - { offsetInCU: 0x42CF, offset: 0x346E1, size: 0x8, addend: 0x0, symName: __ZNSt3__121__unwrap_and_dispatchB8ue170006INS_10__overloadINS_11__move_loopINS_17_ClassicAlgPolicyEEENS_14__move_trivialEEENS_16reverse_iteratorIP6GColorEESA_SA_Li0EEENS_4pairIT0_T2_EESC_T1_SD_, symObjAddr: 0x2368, symBinAddr: 0x1000253A0, symSize: 0x12C }
  - { offsetInCU: 0x4361, offset: 0x34773, size: 0x8, addend: 0x0, symName: __ZNSt3__114__unwrap_rangeB8ue170006INS_16reverse_iteratorIP6GColorEES4_EENS_4pairIT0_S6_EET_S8_, symObjAddr: 0x2494, symBinAddr: 0x1000254CC, symSize: 0x84 }
  - { offsetInCU: 0x4514, offset: 0x34926, size: 0x8, addend: 0x0, symName: __ZNSt3__113__unwrap_iterB8ue170006INS_16reverse_iteratorIP6GColorEENS_18__unwrap_iter_implIS4_Lb0EEELi0EEEDTclsrT0_8__unwrapclsr3stdE7declvalIT_EEEES8_, symObjAddr: 0x25B8, symBinAddr: 0x1000255F0, symSize: 0x44 }
  - { offsetInCU: 0x455A, offset: 0x3496C, size: 0x8, addend: 0x0, symName: __ZNSt3__19make_pairB8ue170006INS_16reverse_iteratorIP6GColorEES4_EENS_4pairINS_18__unwrap_ref_decayIT_E4typeENS6_IT0_E4typeEEEOS7_OSA_, symObjAddr: 0x25FC, symBinAddr: 0x100025634, symSize: 0x38 }
  - { offsetInCU: 0x45AB, offset: 0x349BD, size: 0x8, addend: 0x0, symName: __ZNSt3__114__rewrap_rangeB8ue170006INS_16reverse_iteratorIP6GColorEES4_EET_S5_T0_, symObjAddr: 0x2634, symBinAddr: 0x10002566C, symSize: 0x5C }
  - { offsetInCU: 0x45F8, offset: 0x34A0A, size: 0x8, addend: 0x0, symName: __ZNSt3__113__rewrap_iterB8ue170006INS_16reverse_iteratorIP6GColorEES4_NS_18__unwrap_iter_implIS4_Lb0EEEEET_S7_T0_, symObjAddr: 0x2690, symBinAddr: 0x1000256C8, symSize: 0x74 }
  - { offsetInCU: 0x464E, offset: 0x34A60, size: 0x8, addend: 0x0, symName: __ZNSt3__1neB8ue170006IP6GColorS2_EEbRKNS_16reverse_iteratorIT_EERKNS3_IT0_EE, symObjAddr: 0x2704, symBinAddr: 0x10002573C, symSize: 0x48 }
  - { offsetInCU: 0x4781, offset: 0x34B93, size: 0x8, addend: 0x0, symName: __ZNSt3__13maxB8ue170006IiEERKT_S3_S3_, symObjAddr: 0x4810, symBinAddr: 0x100025DC8, symSize: 0x2C }
  - { offsetInCU: 0x47C5, offset: 0x34BD7, size: 0x8, addend: 0x0, symName: __ZNSt3__13minB8ue170006IiEERKT_S3_S3_, symObjAddr: 0x483C, symBinAddr: 0x100025DF4, symSize: 0x2C }
  - { offsetInCU: 0x4809, offset: 0x34C1B, size: 0x8, addend: 0x0, symName: __ZNSt3__13maxB8ue170006IiNS_6__lessIvvEEEERKT_S5_S5_T0_, symObjAddr: 0x4AC4, symBinAddr: 0x100026014, symSize: 0x54 }
  - { offsetInCU: 0x4864, offset: 0x34C76, size: 0x8, addend: 0x0, symName: __ZNSt3__13minB8ue170006IiNS_6__lessIvvEEEERKT_S5_S5_T0_, symObjAddr: 0x4B4C, symBinAddr: 0x10002609C, symSize: 0x54 }
  - { offsetInCU: 0x4EE6, offset: 0x352F8, size: 0x8, addend: 0x0, symName: __ZNSt3__14swapB8ue170006IP7GShaderEENS_9enable_ifIXaasr21is_move_constructibleIT_EE5valuesr18is_move_assignableIS4_EE5valueEvE4typeERS4_S7_, symObjAddr: 0x5CBC, symBinAddr: 0x100027064, symSize: 0x3C }
  - { offsetInCU: 0x592E, offset: 0x35D40, size: 0x8, addend: 0x0, symName: __ZNSt3__16vectorI6GColorNS_9allocatorIS1_EEE26__swap_out_circular_bufferERNS_14__split_bufferIS1_RS3_EE, symObjAddr: 0x1690, symBinAddr: 0x100024A00, symSize: 0x110 }
  - { offsetInCU: 0x5994, offset: 0x35DA6, size: 0x8, addend: 0x0, symName: __Z3powB8ue170006IfiENSt3__19enable_ifIXaasr3std13is_arithmeticIT_EE5valuesr3std13is_arithmeticIT0_EE5valueENS0_9__promoteIS2_S3_vEEE4type4typeES2_S3_, symObjAddr: 0x4BA0, symBinAddr: 0x1000260F0, symSize: 0x3C }
  - { offsetInCU: 0x5A32, offset: 0x35E44, size: 0x8, addend: 0x0, symName: __ZNSt3__110shared_ptrI7GShaderE18__enable_weak_thisB8ue170006IS1_S1_vEEvPKNS_23enable_shared_from_thisIT_EEPT0_, symObjAddr: 0x5044, symBinAddr: 0x100026594, symSize: 0x7C }
  - { offsetInCU: 0x7854, offset: 0x37C66, size: 0x8, addend: 0x0, symName: __Z12GCreateFinalv, symObjAddr: 0x0, symBinAddr: 0x100023624, symSize: 0x64 }
  - { offsetInCU: 0x796D, offset: 0x37D7F, size: 0x8, addend: 0x0, symName: __ZN7MyFinalC1Ev, symObjAddr: 0x64, symBinAddr: 0x100023688, symSize: 0x2C }
  - { offsetInCU: 0x7996, offset: 0x37DA8, size: 0x8, addend: 0x0, symName: __ZNSt3__110unique_ptrI6GFinalNS_14default_deleteIS1_EEEC1B8ue170006ILb1EvEEPS1_, symObjAddr: 0x90, symBinAddr: 0x1000236B4, symSize: 0x34 }
  - { offsetInCU: 0x79D8, offset: 0x37DEA, size: 0x8, addend: 0x0, symName: __ZN7MyFinalC2Ev, symObjAddr: 0xC4, symBinAddr: 0x1000236E8, symSize: 0x44 }
  - { offsetInCU: 0x7A01, offset: 0x37E13, size: 0x8, addend: 0x0, symName: __ZN6GFinalC2Ev, symObjAddr: 0x108, symBinAddr: 0x10002372C, symSize: 0x24 }
  - { offsetInCU: 0x7A2C, offset: 0x37E3E, size: 0x8, addend: 0x0, symName: __ZN7MyFinalD1Ev, symObjAddr: 0x12C, symBinAddr: 0x100023750, symSize: 0x2C }
  - { offsetInCU: 0x7A57, offset: 0x37E69, size: 0x8, addend: 0x0, symName: __ZN7MyFinalD0Ev, symObjAddr: 0x158, symBinAddr: 0x10002377C, symSize: 0x30 }
  - { offsetInCU: 0x7A81, offset: 0x37E93, size: 0x8, addend: 0x0, symName: __ZN7MyFinal19createVoronoiShaderEPK6GPointPK6GColori, symObjAddr: 0x188, symBinAddr: 0x1000237AC, symSize: 0xDC }
  - { offsetInCU: 0x7ACF, offset: 0x37EE1, size: 0x8, addend: 0x0, symName: __ZN7MyFinal19createSweepGradientE6GPointfPK6GColori, symObjAddr: 0x264, symBinAddr: 0x100023888, symSize: 0xCC }
  - { offsetInCU: 0x7B2B, offset: 0x37F3D, size: 0x8, addend: 0x0, symName: __ZN7MyFinal23createLinearPosGradientE6GPointS0_PK6GColorPKfi, symObjAddr: 0x330, symBinAddr: 0x100023954, symSize: 0xE4 }
  - { offsetInCU: 0x7B95, offset: 0x37FA7, size: 0x8, addend: 0x0, symName: __ZN7MyFinal23createColorMatrixShaderERK12GColorMatrixP7GShader, symObjAddr: 0x414, symBinAddr: 0x100023A38, symSize: 0xAC }
  - { offsetInCU: 0x7BD5, offset: 0x37FE7, size: 0x8, addend: 0x0, symName: __ZN6GFinal13strokePolygonEPK6GPointifb, symObjAddr: 0x4C0, symBinAddr: 0x100023AE4, symSize: 0x4C }
  - { offsetInCU: 0x7C2F, offset: 0x38041, size: 0x8, addend: 0x0, symName: __ZN6GFinal18drawQuadraticCoonsEP7GCanvasPK6GPointS4_iRK6GPaint, symObjAddr: 0x50C, symBinAddr: 0x100023B30, symSize: 0x24 }
  - { offsetInCU: 0x7C93, offset: 0x380A5, size: 0x8, addend: 0x0, symName: __ZN6GFinalD1Ev, symObjAddr: 0x530, symBinAddr: 0x100023B54, symSize: 0x2C }
  - { offsetInCU: 0x7CBC, offset: 0x380CE, size: 0x8, addend: 0x0, symName: __ZN6GFinalD0Ev, symObjAddr: 0x55C, symBinAddr: 0x100023B80, symSize: 0x30 }
  - { offsetInCU: 0x7CE4, offset: 0x380F6, size: 0x8, addend: 0x0, symName: __ZN6GFinal19createVoronoiShaderEPK6GPointPK6GColori, symObjAddr: 0x58C, symBinAddr: 0x100023BB0, symSize: 0x44 }
  - { offsetInCU: 0x7D32, offset: 0x38144, size: 0x8, addend: 0x0, symName: __ZN6GFinal19createSweepGradientE6GPointfPK6GColori, symObjAddr: 0x5D0, symBinAddr: 0x100023BF4, symSize: 0x4C }
  - { offsetInCU: 0x7D8E, offset: 0x381A0, size: 0x8, addend: 0x0, symName: __ZN6GFinal23createLinearPosGradientE6GPointS0_PK6GColorPKfi, symObjAddr: 0x61C, symBinAddr: 0x100023C40, symSize: 0x54 }
  - { offsetInCU: 0x7DF8, offset: 0x3820A, size: 0x8, addend: 0x0, symName: __ZN6GFinal23createColorMatrixShaderERK12GColorMatrixP7GShader, symObjAddr: 0x670, symBinAddr: 0x100023C94, symSize: 0x40 }
  - { offsetInCU: 0x7E36, offset: 0x38248, size: 0x8, addend: 0x0, symName: __ZN6GFinalD2Ev, symObjAddr: 0x6B0, symBinAddr: 0x100023CD4, symSize: 0x14 }
  - { offsetInCU: 0x7E5F, offset: 0x38271, size: 0x8, addend: 0x0, symName: __ZNSt3__110shared_ptrI7GShaderEC1B8ue170006EDn, symObjAddr: 0x6C4, symBinAddr: 0x100023CE8, symSize: 0x34 }
  - { offsetInCU: 0x7E94, offset: 0x382A6, size: 0x8, addend: 0x0, symName: __ZNSt3__110shared_ptrI7GShaderEC2B8ue170006EDn, symObjAddr: 0x6F8, symBinAddr: 0x100023D1C, symSize: 0x20 }
  - { offsetInCU: 0x7EC9, offset: 0x382DB, size: 0x8, addend: 0x0, symName: __ZN7MyFinalD2Ev, symObjAddr: 0x718, symBinAddr: 0x100023D3C, symSize: 0x2C }
  - { offsetInCU: 0x803F, offset: 0x38451, size: 0x8, addend: 0x0, symName: __ZN7VoronoiC1EPK6GPointPK6GColori, symObjAddr: 0x744, symBinAddr: 0x100023D68, symSize: 0x44 }
  - { offsetInCU: 0x8092, offset: 0x384A4, size: 0x8, addend: 0x0, symName: __ZNSt3__110unique_ptrI7GShaderNS_14default_deleteIS1_EEEC1B8ue170006ILb1EvEEPS1_, symObjAddr: 0x788, symBinAddr: 0x100023DAC, symSize: 0x34 }
  - { offsetInCU: 0x80D4, offset: 0x384E6, size: 0x8, addend: 0x0, symName: __ZNSt3__110shared_ptrI7GShaderEC1B8ue170006IS1_NS_14default_deleteIS1_EEvEEONS_10unique_ptrIT_T0_EE, symObjAddr: 0x7BC, symBinAddr: 0x100023DE0, symSize: 0x34 }
  - { offsetInCU: 0x8120, offset: 0x38532, size: 0x8, addend: 0x0, symName: __ZNSt3__110unique_ptrI7GShaderNS_14default_deleteIS1_EEED1B8ue170006Ev, symObjAddr: 0x7F0, symBinAddr: 0x100023E14, symSize: 0x2C }
  - { offsetInCU: 0x8149, offset: 0x3855B, size: 0x8, addend: 0x0, symName: __ZN7VoronoiC2EPK6GPointPK6GColori, symObjAddr: 0x81C, symBinAddr: 0x100023E40, symSize: 0x168 }
  - { offsetInCU: 0x81B1, offset: 0x385C3, size: 0x8, addend: 0x0, symName: __ZNSt3__16vectorI6GColorNS_9allocatorIS1_EEEC1B8ue170006Ev, symObjAddr: 0x9CC, symBinAddr: 0x100023FA8, symSize: 0x2C }
  - { offsetInCU: 0x81DA, offset: 0x385EC, size: 0x8, addend: 0x0, symName: __ZN7GBitmapC1Ev, symObjAddr: 0x9F8, symBinAddr: 0x100023FD4, symSize: 0x2C }
  - { offsetInCU: 0x8203, offset: 0x38615, size: 0x8, addend: 0x0, symName: __ZNSt3__16vectorI6GPointNS_9allocatorIS1_EEEC1B8ue170006Ev, symObjAddr: 0xA24, symBinAddr: 0x100024000, symSize: 0x2C }
  - { offsetInCU: 0x822B, offset: 0x3863D, size: 0x8, addend: 0x0, symName: __ZNSt3__16vectorI6GColorNS_9allocatorIS1_EEE9push_backB8ue170006ERKS1_, symObjAddr: 0xA50, symBinAddr: 0x10002402C, symSize: 0x6C }
  - { offsetInCU: 0x8263, offset: 0x38675, size: 0x8, addend: 0x0, symName: __ZNSt3__16vectorI6GColorNS_9allocatorIS1_EEED1B8ue170006Ev, symObjAddr: 0xB54, symBinAddr: 0x100024098, symSize: 0x2C }
  - { offsetInCU: 0x828C, offset: 0x3869E, size: 0x8, addend: 0x0, symName: __ZN7VoronoiD1Ev, symObjAddr: 0xBB0, symBinAddr: 0x1000240C4, symSize: 0x2C }
  - { offsetInCU: 0x82B7, offset: 0x386C9, size: 0x8, addend: 0x0, symName: __ZN7VoronoiD0Ev, symObjAddr: 0xBDC, symBinAddr: 0x1000240F0, symSize: 0x30 }
  - { offsetInCU: 0x82E2, offset: 0x386F4, size: 0x8, addend: 0x0, symName: __ZN7Voronoi8isOpaqueEv, symObjAddr: 0xC0C, symBinAddr: 0x100024120, symSize: 0x18 }
  - { offsetInCU: 0x8305, offset: 0x38717, size: 0x8, addend: 0x0, symName: __ZN7Voronoi10setContextERK7GMatrix, symObjAddr: 0xC24, symBinAddr: 0x100024138, symSize: 0xA8 }
  - { offsetInCU: 0x834C, offset: 0x3875E, size: 0x8, addend: 0x0, symName: __ZN7Voronoi8shadeRowEiiiPj, symObjAddr: 0xCCC, symBinAddr: 0x1000241E0, symSize: 0x1AC }
  - { offsetInCU: 0x8436, offset: 0x38848, size: 0x8, addend: 0x0, symName: __ZNSt3__16vectorI6GColorNS_9allocatorIS1_EEEC2B8ue170006Ev, symObjAddr: 0xF0C, symBinAddr: 0x10002438C, symSize: 0x4C }
  - { offsetInCU: 0x846B, offset: 0x3887D, size: 0x8, addend: 0x0, symName: __ZNSt3__117__compressed_pairIP6GColorNS_9allocatorIS1_EEEC1B8ue170006IDnNS_18__default_init_tagEEEOT_OT0_, symObjAddr: 0xF58, symBinAddr: 0x1000243D8, symSize: 0x3C }
  - { offsetInCU: 0x84C2, offset: 0x388D4, size: 0x8, addend: 0x0, symName: __ZNSt3__117__compressed_pairIP6GColorNS_9allocatorIS1_EEEC2B8ue170006IDnNS_18__default_init_tagEEEOT_OT0_, symObjAddr: 0xFA0, symBinAddr: 0x100024414, symSize: 0x40 }
  - { offsetInCU: 0x8519, offset: 0x3892B, size: 0x8, addend: 0x0, symName: __ZNSt3__122__compressed_pair_elemIP6GColorLi0ELb0EEC2B8ue170006IDnvEEOT_, symObjAddr: 0xFE0, symBinAddr: 0x100024454, symSize: 0x1C }
  - { offsetInCU: 0x855A, offset: 0x3896C, size: 0x8, addend: 0x0, symName: __ZNSt3__122__compressed_pair_elemINS_9allocatorI6GColorEELi1ELb1EEC2B8ue170006ENS_18__default_init_tagE, symObjAddr: 0xFFC, symBinAddr: 0x100024470, symSize: 0x2C }
  - { offsetInCU: 0x858E, offset: 0x389A0, size: 0x8, addend: 0x0, symName: __ZNSt3__19allocatorI6GColorEC2B8ue170006Ev, symObjAddr: 0x1028, symBinAddr: 0x10002449C, symSize: 0x2C }
  - { offsetInCU: 0x85B7, offset: 0x389C9, size: 0x8, addend: 0x0, symName: __ZNSt3__116__non_trivial_ifILb1ENS_9allocatorI6GColorEEEC2B8ue170006Ev, symObjAddr: 0x1054, symBinAddr: 0x1000244C8, symSize: 0x14 }
  - { offsetInCU: 0x85E0, offset: 0x389F2, size: 0x8, addend: 0x0, symName: __ZN7GBitmapC2Ev, symObjAddr: 0x1068, symBinAddr: 0x1000244DC, symSize: 0x2C }
  - { offsetInCU: 0x8609, offset: 0x38A1B, size: 0x8, addend: 0x0, symName: __ZN7GBitmap5resetEv, symObjAddr: 0x1094, symBinAddr: 0x100024508, symSize: 0x28 }
  - { offsetInCU: 0x862D, offset: 0x38A3F, size: 0x8, addend: 0x0, symName: __ZNSt3__16vectorI6GPointNS_9allocatorIS1_EEEC2B8ue170006Ev, symObjAddr: 0x10BC, symBinAddr: 0x100024530, symSize: 0x4C }
  - { offsetInCU: 0x8655, offset: 0x38A67, size: 0x8, addend: 0x0, symName: __ZNSt3__16vectorI6GColorNS_9allocatorIS1_EEE9__end_capB8ue170006Ev, symObjAddr: 0x120C, symBinAddr: 0x10002457C, symSize: 0x28 }
  - { offsetInCU: 0x8679, offset: 0x38A8B, size: 0x8, addend: 0x0, symName: __ZNSt3__16vectorI6GColorNS_9allocatorIS1_EEE22__construct_one_at_endB8ue170006IJRKS1_EEEvDpOT_, symObjAddr: 0x1234, symBinAddr: 0x1000245A4, symSize: 0x90 }
  - { offsetInCU: 0x86C8, offset: 0x38ADA, size: 0x8, addend: 0x0, symName: __ZNSt3__16vectorI6GColorNS_9allocatorIS1_EEE21__push_back_slow_pathIRKS1_EEvOT_, symObjAddr: 0x12C4, symBinAddr: 0x100024634, symSize: 0xD8 }
  - { offsetInCU: 0x8728, offset: 0x38B3A, size: 0x8, addend: 0x0, symName: __ZNSt3__117__compressed_pairIP6GColorNS_9allocatorIS1_EEE5firstB8ue170006Ev, symObjAddr: 0x139C, symBinAddr: 0x10002470C, symSize: 0x24 }
  - { offsetInCU: 0x874D, offset: 0x38B5F, size: 0x8, addend: 0x0, symName: __ZNSt3__122__compressed_pair_elemIP6GColorLi0ELb0EE5__getB8ue170006Ev, symObjAddr: 0x13C0, symBinAddr: 0x100024730, symSize: 0x14 }
  - { offsetInCU: 0x878A, offset: 0x38B9C, size: 0x8, addend: 0x0, symName: __ZNSt3__16vectorI6GColorNS_9allocatorIS1_EEE21_ConstructTransactionC1B8ue170006ERS4_m, symObjAddr: 0x13D4, symBinAddr: 0x100024744, symSize: 0x3C }
  - { offsetInCU: 0x87D3, offset: 0x38BE5, size: 0x8, addend: 0x0, symName: __ZNSt3__116allocator_traitsINS_9allocatorI6GColorEEE9constructB8ue170006IS2_JRKS2_EvEEvRS3_PT_DpOT0_, symObjAddr: 0x1410, symBinAddr: 0x100024780, symSize: 0x34 }
  - { offsetInCU: 0x882C, offset: 0x38C3E, size: 0x8, addend: 0x0, symName: __ZNSt3__16vectorI6GColorNS_9allocatorIS1_EEE7__allocB8ue170006Ev, symObjAddr: 0x1444, symBinAddr: 0x1000247B4, symSize: 0x28 }
  - { offsetInCU: 0x8851, offset: 0x38C63, size: 0x8, addend: 0x0, symName: __ZNSt3__16vectorI6GColorNS_9allocatorIS1_EEE21_ConstructTransactionD1B8ue170006Ev, symObjAddr: 0x1480, symBinAddr: 0x1000247F0, symSize: 0x2C }
  - { offsetInCU: 0x887A, offset: 0x38C8C, size: 0x8, addend: 0x0, symName: __ZNSt3__16vectorI6GColorNS_9allocatorIS1_EEE21_ConstructTransactionC2B8ue170006ERS4_m, symObjAddr: 0x14AC, symBinAddr: 0x10002481C, symSize: 0x44 }
  - { offsetInCU: 0x88C3, offset: 0x38CD5, size: 0x8, addend: 0x0, symName: __ZNSt3__19allocatorI6GColorE9constructB8ue170006IS1_JRKS1_EEEvPT_DpOT0_, symObjAddr: 0x14F0, symBinAddr: 0x100024860, symSize: 0x28 }
  - { offsetInCU: 0x8916, offset: 0x38D28, size: 0x8, addend: 0x0, symName: __ZNSt3__117__compressed_pairIP6GColorNS_9allocatorIS1_EEE6secondB8ue170006Ev, symObjAddr: 0x1518, symBinAddr: 0x100024888, symSize: 0x24 }
  - { offsetInCU: 0x893B, offset: 0x38D4D, size: 0x8, addend: 0x0, symName: __ZNSt3__122__compressed_pair_elemINS_9allocatorI6GColorEELi1ELb1EE5__getB8ue170006Ev, symObjAddr: 0x153C, symBinAddr: 0x1000248AC, symSize: 0x14 }
  - { offsetInCU: 0x895F, offset: 0x38D71, size: 0x8, addend: 0x0, symName: __ZNSt3__16vectorI6GColorNS_9allocatorIS1_EEE21_ConstructTransactionD2B8ue170006Ev, symObjAddr: 0x1550, symBinAddr: 0x1000248C0, symSize: 0x20 }
  - { offsetInCU: 0x8987, offset: 0x38D99, size: 0x8, addend: 0x0, symName: __ZNKSt3__16vectorI6GColorNS_9allocatorIS1_EEE11__recommendB8ue170006Em, symObjAddr: 0x1570, symBinAddr: 0x1000248E0, symSize: 0xB4 }
  - { offsetInCU: 0x89DF, offset: 0x38DF1, size: 0x8, addend: 0x0, symName: __ZNKSt3__16vectorI6GColorNS_9allocatorIS1_EEE4sizeB8ue170006Ev, symObjAddr: 0x1624, symBinAddr: 0x100024994, symSize: 0x28 }
  - { offsetInCU: 0x8A03, offset: 0x38E15, size: 0x8, addend: 0x0, symName: __ZNSt3__114__split_bufferI6GColorRNS_9allocatorIS1_EEEC1EmmS4_, symObjAddr: 0x164C, symBinAddr: 0x1000249BC, symSize: 0x44 }
  - { offsetInCU: 0x8A58, offset: 0x38E6A, size: 0x8, addend: 0x0, symName: __ZNSt3__114__split_bufferI6GColorRNS_9allocatorIS1_EEED1Ev, symObjAddr: 0x17A0, symBinAddr: 0x100024B10, symSize: 0x2C }
  - { offsetInCU: 0x8A82, offset: 0x38E94, size: 0x8, addend: 0x0, symName: __ZNKSt3__16vectorI6GColorNS_9allocatorIS1_EEE8max_sizeEv, symObjAddr: 0x17CC, symBinAddr: 0x100024B3C, symSize: 0x60 }
  - { offsetInCU: 0x8AA9, offset: 0x38EBB, size: 0x8, addend: 0x0, symName: __ZNKSt3__16vectorI6GColorNS_9allocatorIS1_EEE20__throw_length_errorB8ue170006Ev, symObjAddr: 0x182C, symBinAddr: 0x100024B9C, symSize: 0x1C }
  - { offsetInCU: 0x8ACD, offset: 0x38EDF, size: 0x8, addend: 0x0, symName: __ZNKSt3__16vectorI6GColorNS_9allocatorIS1_EEE8capacityB8ue170006Ev, symObjAddr: 0x1848, symBinAddr: 0x100024BB8, symSize: 0x40 }
  - { offsetInCU: 0x8AFC, offset: 0x38F0E, size: 0x8, addend: 0x0, symName: __ZNSt3__116allocator_traitsINS_9allocatorI6GColorEEE8max_sizeB8ue170006IS3_vEEmRKS3_, symObjAddr: 0x18E0, symBinAddr: 0x100024BF8, symSize: 0x24 }
  - { offsetInCU: 0x8B2A, offset: 0x38F3C, size: 0x8, addend: 0x0, symName: __ZNKSt3__16vectorI6GColorNS_9allocatorIS1_EEE7__allocB8ue170006Ev, symObjAddr: 0x1904, symBinAddr: 0x100024C1C, symSize: 0x28 }
  - { offsetInCU: 0x8B5E, offset: 0x38F70, size: 0x8, addend: 0x0, symName: __ZNKSt3__19allocatorI6GColorE8max_sizeB8ue170006Ev, symObjAddr: 0x19C8, symBinAddr: 0x100024C44, symSize: 0x14 }
  - { offsetInCU: 0x8B81, offset: 0x38F93, size: 0x8, addend: 0x0, symName: __ZNKSt3__117__compressed_pairIP6GColorNS_9allocatorIS1_EEE6secondB8ue170006Ev, symObjAddr: 0x19DC, symBinAddr: 0x100024C58, symSize: 0x24 }
  - { offsetInCU: 0x8BA6, offset: 0x38FB8, size: 0x8, addend: 0x0, symName: __ZNKSt3__122__compressed_pair_elemINS_9allocatorI6GColorEELi1ELb1EE5__getB8ue170006Ev, symObjAddr: 0x1A00, symBinAddr: 0x100024C7C, symSize: 0x14 }
  - { offsetInCU: 0x8BC9, offset: 0x38FDB, size: 0x8, addend: 0x0, symName: __ZNKSt3__16vectorI6GColorNS_9allocatorIS1_EEE9__end_capB8ue170006Ev, symObjAddr: 0x1B00, symBinAddr: 0x100024C90, symSize: 0x28 }
  - { offsetInCU: 0x8BED, offset: 0x38FFF, size: 0x8, addend: 0x0, symName: __ZNKSt3__117__compressed_pairIP6GColorNS_9allocatorIS1_EEE5firstB8ue170006Ev, symObjAddr: 0x1B28, symBinAddr: 0x100024CB8, symSize: 0x24 }
  - { offsetInCU: 0x8C12, offset: 0x39024, size: 0x8, addend: 0x0, symName: __ZNKSt3__122__compressed_pair_elemIP6GColorLi0ELb0EE5__getB8ue170006Ev, symObjAddr: 0x1B4C, symBinAddr: 0x100024CDC, symSize: 0x14 }
  - { offsetInCU: 0x8C36, offset: 0x39048, size: 0x8, addend: 0x0, symName: __ZNSt3__114__split_bufferI6GColorRNS_9allocatorIS1_EEEC2EmmS4_, symObjAddr: 0x1BB4, symBinAddr: 0x100024CF0, symSize: 0xD4 }
  - { offsetInCU: 0x8CA9, offset: 0x390BB, size: 0x8, addend: 0x0, symName: __ZNSt3__117__compressed_pairIP6GColorRNS_9allocatorIS1_EEEC1B8ue170006IDnS5_EEOT_OT0_, symObjAddr: 0x1C88, symBinAddr: 0x100024DC4, symSize: 0x3C }
  - { offsetInCU: 0x8CFF, offset: 0x39111, size: 0x8, addend: 0x0, symName: __ZNSt3__114__split_bufferI6GColorRNS_9allocatorIS1_EEE7__allocB8ue170006Ev, symObjAddr: 0x1D04, symBinAddr: 0x100024E40, symSize: 0x28 }
  - { offsetInCU: 0x8D23, offset: 0x39135, size: 0x8, addend: 0x0, symName: __ZNSt3__114__split_bufferI6GColorRNS_9allocatorIS1_EEE9__end_capB8ue170006Ev, symObjAddr: 0x1D2C, symBinAddr: 0x100024E68, symSize: 0x28 }
  - { offsetInCU: 0x8D48, offset: 0x3915A, size: 0x8, addend: 0x0, symName: __ZNSt3__117__compressed_pairIP6GColorRNS_9allocatorIS1_EEEC2B8ue170006IDnS5_EEOT_OT0_, symObjAddr: 0x1D54, symBinAddr: 0x100024E90, symSize: 0x48 }
  - { offsetInCU: 0x8D9F, offset: 0x391B1, size: 0x8, addend: 0x0, symName: __ZNSt3__122__compressed_pair_elemIRNS_9allocatorI6GColorEELi1ELb0EEC2B8ue170006IS4_vEEOT_, symObjAddr: 0x1D9C, symBinAddr: 0x100024ED8, symSize: 0x20 }
  - { offsetInCU: 0x8DDF, offset: 0x391F1, size: 0x8, addend: 0x0, symName: __ZNSt3__19allocatorI6GColorE8allocateB8ue170006Em, symObjAddr: 0x1DBC, symBinAddr: 0x100024EF8, symSize: 0x58 }
  - { offsetInCU: 0x8E11, offset: 0x39223, size: 0x8, addend: 0x0, symName: __ZNSt3__117__compressed_pairIP6GColorRNS_9allocatorIS1_EEE6secondB8ue170006Ev, symObjAddr: 0x1F18, symBinAddr: 0x100024F50, symSize: 0x28 }
  - { offsetInCU: 0x8E36, offset: 0x39248, size: 0x8, addend: 0x0, symName: __ZNSt3__122__compressed_pair_elemIRNS_9allocatorI6GColorEELi1ELb0EE5__getB8ue170006Ev, symObjAddr: 0x1F40, symBinAddr: 0x100024F78, symSize: 0x18 }
  - { offsetInCU: 0x8E59, offset: 0x3926B, size: 0x8, addend: 0x0, symName: __ZNSt3__117__compressed_pairIP6GColorRNS_9allocatorIS1_EEE5firstB8ue170006Ev, symObjAddr: 0x1F58, symBinAddr: 0x100024F90, symSize: 0x24 }
  - { offsetInCU: 0x8E7D, offset: 0x3928F, size: 0x8, addend: 0x0, symName: __ZNKSt3__16vectorI6GColorNS_9allocatorIS1_EEE17__annotate_deleteB8ue170006Ev, symObjAddr: 0x1F7C, symBinAddr: 0x100024FB4, symSize: 0xB8 }
  - { offsetInCU: 0x8EA2, offset: 0x392B4, size: 0x8, addend: 0x0, symName: __ZNSt3__116reverse_iteratorIP6GColorEC1B8ue170006ES2_, symObjAddr: 0x20AC, symBinAddr: 0x1000250E4, symSize: 0x34 }
  - { offsetInCU: 0x8ED9, offset: 0x392EB, size: 0x8, addend: 0x0, symName: __ZNKSt3__116reverse_iteratorIP6GColorE4baseB8ue170006Ev, symObjAddr: 0x20E0, symBinAddr: 0x100025118, symSize: 0x18 }
  - { offsetInCU: 0x8EFC, offset: 0x3930E, size: 0x8, addend: 0x0, symName: __ZNKSt3__16vectorI6GColorNS_9allocatorIS1_EEE14__annotate_newB8ue170006Em, symObjAddr: 0x2134, symBinAddr: 0x10002516C, symSize: 0xAC }
  - { offsetInCU: 0x8F31, offset: 0x39343, size: 0x8, addend: 0x0, symName: __ZNKSt3__16vectorI6GColorNS_9allocatorIS1_EEE31__annotate_contiguous_containerB8ue170006EPKvS6_S6_S6_, symObjAddr: 0x21E0, symBinAddr: 0x100025218, symSize: 0x20 }
  - { offsetInCU: 0x8F84, offset: 0x39396, size: 0x8, addend: 0x0, symName: __ZNKSt3__16vectorI6GColorNS_9allocatorIS1_EEE4dataB8ue170006Ev, symObjAddr: 0x2200, symBinAddr: 0x100025238, symSize: 0x28 }
  - { offsetInCU: 0x8FCC, offset: 0x393DE, size: 0x8, addend: 0x0, symName: __ZNKSt3__111__move_loopINS_17_ClassicAlgPolicyEEclB8ue170006INS_16reverse_iteratorIP6GColorEES7_S7_EENS_4pairIT_T1_EES9_T0_SA_, symObjAddr: 0x2518, symBinAddr: 0x100025550, symSize: 0xA0 }
  - { offsetInCU: 0x903C, offset: 0x3944E, size: 0x8, addend: 0x0, symName: __ZNSt3__18_IterOpsINS_17_ClassicAlgPolicyEE11__iter_moveB8ue170006IRNS_16reverse_iteratorIP6GColorEEEENS_9enable_ifIXsr12is_referenceIDTdeclsr3stdE7declvalIRT_EEEEE5valueEDTclsr3stdE4movedeclsr3stdE7declvalISB_EEEEE4typeEOSA_, symObjAddr: 0x274C, symBinAddr: 0x100025784, symSize: 0x28 }
  - { offsetInCU: 0x9068, offset: 0x3947A, size: 0x8, addend: 0x0, symName: __ZNKSt3__116reverse_iteratorIP6GColorEdeB8ue170006Ev, symObjAddr: 0x2774, symBinAddr: 0x1000257AC, symSize: 0x28 }
  - { offsetInCU: 0x909A, offset: 0x394AC, size: 0x8, addend: 0x0, symName: __ZNSt3__116reverse_iteratorIP6GColorEppB8ue170006Ev, symObjAddr: 0x279C, symBinAddr: 0x1000257D4, symSize: 0x20 }
  - { offsetInCU: 0x90BE, offset: 0x394D0, size: 0x8, addend: 0x0, symName: __ZNSt3__18_IterOpsINS_17_ClassicAlgPolicyEE25__validate_iter_referenceB8ue170006IRNS_16reverse_iteratorIP6GColorEEEEvv, symObjAddr: 0x27BC, symBinAddr: 0x1000257F4, symSize: 0x4 }
  - { offsetInCU: 0x90DC, offset: 0x394EE, size: 0x8, addend: 0x0, symName: __ZNSt3__118__unwrap_iter_implINS_16reverse_iteratorIP6GColorEELb0EE8__unwrapB8ue170006ES4_, symObjAddr: 0x27C0, symBinAddr: 0x1000257F8, symSize: 0x24 }
  - { offsetInCU: 0x9105, offset: 0x39517, size: 0x8, addend: 0x0, symName: __ZNSt3__14pairINS_16reverse_iteratorIP6GColorEES4_EC1B8ue170006IS4_S4_LPv0EEEOT_OT0_, symObjAddr: 0x27E4, symBinAddr: 0x10002581C, symSize: 0x3C }
  - { offsetInCU: 0x9163, offset: 0x39575, size: 0x8, addend: 0x0, symName: __ZNSt3__14pairINS_16reverse_iteratorIP6GColorEES4_EC2B8ue170006IS4_S4_LPv0EEEOT_OT0_, symObjAddr: 0x2820, symBinAddr: 0x100025858, symSize: 0x34 }
  - { offsetInCU: 0x91C1, offset: 0x395D3, size: 0x8, addend: 0x0, symName: __ZNSt3__118__unwrap_iter_implINS_16reverse_iteratorIP6GColorEELb0EE8__rewrapB8ue170006ES4_S4_, symObjAddr: 0x2854, symBinAddr: 0x10002588C, symSize: 0x2C }
  - { offsetInCU: 0x91EF, offset: 0x39601, size: 0x8, addend: 0x0, symName: __ZNSt3__116reverse_iteratorIP6GColorEC2B8ue170006ES2_, symObjAddr: 0x2880, symBinAddr: 0x1000258B8, symSize: 0x28 }
  - { offsetInCU: 0x9226, offset: 0x39638, size: 0x8, addend: 0x0, symName: __ZNSt3__114__split_bufferI6GColorRNS_9allocatorIS1_EEED2Ev, symObjAddr: 0x28A8, symBinAddr: 0x1000258E0, symSize: 0x8C }
  - { offsetInCU: 0x9250, offset: 0x39662, size: 0x8, addend: 0x0, symName: __ZNSt3__114__split_bufferI6GColorRNS_9allocatorIS1_EEE5clearB8ue170006Ev, symObjAddr: 0x2934, symBinAddr: 0x10002596C, symSize: 0x28 }
  - { offsetInCU: 0x9275, offset: 0x39687, size: 0x8, addend: 0x0, symName: __ZNSt3__116allocator_traitsINS_9allocatorI6GColorEEE10deallocateB8ue170006ERS3_PS2_m, symObjAddr: 0x295C, symBinAddr: 0x100025994, symSize: 0x34 }
  - { offsetInCU: 0x92B9, offset: 0x396CB, size: 0x8, addend: 0x0, symName: __ZNKSt3__114__split_bufferI6GColorRNS_9allocatorIS1_EEE8capacityB8ue170006Ev, symObjAddr: 0x2990, symBinAddr: 0x1000259C8, symSize: 0x40 }
  - { offsetInCU: 0x92DD, offset: 0x396EF, size: 0x8, addend: 0x0, symName: __ZNSt3__114__split_bufferI6GColorRNS_9allocatorIS1_EEE17__destruct_at_endB8ue170006EPS1_, symObjAddr: 0x29D0, symBinAddr: 0x100025A08, symSize: 0x2C }
  - { offsetInCU: 0x930F, offset: 0x39721, size: 0x8, addend: 0x0, symName: __ZNSt3__114__split_bufferI6GColorRNS_9allocatorIS1_EEE17__destruct_at_endB8ue170006EPS1_NS_17integral_constantIbLb0EEE, symObjAddr: 0x29FC, symBinAddr: 0x100025A34, symSize: 0x80 }
  - { offsetInCU: 0x9350, offset: 0x39762, size: 0x8, addend: 0x0, symName: __ZNSt3__116allocator_traitsINS_9allocatorI6GColorEEE7destroyB8ue170006IS2_vEEvRS3_PT_, symObjAddr: 0x2A7C, symBinAddr: 0x100025AB4, symSize: 0x2C }
  - { offsetInCU: 0x938F, offset: 0x397A1, size: 0x8, addend: 0x0, symName: __ZNSt3__19allocatorI6GColorE7destroyB8ue170006EPS1_, symObjAddr: 0x2AA8, symBinAddr: 0x100025AE0, symSize: 0x14 }
  - { offsetInCU: 0x93C0, offset: 0x397D2, size: 0x8, addend: 0x0, symName: __ZNSt3__19allocatorI6GColorE10deallocateB8ue170006EPS1_m, symObjAddr: 0x2ABC, symBinAddr: 0x100025AF4, symSize: 0x40 }
  - { offsetInCU: 0x9400, offset: 0x39812, size: 0x8, addend: 0x0, symName: __ZNKSt3__114__split_bufferI6GColorRNS_9allocatorIS1_EEE9__end_capB8ue170006Ev, symObjAddr: 0x2C04, symBinAddr: 0x100025B34, symSize: 0x28 }
  - { offsetInCU: 0x9424, offset: 0x39836, size: 0x8, addend: 0x0, symName: __ZNKSt3__117__compressed_pairIP6GColorRNS_9allocatorIS1_EEE5firstB8ue170006Ev, symObjAddr: 0x2C2C, symBinAddr: 0x100025B5C, symSize: 0x24 }
  - { offsetInCU: 0x9462, offset: 0x39874, size: 0x8, addend: 0x0, symName: __ZNSt3__16vectorI6GColorNS_9allocatorIS1_EEED2B8ue170006Ev, symObjAddr: 0x4430, symBinAddr: 0x100025B80, symSize: 0x44 }
  - { offsetInCU: 0x948B, offset: 0x3989D, size: 0x8, addend: 0x0, symName: __ZNSt3__16vectorI6GColorNS_9allocatorIS1_EEE16__destroy_vectorC1B8ue170006ERS4_, symObjAddr: 0x4474, symBinAddr: 0x100025BC4, symSize: 0x34 }
  - { offsetInCU: 0x94C3, offset: 0x398D5, size: 0x8, addend: 0x0, symName: __ZNSt3__16vectorI6GColorNS_9allocatorIS1_EEE16__destroy_vectorclB8ue170006Ev, symObjAddr: 0x44A8, symBinAddr: 0x100025BF8, symSize: 0x90 }
  - { offsetInCU: 0x94E8, offset: 0x398FA, size: 0x8, addend: 0x0, symName: __ZNSt3__16vectorI6GColorNS_9allocatorIS1_EEE16__destroy_vectorC2B8ue170006ERS4_, symObjAddr: 0x4538, symBinAddr: 0x100025C88, symSize: 0x20 }
  - { offsetInCU: 0x9520, offset: 0x39932, size: 0x8, addend: 0x0, symName: __ZNSt3__16vectorI6GColorNS_9allocatorIS1_EEE7__clearB8ue170006Ev, symObjAddr: 0x4558, symBinAddr: 0x100025CA8, symSize: 0x28 }
  - { offsetInCU: 0x9544, offset: 0x39956, size: 0x8, addend: 0x0, symName: __ZNSt3__16vectorI6GColorNS_9allocatorIS1_EEE22__base_destruct_at_endB8ue170006EPS1_, symObjAddr: 0x4580, symBinAddr: 0x100025CD0, symSize: 0x8C }
  - { offsetInCU: 0x9589, offset: 0x3999B, size: 0x8, addend: 0x0, symName: __ZN7VoronoiD2Ev, symObjAddr: 0x46B8, symBinAddr: 0x100025D5C, symSize: 0x54 }
  - { offsetInCU: 0x95B4, offset: 0x399C6, size: 0x8, addend: 0x0, symName: __ZL11GFloorToIntf, symObjAddr: 0x47F8, symBinAddr: 0x100025DB0, symSize: 0x18 }
  - { offsetInCU: 0x95DF, offset: 0x399F1, size: 0x8, addend: 0x0, symName: __ZN7Voronoi3sdcEff, symObjAddr: 0x4898, symBinAddr: 0x100025E20, symSize: 0x134 }
  - { offsetInCU: 0x9673, offset: 0x39A85, size: 0x8, addend: 0x0, symName: __ZN7Voronoi9color2PixERK6GColor, symObjAddr: 0x49CC, symBinAddr: 0x100025F54, symSize: 0xC0 }
  - { offsetInCU: 0x96E3, offset: 0x39AF5, size: 0x8, addend: 0x0, symName: __ZNKSt3__16__lessIvvEclB8ue170006IiiEEbRKT_RKT0_, symObjAddr: 0x4B18, symBinAddr: 0x100026068, symSize: 0x34 }
  - { offsetInCU: 0x9735, offset: 0x39B47, size: 0x8, addend: 0x0, symName: __ZNSt3__16vectorI6GPointNS_9allocatorIS1_EEEixB8ue170006Em, symObjAddr: 0x4BDC, symBinAddr: 0x10002612C, symSize: 0x24 }
  - { offsetInCU: 0x976C, offset: 0x39B7E, size: 0x8, addend: 0x0, symName: __ZNSt3__16vectorI6GColorNS_9allocatorIS1_EEEixB8ue170006Em, symObjAddr: 0x4C00, symBinAddr: 0x100026150, symSize: 0x24 }
  - { offsetInCU: 0x97A3, offset: 0x39BB5, size: 0x8, addend: 0x0, symName: __ZL11GRoundToIntf, symObjAddr: 0x4C24, symBinAddr: 0x100026174, symSize: 0x20 }
  - { offsetInCU: 0x97CF, offset: 0x39BE1, size: 0x8, addend: 0x0, symName: __ZL15GPixel_PackARGBjjjj, symObjAddr: 0x4C44, symBinAddr: 0x100026194, symSize: 0x134 }
  - { offsetInCU: 0x9825, offset: 0x39C37, size: 0x8, addend: 0x0, symName: __ZNSt3__110unique_ptrI7GShaderNS_14default_deleteIS1_EEEC2B8ue170006ILb1EvEEPS1_, symObjAddr: 0x4D78, symBinAddr: 0x1000262C8, symSize: 0x44 }
  - { offsetInCU: 0x986D, offset: 0x39C7F, size: 0x8, addend: 0x0, symName: __ZNSt3__117__compressed_pairIP7GShaderNS_14default_deleteIS1_EEEC1B8ue170006IRS2_NS_16__value_init_tagEEEOT_OT0_, symObjAddr: 0x4DBC, symBinAddr: 0x10002630C, symSize: 0x3C }
  - { offsetInCU: 0x98C4, offset: 0x39CD6, size: 0x8, addend: 0x0, symName: __ZNSt3__117__compressed_pairIP7GShaderNS_14default_deleteIS1_EEEC2B8ue170006IRS2_NS_16__value_init_tagEEEOT_OT0_, symObjAddr: 0x4DF8, symBinAddr: 0x100026348, symSize: 0x40 }
  - { offsetInCU: 0x991B, offset: 0x39D2D, size: 0x8, addend: 0x0, symName: __ZNSt3__122__compressed_pair_elemIP7GShaderLi0ELb0EEC2B8ue170006IRS2_vEEOT_, symObjAddr: 0x4E38, symBinAddr: 0x100026388, symSize: 0x24 }
  - { offsetInCU: 0x995C, offset: 0x39D6E, size: 0x8, addend: 0x0, symName: __ZNSt3__122__compressed_pair_elemINS_14default_deleteI7GShaderEELi1ELb1EEC2B8ue170006ENS_16__value_init_tagE, symObjAddr: 0x4E5C, symBinAddr: 0x1000263AC, symSize: 0x14 }
  - { offsetInCU: 0x9990, offset: 0x39DA2, size: 0x8, addend: 0x0, symName: __ZNSt3__110shared_ptrI7GShaderEC2B8ue170006IS1_NS_14default_deleteIS1_EEvEEONS_10unique_ptrIT_T0_EE, symObjAddr: 0x4E70, symBinAddr: 0x1000263C0, symSize: 0x128 }
  - { offsetInCU: 0x99DB, offset: 0x39DED, size: 0x8, addend: 0x0, symName: __ZNKSt3__110unique_ptrI7GShaderNS_14default_deleteIS1_EEE3getB8ue170006Ev, symObjAddr: 0x4F98, symBinAddr: 0x1000264E8, symSize: 0x28 }
  - { offsetInCU: 0x99FF, offset: 0x39E11, size: 0x8, addend: 0x0, symName: __ZNSt3__110unique_ptrI7GShaderNS_14default_deleteIS1_EEE11get_deleterB8ue170006Ev, symObjAddr: 0x4FC0, symBinAddr: 0x100026510, symSize: 0x24 }
  - { offsetInCU: 0x9A3D, offset: 0x39E4F, size: 0x8, addend: 0x0, symName: __ZNSt3__19allocatorI7GShaderEC1B8ue170006Ev, symObjAddr: 0x4FE4, symBinAddr: 0x100026534, symSize: 0x2C }
  - { offsetInCU: 0x9AC5, offset: 0x39ED7, size: 0x8, addend: 0x0, symName: __ZNSt3__120__shared_ptr_pointerIP7GShaderNS_14default_deleteIS1_EENS_9allocatorIS1_EEEC1B8ue170006ES2_S4_S6_, symObjAddr: 0x5010, symBinAddr: 0x100026560, symSize: 0x34 }
  - { offsetInCU: 0x9B17, offset: 0x39F29, size: 0x8, addend: 0x0, symName: __ZNSt3__110unique_ptrI7GShaderNS_14default_deleteIS1_EEE7releaseB8ue170006Ev, symObjAddr: 0x50C0, symBinAddr: 0x100026610, symSize: 0x44 }
  - { offsetInCU: 0x9B4B, offset: 0x39F5D, size: 0x8, addend: 0x0, symName: __ZNKSt3__117__compressed_pairIP7GShaderNS_14default_deleteIS1_EEE5firstB8ue170006Ev, symObjAddr: 0x5104, symBinAddr: 0x100026654, symSize: 0x24 }
  - { offsetInCU: 0x9B70, offset: 0x39F82, size: 0x8, addend: 0x0, symName: __ZNKSt3__122__compressed_pair_elemIP7GShaderLi0ELb0EE5__getB8ue170006Ev, symObjAddr: 0x5128, symBinAddr: 0x100026678, symSize: 0x14 }
  - { offsetInCU: 0x9B93, offset: 0x39FA5, size: 0x8, addend: 0x0, symName: __ZNSt3__117__compressed_pairIP7GShaderNS_14default_deleteIS1_EEE6secondB8ue170006Ev, symObjAddr: 0x513C, symBinAddr: 0x10002668C, symSize: 0x24 }
  - { offsetInCU: 0x9BB8, offset: 0x39FCA, size: 0x8, addend: 0x0, symName: __ZNSt3__122__compressed_pair_elemINS_14default_deleteI7GShaderEELi1ELb1EE5__getB8ue170006Ev, symObjAddr: 0x5160, symBinAddr: 0x1000266B0, symSize: 0x14 }
  - { offsetInCU: 0x9BDC, offset: 0x39FEE, size: 0x8, addend: 0x0, symName: __ZNSt3__19allocatorI7GShaderEC2B8ue170006Ev, symObjAddr: 0x5174, symBinAddr: 0x1000266C4, symSize: 0x2C }
  - { offsetInCU: 0x9C05, offset: 0x3A017, size: 0x8, addend: 0x0, symName: __ZNSt3__116__non_trivial_ifILb1ENS_9allocatorI7GShaderEEEC2B8ue170006Ev, symObjAddr: 0x51A0, symBinAddr: 0x1000266F0, symSize: 0x14 }
  - { offsetInCU: 0x9C2E, offset: 0x3A040, size: 0x8, addend: 0x0, symName: __ZNSt3__120__shared_ptr_pointerIP7GShaderNS_14default_deleteIS1_EENS_9allocatorIS1_EEEC2B8ue170006ES2_S4_S6_, symObjAddr: 0x51B4, symBinAddr: 0x100026704, symSize: 0xA8 }
  - { offsetInCU: 0x9C87, offset: 0x3A099, size: 0x8, addend: 0x0, symName: __ZNSt3__117__compressed_pairIP7GShaderNS_14default_deleteIS1_EEEC1B8ue170006IRS2_S4_EEOT_OT0_, symObjAddr: 0x52B0, symBinAddr: 0x1000267AC, symSize: 0x3C }
  - { offsetInCU: 0x9CEA, offset: 0x3A0FC, size: 0x8, addend: 0x0, symName: __ZNSt3__117__compressed_pairINS0_IP7GShaderNS_14default_deleteIS1_EEEENS_9allocatorIS1_EEEC1B8ue170006IS5_S7_EEOT_OT0_, symObjAddr: 0x52EC, symBinAddr: 0x1000267E8, symSize: 0x3C }
  - { offsetInCU: 0x9D41, offset: 0x3A153, size: 0x8, addend: 0x0, symName: __ZNSt3__120__shared_ptr_pointerIP7GShaderNS_14default_deleteIS1_EENS_9allocatorIS1_EEED1Ev, symObjAddr: 0x5328, symBinAddr: 0x100026824, symSize: 0x2C }
  - { offsetInCU: 0x9D6C, offset: 0x3A17E, size: 0x8, addend: 0x0, symName: __ZNSt3__120__shared_ptr_pointerIP7GShaderNS_14default_deleteIS1_EENS_9allocatorIS1_EEED0Ev, symObjAddr: 0x5354, symBinAddr: 0x100026850, symSize: 0x30 }
  - { offsetInCU: 0x9D96, offset: 0x3A1A8, size: 0x8, addend: 0x0, symName: __ZNSt3__120__shared_ptr_pointerIP7GShaderNS_14default_deleteIS1_EENS_9allocatorIS1_EEE16__on_zero_sharedEv, symObjAddr: 0x5384, symBinAddr: 0x100026880, symSize: 0x64 }
  - { offsetInCU: 0x9DBE, offset: 0x3A1D0, size: 0x8, addend: 0x0, symName: __ZNKSt3__120__shared_ptr_pointerIP7GShaderNS_14default_deleteIS1_EENS_9allocatorIS1_EEE13__get_deleterERKSt9type_info, symObjAddr: 0x53E8, symBinAddr: 0x1000268E4, symSize: 0x68 }
  - { offsetInCU: 0x9DF1, offset: 0x3A203, size: 0x8, addend: 0x0, symName: __ZNSt3__120__shared_ptr_pointerIP7GShaderNS_14default_deleteIS1_EENS_9allocatorIS1_EEE21__on_zero_shared_weakEv, symObjAddr: 0x5450, symBinAddr: 0x10002694C, symSize: 0x60 }
  - { offsetInCU: 0x9E35, offset: 0x3A247, size: 0x8, addend: 0x0, symName: __ZNSt3__117__compressed_pairIP7GShaderNS_14default_deleteIS1_EEEC2B8ue170006IRS2_S4_EEOT_OT0_, symObjAddr: 0x54E0, symBinAddr: 0x1000269AC, symSize: 0x44 }
  - { offsetInCU: 0x9E8C, offset: 0x3A29E, size: 0x8, addend: 0x0, symName: __ZNSt3__122__compressed_pair_elemINS_14default_deleteI7GShaderEELi1ELb1EEC2B8ue170006IS3_vEEOT_, symObjAddr: 0x5524, symBinAddr: 0x1000269F0, symSize: 0x18 }
  - { offsetInCU: 0x9ECD, offset: 0x3A2DF, size: 0x8, addend: 0x0, symName: __ZNSt3__117__compressed_pairINS0_IP7GShaderNS_14default_deleteIS1_EEEENS_9allocatorIS1_EEEC2B8ue170006IS5_S7_EEOT_OT0_, symObjAddr: 0x553C, symBinAddr: 0x100026A08, symSize: 0x44 }
  - { offsetInCU: 0x9F24, offset: 0x3A336, size: 0x8, addend: 0x0, symName: __ZNSt3__122__compressed_pair_elemINS_17__compressed_pairIP7GShaderNS_14default_deleteIS2_EEEELi0ELb0EEC2B8ue170006IS6_vEEOT_, symObjAddr: 0x5580, symBinAddr: 0x100026A4C, symSize: 0x24 }
  - { offsetInCU: 0x9F65, offset: 0x3A377, size: 0x8, addend: 0x0, symName: __ZNSt3__122__compressed_pair_elemINS_9allocatorI7GShaderEELi1ELb1EEC2B8ue170006IS3_vEEOT_, symObjAddr: 0x55A4, symBinAddr: 0x100026A70, symSize: 0x18 }
  - { offsetInCU: 0x9FA6, offset: 0x3A3B8, size: 0x8, addend: 0x0, symName: __ZNSt3__120__shared_ptr_pointerIP7GShaderNS_14default_deleteIS1_EENS_9allocatorIS1_EEED2Ev, symObjAddr: 0x55BC, symBinAddr: 0x100026A88, symSize: 0x2C }
  - { offsetInCU: 0x9FD0, offset: 0x3A3E2, size: 0x8, addend: 0x0, symName: __ZNSt3__117__compressed_pairINS0_IP7GShaderNS_14default_deleteIS1_EEEENS_9allocatorIS1_EEE5firstB8ue170006Ev, symObjAddr: 0x55E8, symBinAddr: 0x100026AB4, symSize: 0x24 }
  - { offsetInCU: 0x9FF4, offset: 0x3A406, size: 0x8, addend: 0x0, symName: __ZNKSt3__114default_deleteI7GShaderEclB8ue170006EPS1_, symObjAddr: 0x560C, symBinAddr: 0x100026AD8, symSize: 0x4C }
  - { offsetInCU: 0xA026, offset: 0x3A438, size: 0x8, addend: 0x0, symName: __ZNSt3__117__compressed_pairIP7GShaderNS_14default_deleteIS1_EEE5firstB8ue170006Ev, symObjAddr: 0x5658, symBinAddr: 0x100026B24, symSize: 0x24 }
  - { offsetInCU: 0xA04B, offset: 0x3A45D, size: 0x8, addend: 0x0, symName: __ZNSt3__122__compressed_pair_elemINS_17__compressed_pairIP7GShaderNS_14default_deleteIS2_EEEELi0ELb0EE5__getB8ue170006Ev, symObjAddr: 0x567C, symBinAddr: 0x100026B48, symSize: 0x14 }
  - { offsetInCU: 0xA06F, offset: 0x3A481, size: 0x8, addend: 0x0, symName: __ZNSt3__122__compressed_pair_elemIP7GShaderLi0ELb0EE5__getB8ue170006Ev, symObjAddr: 0x5690, symBinAddr: 0x100026B5C, symSize: 0x14 }
  - { offsetInCU: 0xA0C8, offset: 0x3A4DA, size: 0x8, addend: 0x0, symName: __ZNKSt9type_infoeqB8ue170006ERKS_, symObjAddr: 0x56A4, symBinAddr: 0x100026B70, symSize: 0xDC }
  - { offsetInCU: 0xA165, offset: 0x3A577, size: 0x8, addend: 0x0, symName: __ZNKSt3__117__compressed_pairINS0_IP7GShaderNS_14default_deleteIS1_EEEENS_9allocatorIS1_EEE5firstB8ue170006Ev, symObjAddr: 0x5780, symBinAddr: 0x100026C4C, symSize: 0x24 }
  - { offsetInCU: 0xA189, offset: 0x3A59B, size: 0x8, addend: 0x0, symName: __ZNKSt3__117__compressed_pairIP7GShaderNS_14default_deleteIS1_EEE6secondB8ue170006Ev, symObjAddr: 0x57A4, symBinAddr: 0x100026C70, symSize: 0x24 }
  - { offsetInCU: 0xA1AE, offset: 0x3A5C0, size: 0x8, addend: 0x0, symName: __ZNSt27__type_info_implementations30__non_unique_arm_rtti_bit_impl21__is_type_name_uniqueB8ue170006Em, symObjAddr: 0x57C8, symBinAddr: 0x100026C94, symSize: 0x20 }
  - { offsetInCU: 0xA1D3, offset: 0x3A5E5, size: 0x8, addend: 0x0, symName: __ZNKSt3__122__compressed_pair_elemINS_17__compressed_pairIP7GShaderNS_14default_deleteIS2_EEEELi0ELb0EE5__getB8ue170006Ev, symObjAddr: 0x57E8, symBinAddr: 0x100026CB4, symSize: 0x14 }
  - { offsetInCU: 0xA1F7, offset: 0x3A609, size: 0x8, addend: 0x0, symName: __ZNKSt3__122__compressed_pair_elemINS_14default_deleteI7GShaderEELi1ELb1EE5__getB8ue170006Ev, symObjAddr: 0x57FC, symBinAddr: 0x100026CC8, symSize: 0x14 }
  - { offsetInCU: 0xA21A, offset: 0x3A62C, size: 0x8, addend: 0x0, symName: __ZNSt3__117__compressed_pairINS0_IP7GShaderNS_14default_deleteIS1_EEEENS_9allocatorIS1_EEE6secondB8ue170006Ev, symObjAddr: 0x5810, symBinAddr: 0x100026CDC, symSize: 0x24 }
  - { offsetInCU: 0xA267, offset: 0x3A679, size: 0x8, addend: 0x0, symName: __ZNSt3__19allocatorINS_20__shared_ptr_pointerIP7GShaderNS_14default_deleteIS2_EENS0_IS2_EEEEEC1B8ue170006IS2_EERKNS0_IT_EE, symObjAddr: 0x5834, symBinAddr: 0x100026D00, symSize: 0x34 }
  - { offsetInCU: 0xA2A3, offset: 0x3A6B5, size: 0x8, addend: 0x0, symName: __ZNSt3__19allocatorINS_20__shared_ptr_pointerIP7GShaderNS_14default_deleteIS2_EENS0_IS2_EEEEE10deallocateB8ue170006EPS7_m, symObjAddr: 0x5868, symBinAddr: 0x100026D34, symSize: 0x40 }
  - { offsetInCU: 0xA2E4, offset: 0x3A6F6, size: 0x8, addend: 0x0, symName: __ZNSt3__114pointer_traitsIPNS_20__shared_ptr_pointerIP7GShaderNS_14default_deleteIS2_EENS_9allocatorIS2_EEEEE10pointer_toB8ue170006ERS8_, symObjAddr: 0x58A8, symBinAddr: 0x100026D74, symSize: 0x14 }
  - { offsetInCU: 0xA307, offset: 0x3A719, size: 0x8, addend: 0x0, symName: __ZNSt3__122__compressed_pair_elemINS_9allocatorI7GShaderEELi1ELb1EE5__getB8ue170006Ev, symObjAddr: 0x58BC, symBinAddr: 0x100026D88, symSize: 0x14 }
  - { offsetInCU: 0xA32B, offset: 0x3A73D, size: 0x8, addend: 0x0, symName: __ZNSt3__19allocatorINS_20__shared_ptr_pointerIP7GShaderNS_14default_deleteIS2_EENS0_IS2_EEEEEC2B8ue170006IS2_EERKNS0_IT_EE, symObjAddr: 0x58D0, symBinAddr: 0x100026D9C, symSize: 0x30 }
  - { offsetInCU: 0xA368, offset: 0x3A77A, size: 0x8, addend: 0x0, symName: __ZNSt3__116__non_trivial_ifILb1ENS_9allocatorINS_20__shared_ptr_pointerIP7GShaderNS_14default_deleteIS3_EENS1_IS3_EEEEEEEC2B8ue170006Ev, symObjAddr: 0x5900, symBinAddr: 0x100026DCC, symSize: 0x14 }
  - { offsetInCU: 0xA390, offset: 0x3A7A2, size: 0x8, addend: 0x0, symName: __ZNKSt3__18weak_ptrI7GShaderE7expiredB8ue170006Ev, symObjAddr: 0x5914, symBinAddr: 0x100026DE0, symSize: 0x64 }
  - { offsetInCU: 0xA3B5, offset: 0x3A7C7, size: 0x8, addend: 0x0, symName: __ZNSt3__110shared_ptrI7GShaderEC1B8ue170006IS1_EERKNS0_IT_EEPS1_, symObjAddr: 0x5978, symBinAddr: 0x100026E44, symSize: 0x3C }
  - { offsetInCU: 0xA406, offset: 0x3A818, size: 0x8, addend: 0x0, symName: __ZNSt3__18weak_ptrI7GShaderEaSIS1_EENS_9enable_ifIXsr17__compatible_withIT_S1_EE5valueERS2_E4typeERKNS_10shared_ptrIS5_EE, symObjAddr: 0x59B4, symBinAddr: 0x100026E80, symSize: 0x54 }
  - { offsetInCU: 0xA447, offset: 0x3A859, size: 0x8, addend: 0x0, symName: __ZNSt3__110shared_ptrI7GShaderED1B8ue170006Ev, symObjAddr: 0x5A08, symBinAddr: 0x100026ED4, symSize: 0x2C }
  - { offsetInCU: 0xA470, offset: 0x3A882, size: 0x8, addend: 0x0, symName: __ZNSt3__110shared_ptrI7GShaderEC2B8ue170006IS1_EERKNS0_IT_EEPS1_, symObjAddr: 0x5AB4, symBinAddr: 0x100026F00, symSize: 0x70 }
  - { offsetInCU: 0xA4C2, offset: 0x3A8D4, size: 0x8, addend: 0x0, symName: __ZNSt3__18weak_ptrI7GShaderEC1IS1_EERKNS_10shared_ptrIT_EENS_9enable_ifIXsr17__compatible_withIS5_S1_EE5valueEPNS_5__natEE4typeE, symObjAddr: 0x5BA0, symBinAddr: 0x100026F70, symSize: 0x3C }
  - { offsetInCU: 0xA511, offset: 0x3A923, size: 0x8, addend: 0x0, symName: __ZNSt3__18weak_ptrI7GShaderE4swapERS2_, symObjAddr: 0x5BDC, symBinAddr: 0x100026FAC, symSize: 0x44 }
  - { offsetInCU: 0xA549, offset: 0x3A95B, size: 0x8, addend: 0x0, symName: __ZNSt3__18weak_ptrI7GShaderEC2IS1_EERKNS_10shared_ptrIT_EENS_9enable_ifIXsr17__compatible_withIS5_S1_EE5valueEPNS_5__natEE4typeE, symObjAddr: 0x5C20, symBinAddr: 0x100026FF0, symSize: 0x74 }
  - { offsetInCU: 0xA599, offset: 0x3A9AB, size: 0x8, addend: 0x0, symName: __ZNSt3__110shared_ptrI7GShaderED2B8ue170006Ev, symObjAddr: 0x5D34, symBinAddr: 0x1000270A0, symSize: 0x54 }
  - { offsetInCU: 0xA5C2, offset: 0x3A9D4, size: 0x8, addend: 0x0, symName: __ZNSt3__110unique_ptrI7GShaderNS_14default_deleteIS1_EEED2B8ue170006Ev, symObjAddr: 0x5E70, symBinAddr: 0x1000270F4, symSize: 0x30 }
  - { offsetInCU: 0xA5EA, offset: 0x3A9FC, size: 0x8, addend: 0x0, symName: __ZNSt3__110unique_ptrI7GShaderNS_14default_deleteIS1_EEE5resetB8ue170006EPS1_, symObjAddr: 0x5EA0, symBinAddr: 0x100027124, symSize: 0x78 }
  - { offsetInCU: 0xA72F, offset: 0x3AB41, size: 0x8, addend: 0x0, symName: __ZN19SweepGradientShaderC1E6GPointfPK6GColori, symObjAddr: 0x5F18, symBinAddr: 0x10002719C, symSize: 0x54 }
  - { offsetInCU: 0xA790, offset: 0x3ABA2, size: 0x8, addend: 0x0, symName: __ZN19SweepGradientShaderC2E6GPointfPK6GColori, symObjAddr: 0x5F6C, symBinAddr: 0x1000271F0, symSize: 0x10C }
  - { offsetInCU: 0xA80D, offset: 0x3AC1F, size: 0x8, addend: 0x0, symName: __ZN19SweepGradientShaderD1Ev, symObjAddr: 0x6078, symBinAddr: 0x1000272FC, symSize: 0x2C }
  - { offsetInCU: 0xA838, offset: 0x3AC4A, size: 0x8, addend: 0x0, symName: __ZN19SweepGradientShaderD0Ev, symObjAddr: 0x60A4, symBinAddr: 0x100027328, symSize: 0x30 }
  - { offsetInCU: 0xA863, offset: 0x3AC75, size: 0x8, addend: 0x0, symName: __ZN19SweepGradientShader8isOpaqueEv, symObjAddr: 0x60D4, symBinAddr: 0x100027358, symSize: 0x18 }
  - { offsetInCU: 0xA886, offset: 0x3AC98, size: 0x8, addend: 0x0, symName: __ZN19SweepGradientShader10setContextERK7GMatrix, symObjAddr: 0x60EC, symBinAddr: 0x100027370, symSize: 0x94 }
  - { offsetInCU: 0xA8CD, offset: 0x3ACDF, size: 0x8, addend: 0x0, symName: __ZN19SweepGradientShader8shadeRowEiiiPj, symObjAddr: 0x6180, symBinAddr: 0x100027404, symSize: 0x110 }
  - { offsetInCU: 0xA9B7, offset: 0x3ADC9, size: 0x8, addend: 0x0, symName: __ZN19SweepGradientShaderD2Ev, symObjAddr: 0x6290, symBinAddr: 0x100027514, symSize: 0x48 }
  - { offsetInCU: 0xAADB, offset: 0x3AEED, size: 0x8, addend: 0x0, symName: __ZN17LinearPosGradientC1E6GPointS0_PK6GColorPKfi, symObjAddr: 0x62D8, symBinAddr: 0x10002755C, symSize: 0x64 }
  - { offsetInCU: 0xAB4A, offset: 0x3AF5C, size: 0x8, addend: 0x0, symName: __ZN17LinearPosGradientC2E6GPointS0_PK6GColorPKfi, symObjAddr: 0x633C, symBinAddr: 0x1000275C0, symSize: 0xAC }
  - { offsetInCU: 0xABB9, offset: 0x3AFCB, size: 0x8, addend: 0x0, symName: __ZN17LinearPosGradientD1Ev, symObjAddr: 0x63E8, symBinAddr: 0x10002766C, symSize: 0x2C }
  - { offsetInCU: 0xABE4, offset: 0x3AFF6, size: 0x8, addend: 0x0, symName: __ZN17LinearPosGradientD0Ev, symObjAddr: 0x6414, symBinAddr: 0x100027698, symSize: 0x30 }
  - { offsetInCU: 0xAC0F, offset: 0x3B021, size: 0x8, addend: 0x0, symName: __ZN17LinearPosGradient8isOpaqueEv, symObjAddr: 0x6444, symBinAddr: 0x1000276C8, symSize: 0x18 }
  - { offsetInCU: 0xAC32, offset: 0x3B044, size: 0x8, addend: 0x0, symName: __ZN17LinearPosGradient10setContextERK7GMatrix, symObjAddr: 0x645C, symBinAddr: 0x1000276E0, symSize: 0x94 }
  - { offsetInCU: 0xAC79, offset: 0x3B08B, size: 0x8, addend: 0x0, symName: __ZN17LinearPosGradient8shadeRowEiiiPj, symObjAddr: 0x64F0, symBinAddr: 0x100027774, symSize: 0xF8 }
  - { offsetInCU: 0xAD46, offset: 0x3B158, size: 0x8, addend: 0x0, symName: __ZN17LinearPosGradientD2Ev, symObjAddr: 0x65E8, symBinAddr: 0x10002786C, symSize: 0x48 }
  - { offsetInCU: 0xAE40, offset: 0x3B252, size: 0x8, addend: 0x0, symName: __ZN17ColorMatrixShaderC1EP7GShaderRK12GColorMatrix, symObjAddr: 0x6630, symBinAddr: 0x1000278B4, symSize: 0x3C }
  - { offsetInCU: 0xAE85, offset: 0x3B297, size: 0x8, addend: 0x0, symName: __ZN17ColorMatrixShaderC2EP7GShaderRK12GColorMatrix, symObjAddr: 0x666C, symBinAddr: 0x1000278F0, symSize: 0x68 }
  - { offsetInCU: 0xAECA, offset: 0x3B2DC, size: 0x8, addend: 0x0, symName: __ZN17ColorMatrixShaderD1Ev, symObjAddr: 0x66D4, symBinAddr: 0x100027958, symSize: 0x2C }
  - { offsetInCU: 0xAEF5, offset: 0x3B307, size: 0x8, addend: 0x0, symName: __ZN17ColorMatrixShaderD0Ev, symObjAddr: 0x6700, symBinAddr: 0x100027984, symSize: 0x30 }
  - { offsetInCU: 0xAF1F, offset: 0x3B331, size: 0x8, addend: 0x0, symName: __ZN17ColorMatrixShader8isOpaqueEv, symObjAddr: 0x6730, symBinAddr: 0x1000279B4, symSize: 0x34 }
  - { offsetInCU: 0xAF43, offset: 0x3B355, size: 0x8, addend: 0x0, symName: __ZN17ColorMatrixShader10setContextERK7GMatrix, symObjAddr: 0x6764, symBinAddr: 0x1000279E8, symSize: 0x3C }
  - { offsetInCU: 0xAF75, offset: 0x3B387, size: 0x8, addend: 0x0, symName: __ZN17ColorMatrixShader8shadeRowEiiiPj, symObjAddr: 0x67A0, symBinAddr: 0x100027A24, symSize: 0x50 }
  - { offsetInCU: 0xAFD2, offset: 0x3B3E4, size: 0x8, addend: 0x0, symName: __ZN17ColorMatrixShaderD2Ev, symObjAddr: 0x67F0, symBinAddr: 0x100027A74, symSize: 0x2C }
  - { offsetInCU: 0xAFFD, offset: 0x3B40F, size: 0x8, addend: 0x0, symName: __ZNSt3__110shared_ptrI5GPathEC1B8ue170006EDn, symObjAddr: 0x681C, symBinAddr: 0x100027AA0, symSize: 0x34 }
  - { offsetInCU: 0xB032, offset: 0x3B444, size: 0x8, addend: 0x0, symName: __ZNSt3__110shared_ptrI5GPathEC2B8ue170006EDn, symObjAddr: 0x6850, symBinAddr: 0x100027AD4, symSize: 0x20 }
  - { offsetInCU: 0xB067, offset: 0x3B479, size: 0x8, addend: 0x0, symName: __ZNSt3__110unique_ptrI6GFinalNS_14default_deleteIS1_EEEC2B8ue170006ILb1EvEEPS1_, symObjAddr: 0x6870, symBinAddr: 0x100027AF4, symSize: 0x44 }
  - { offsetInCU: 0xB0A9, offset: 0x3B4BB, size: 0x8, addend: 0x0, symName: __ZNSt3__117__compressed_pairIP6GFinalNS_14default_deleteIS1_EEEC1B8ue170006IRS2_NS_16__value_init_tagEEEOT_OT0_, symObjAddr: 0x68B4, symBinAddr: 0x100027B38, symSize: 0x3C }
  - { offsetInCU: 0xB100, offset: 0x3B512, size: 0x8, addend: 0x0, symName: __ZNSt3__117__compressed_pairIP6GFinalNS_14default_deleteIS1_EEEC2B8ue170006IRS2_NS_16__value_init_tagEEEOT_OT0_, symObjAddr: 0x68F0, symBinAddr: 0x100027B74, symSize: 0x40 }
  - { offsetInCU: 0xB157, offset: 0x3B569, size: 0x8, addend: 0x0, symName: __ZNSt3__122__compressed_pair_elemIP6GFinalLi0ELb0EEC2B8ue170006IRS2_vEEOT_, symObjAddr: 0x6930, symBinAddr: 0x100027BB4, symSize: 0x24 }
  - { offsetInCU: 0xB198, offset: 0x3B5AA, size: 0x8, addend: 0x0, symName: __ZNSt3__122__compressed_pair_elemINS_14default_deleteI6GFinalEELi1ELb1EEC2B8ue170006ENS_16__value_init_tagE, symObjAddr: 0x6954, symBinAddr: 0x100027BD8, symSize: 0x14 }
  - { offsetInCU: 0x26, offset: 0x3B6E4, size: 0x8, addend: 0x0, symName: __ZN7GMatrixC2Ev, symObjAddr: 0x0, symBinAddr: 0x100027BEC, symSize: 0x44 }
  - { offsetInCU: 0x5D, offset: 0x3B71B, size: 0x8, addend: 0x0, symName: __ZNSt3__17nulloptE, symObjAddr: 0xBA4, symBinAddr: 0x10004E090, symSize: 0x0 }
  - { offsetInCU: 0x2EAF, offset: 0x3E56D, size: 0x8, addend: 0x0, symName: __ZN7GMatrixC2Ev, symObjAddr: 0x0, symBinAddr: 0x100027BEC, symSize: 0x44 }
  - { offsetInCU: 0x2EDA, offset: 0x3E598, size: 0x8, addend: 0x0, symName: __ZN7GMatrixC1Ev, symObjAddr: 0xA0, symBinAddr: 0x100027C30, symSize: 0x44 }
  - { offsetInCU: 0x2F05, offset: 0x3E5C3, size: 0x8, addend: 0x0, symName: __ZN7GMatrix9TranslateEff, symObjAddr: 0x140, symBinAddr: 0x100027C74, symSize: 0x40 }
  - { offsetInCU: 0x2F37, offset: 0x3E5F5, size: 0x8, addend: 0x0, symName: __ZN7GMatrix5ScaleEff, symObjAddr: 0x180, symBinAddr: 0x100027CB4, symSize: 0x40 }
  - { offsetInCU: 0x2F69, offset: 0x3E627, size: 0x8, addend: 0x0, symName: __ZN7GMatrix6RotateEf, symObjAddr: 0x1C0, symBinAddr: 0x100027CF4, symSize: 0x5C }
  - { offsetInCU: 0x2FA9, offset: 0x3E667, size: 0x8, addend: 0x0, symName: __ZN7GMatrix6ConcatERKS_S1_, symObjAddr: 0x21C, symBinAddr: 0x100027D50, symSize: 0x2D8 }
  - { offsetInCU: 0x2FE9, offset: 0x3E6A7, size: 0x8, addend: 0x0, symName: __ZNK7GMatrix6invertEv, symObjAddr: 0x588, symBinAddr: 0x100028028, symSize: 0x1A8 }
  - { offsetInCU: 0x302C, offset: 0x3E6EA, size: 0x8, addend: 0x0, symName: __ZNSt3__18optionalI7GMatrixEC1B8ue170006ENS_9nullopt_tE, symObjAddr: 0x730, symBinAddr: 0x1000281D0, symSize: 0x2C }
  - { offsetInCU: 0x3067, offset: 0x3E725, size: 0x8, addend: 0x0, symName: __ZNSt3__18optionalI7GMatrixEC1B8ue170006IS1_Li0EEEOT_, symObjAddr: 0x75C, symBinAddr: 0x1000281FC, symSize: 0x34 }
  - { offsetInCU: 0x30B0, offset: 0x3E76E, size: 0x8, addend: 0x0, symName: __ZNK7GMatrix9mapPointsEP6GPointPKS0_i, symObjAddr: 0x790, symBinAddr: 0x100028230, symSize: 0x184 }
  - { offsetInCU: 0x3146, offset: 0x3E804, size: 0x8, addend: 0x0, symName: __ZNSt3__18optionalI7GMatrixEC2B8ue170006ENS_9nullopt_tE, symObjAddr: 0x914, symBinAddr: 0x1000283B4, symSize: 0x2C }
  - { offsetInCU: 0x3180, offset: 0x3E83E, size: 0x8, addend: 0x0, symName: __ZNSt3__127__optional_move_assign_baseI7GMatrixLb1EEC2Ev, symObjAddr: 0x940, symBinAddr: 0x1000283E0, symSize: 0x2C }
  - { offsetInCU: 0x31B1, offset: 0x3E86F, size: 0x8, addend: 0x0, symName: __ZNSt3__127__optional_copy_assign_baseI7GMatrixLb1EEC2Ev, symObjAddr: 0x96C, symBinAddr: 0x10002840C, symSize: 0x2C }
  - { offsetInCU: 0x31E2, offset: 0x3E8A0, size: 0x8, addend: 0x0, symName: __ZNSt3__120__optional_move_baseI7GMatrixLb1EEC2Ev, symObjAddr: 0x998, symBinAddr: 0x100028438, symSize: 0x2C }
  - { offsetInCU: 0x3213, offset: 0x3E8D1, size: 0x8, addend: 0x0, symName: __ZNSt3__120__optional_copy_baseI7GMatrixLb1EEC2Ev, symObjAddr: 0x9C4, symBinAddr: 0x100028464, symSize: 0x2C }
  - { offsetInCU: 0x323F, offset: 0x3E8FD, size: 0x8, addend: 0x0, symName: __ZNSt3__123__optional_storage_baseI7GMatrixLb0EEC2Ev, symObjAddr: 0x9F0, symBinAddr: 0x100028490, symSize: 0x2C }
  - { offsetInCU: 0x326B, offset: 0x3E929, size: 0x8, addend: 0x0, symName: __ZNSt3__124__optional_destruct_baseI7GMatrixLb1EEC2B8ue170006Ev, symObjAddr: 0xA1C, symBinAddr: 0x1000284BC, symSize: 0x1C }
  - { offsetInCU: 0x3294, offset: 0x3E952, size: 0x8, addend: 0x0, symName: __ZNSt3__18optionalI7GMatrixEC2B8ue170006IS1_Li0EEEOT_, symObjAddr: 0xA38, symBinAddr: 0x1000284D8, symSize: 0x34 }
  - { offsetInCU: 0x32DD, offset: 0x3E99B, size: 0x8, addend: 0x0, symName: __ZNSt3__127__optional_move_assign_baseI7GMatrixLb1EECI2NS_24__optional_destruct_baseIS1_Lb1EEEIJS1_EEENS_10in_place_tEDpOT_, symObjAddr: 0xA6C, symBinAddr: 0x10002850C, symSize: 0x34 }
  - { offsetInCU: 0x331B, offset: 0x3E9D9, size: 0x8, addend: 0x0, symName: __ZNSt3__127__optional_copy_assign_baseI7GMatrixLb1EECI2NS_24__optional_destruct_baseIS1_Lb1EEEIJS1_EEENS_10in_place_tEDpOT_, symObjAddr: 0xAA0, symBinAddr: 0x100028540, symSize: 0x34 }
  - { offsetInCU: 0x3359, offset: 0x3EA17, size: 0x8, addend: 0x0, symName: __ZNSt3__120__optional_move_baseI7GMatrixLb1EECI2NS_24__optional_destruct_baseIS1_Lb1EEEIJS1_EEENS_10in_place_tEDpOT_, symObjAddr: 0xAD4, symBinAddr: 0x100028574, symSize: 0x34 }
  - { offsetInCU: 0x3397, offset: 0x3EA55, size: 0x8, addend: 0x0, symName: __ZNSt3__120__optional_copy_baseI7GMatrixLb1EECI2NS_24__optional_destruct_baseIS1_Lb1EEEIJS1_EEENS_10in_place_tEDpOT_, symObjAddr: 0xB08, symBinAddr: 0x1000285A8, symSize: 0x34 }
  - { offsetInCU: 0x33D5, offset: 0x3EA93, size: 0x8, addend: 0x0, symName: __ZNSt3__123__optional_storage_baseI7GMatrixLb0EECI2NS_24__optional_destruct_baseIS1_Lb1EEEIJS1_EEENS_10in_place_tEDpOT_, symObjAddr: 0xB3C, symBinAddr: 0x1000285DC, symSize: 0x34 }
  - { offsetInCU: 0x3413, offset: 0x3EAD1, size: 0x8, addend: 0x0, symName: __ZNSt3__124__optional_destruct_baseI7GMatrixLb1EEC2B8ue170006IJS1_EEENS_10in_place_tEDpOT_, symObjAddr: 0xB70, symBinAddr: 0x100028610, symSize: 0x34 }
  - { offsetInCU: 0x2D85, offset: 0x418D5, size: 0x8, addend: 0x0, symName: __ZNSt3__112__to_addressB8ue170006IdEEPT_S2_, symObjAddr: 0x1258, symBinAddr: 0x100029840, symSize: 0x14 }
  - { offsetInCU: 0x2DBB, offset: 0x4190B, size: 0x8, addend: 0x0, symName: __ZNSt3__119__allocate_at_leastB8ue170006INS_9allocatorIdEEEENS_19__allocation_resultINS_16allocator_traitsIT_E7pointerEEERS5_m, symObjAddr: 0x1E6C, symBinAddr: 0x10002A0F8, symSize: 0x40 }
  - { offsetInCU: 0x2DFF, offset: 0x4194F, size: 0x8, addend: 0x0, symName: __ZNSt3__142__uninitialized_allocator_move_if_noexceptB8ue170006INS_9allocatorIdEENS_16reverse_iteratorIPdEES5_dvEET1_RT_T0_S9_S6_, symObjAddr: 0x2104, symBinAddr: 0x10002A2AC, symSize: 0x78 }
  - { offsetInCU: 0x2E80, offset: 0x419D0, size: 0x8, addend: 0x0, symName: __ZNSt3__14swapB8ue170006IPdEENS_9enable_ifIXaasr21is_move_constructibleIT_EE5valuesr18is_move_assignableIS3_EE5valueEvE4typeERS3_S6_, symObjAddr: 0x21C8, symBinAddr: 0x10002A370, symSize: 0x3C }
  - { offsetInCU: 0x2ED2, offset: 0x41A22, size: 0x8, addend: 0x0, symName: __ZNSt3__14moveB8ue170006INS_16reverse_iteratorIPdEES3_EET0_T_S5_S4_, symObjAddr: 0x22B0, symBinAddr: 0x10002A458, symSize: 0x78 }
  - { offsetInCU: 0x2F2D, offset: 0x41A7D, size: 0x8, addend: 0x0, symName: __ZNSt3__16__moveB8ue170006INS_17_ClassicAlgPolicyENS_16reverse_iteratorIPdEES4_S4_EENS_4pairIT0_T2_EES6_T1_S7_, symObjAddr: 0x2328, symBinAddr: 0x10002A4D0, symSize: 0x64 }
  - { offsetInCU: 0x2F9A, offset: 0x41AEA, size: 0x8, addend: 0x0, symName: __ZNSt3__123__dispatch_copy_or_moveB8ue170006INS_17_ClassicAlgPolicyENS_11__move_loopIS1_EENS_14__move_trivialENS_16reverse_iteratorIPdEES7_S7_EENS_4pairIT2_T4_EES9_T3_SA_, symObjAddr: 0x238C, symBinAddr: 0x10002A534, symSize: 0x64 }
  - { offsetInCU: 0x3019, offset: 0x41B69, size: 0x8, addend: 0x0, symName: __ZNSt3__121__unwrap_and_dispatchB8ue170006INS_10__overloadINS_11__move_loopINS_17_ClassicAlgPolicyEEENS_14__move_trivialEEENS_16reverse_iteratorIPdEES9_S9_Li0EEENS_4pairIT0_T2_EESB_T1_SC_, symObjAddr: 0x23F0, symBinAddr: 0x10002A598, symSize: 0x12C }
  - { offsetInCU: 0x30AB, offset: 0x41BFB, size: 0x8, addend: 0x0, symName: __ZNSt3__114__unwrap_rangeB8ue170006INS_16reverse_iteratorIPdEES3_EENS_4pairIT0_S5_EET_S7_, symObjAddr: 0x251C, symBinAddr: 0x10002A6C4, symSize: 0x84 }
  - { offsetInCU: 0x321F, offset: 0x41D6F, size: 0x8, addend: 0x0, symName: __ZNSt3__113__unwrap_iterB8ue170006INS_16reverse_iteratorIPdEENS_18__unwrap_iter_implIS3_Lb0EEELi0EEEDTclsrT0_8__unwrapclsr3stdE7declvalIT_EEEES7_, symObjAddr: 0x2640, symBinAddr: 0x10002A7E8, symSize: 0x44 }
  - { offsetInCU: 0x3265, offset: 0x41DB5, size: 0x8, addend: 0x0, symName: __ZNSt3__19make_pairB8ue170006INS_16reverse_iteratorIPdEES3_EENS_4pairINS_18__unwrap_ref_decayIT_E4typeENS5_IT0_E4typeEEEOS6_OS9_, symObjAddr: 0x2684, symBinAddr: 0x10002A82C, symSize: 0x38 }
  - { offsetInCU: 0x32B6, offset: 0x41E06, size: 0x8, addend: 0x0, symName: __ZNSt3__114__rewrap_rangeB8ue170006INS_16reverse_iteratorIPdEES3_EET_S4_T0_, symObjAddr: 0x26BC, symBinAddr: 0x10002A864, symSize: 0x5C }
  - { offsetInCU: 0x3303, offset: 0x41E53, size: 0x8, addend: 0x0, symName: __ZNSt3__113__rewrap_iterB8ue170006INS_16reverse_iteratorIPdEES3_NS_18__unwrap_iter_implIS3_Lb0EEEEET_S6_T0_, symObjAddr: 0x2718, symBinAddr: 0x10002A8C0, symSize: 0x74 }
  - { offsetInCU: 0x3359, offset: 0x41EA9, size: 0x8, addend: 0x0, symName: __ZNSt3__1neB8ue170006IPdS1_EEbRKNS_16reverse_iteratorIT_EERKNS2_IT0_EE, symObjAddr: 0x278C, symBinAddr: 0x10002A934, symSize: 0x48 }
  - { offsetInCU: 0x3762, offset: 0x422B2, size: 0x8, addend: 0x0, symName: __ZNSt3__16vectorIdNS_9allocatorIdEEE26__swap_out_circular_bufferERNS_14__split_bufferIdRS2_EE, symObjAddr: 0x18D8, symBinAddr: 0x100029D98, symSize: 0x110 }
  - { offsetInCU: 0x5589, offset: 0x440D9, size: 0x8, addend: 0x0, symName: __Z3midRK6GPointS1_f, symObjAddr: 0x0, symBinAddr: 0x100028644, symSize: 0x70 }
  - { offsetInCU: 0x55D2, offset: 0x44122, size: 0x8, addend: 0x0, symName: __Z14solveQuadraticddd, symObjAddr: 0x70, symBinAddr: 0x1000286B4, symSize: 0x344 }
  - { offsetInCU: 0x56B0, offset: 0x44200, size: 0x8, addend: 0x0, symName: __ZNSt3__16vectorIdNS_9allocatorIdEEEC1B8ue170006Ev, symObjAddr: 0x3B4, symBinAddr: 0x1000289F8, symSize: 0x2C }
  - { offsetInCU: 0x56D8, offset: 0x44228, size: 0x8, addend: 0x0, symName: __ZNSt3__16vectorIdNS_9allocatorIdEEE9push_backB8ue170006ERKd, symObjAddr: 0x3E0, symBinAddr: 0x100028A24, symSize: 0x6C }
  - { offsetInCU: 0x5710, offset: 0x44260, size: 0x8, addend: 0x0, symName: __ZNSt3__16vectorIdNS_9allocatorIdEEED1B8ue170006Ev, symObjAddr: 0x44C, symBinAddr: 0x100028A90, symSize: 0x2C }
  - { offsetInCU: 0x5738, offset: 0x44288, size: 0x8, addend: 0x0, symName: __Z10findQuadTX6GPointS_S_, symObjAddr: 0x478, symBinAddr: 0x100028ABC, symSize: 0xA0 }
  - { offsetInCU: 0x578F, offset: 0x442DF, size: 0x8, addend: 0x0, symName: __Z10findQuadTY6GPointS_S_, symObjAddr: 0x518, symBinAddr: 0x100028B5C, symSize: 0xA0 }
  - { offsetInCU: 0x57E6, offset: 0x44336, size: 0x8, addend: 0x0, symName: __Z14getQuadExtrema6GPointS_S_f, symObjAddr: 0x5B8, symBinAddr: 0x100028BFC, symSize: 0xE8 }
  - { offsetInCU: 0x5859, offset: 0x443A9, size: 0x8, addend: 0x0, symName: __Z15getCubicExtrema6GPointS_S_S_f, symObjAddr: 0x6A0, symBinAddr: 0x100028CE4, symSize: 0x18C }
  - { offsetInCU: 0x58E0, offset: 0x44430, size: 0x8, addend: 0x0, symName: __ZNK5GPath6boundsEv, symObjAddr: 0x82C, symBinAddr: 0x100028E70, symSize: 0x28C }
  - { offsetInCU: 0x595A, offset: 0x444AA, size: 0x8, addend: 0x0, symName: __ZN5GRect4LTRBEffff, symObjAddr: 0xAE0, symBinAddr: 0x1000290FC, symSize: 0x4C }
  - { offsetInCU: 0x59A7, offset: 0x444F7, size: 0x8, addend: 0x0, symName: __ZL11GRoundToIntf, symObjAddr: 0xB2C, symBinAddr: 0x100029148, symSize: 0x20 }
  - { offsetInCU: 0x59D3, offset: 0x44523, size: 0x8, addend: 0x0, symName: __ZNKSt3__16vectorI6GPointNS_9allocatorIS1_EEEixB8ue170006Em, symObjAddr: 0xB4C, symBinAddr: 0x100029168, symSize: 0x24 }
  - { offsetInCU: 0x5A0A, offset: 0x4455A, size: 0x8, addend: 0x0, symName: __ZN5GPath10ChopQuadAtEPK6GPointPS0_f, symObjAddr: 0xB98, symBinAddr: 0x10002918C, symSize: 0xC4 }
  - { offsetInCU: 0x5A82, offset: 0x445D2, size: 0x8, addend: 0x0, symName: __ZN5GPath11ChopCubicAtEPK6GPointPS0_f, symObjAddr: 0xC5C, symBinAddr: 0x100029250, symSize: 0x144 }
  - { offsetInCU: 0x5B2A, offset: 0x4467A, size: 0x8, addend: 0x0, symName: __ZNSt3__16vectorIdNS_9allocatorIdEEEC2B8ue170006Ev, symObjAddr: 0xDA0, symBinAddr: 0x100029394, symSize: 0x4C }
  - { offsetInCU: 0x5B5F, offset: 0x446AF, size: 0x8, addend: 0x0, symName: __ZNSt3__117__compressed_pairIPdNS_9allocatorIdEEEC1B8ue170006IDnNS_18__default_init_tagEEEOT_OT0_, symObjAddr: 0xDEC, symBinAddr: 0x1000293E0, symSize: 0x3C }
  - { offsetInCU: 0x5BB6, offset: 0x44706, size: 0x8, addend: 0x0, symName: __ZNSt3__117__compressed_pairIPdNS_9allocatorIdEEEC2B8ue170006IDnNS_18__default_init_tagEEEOT_OT0_, symObjAddr: 0xE34, symBinAddr: 0x10002941C, symSize: 0x40 }
  - { offsetInCU: 0x5C0D, offset: 0x4475D, size: 0x8, addend: 0x0, symName: __ZNSt3__122__compressed_pair_elemIPdLi0ELb0EEC2B8ue170006IDnvEEOT_, symObjAddr: 0xE74, symBinAddr: 0x10002945C, symSize: 0x1C }
  - { offsetInCU: 0x5C4E, offset: 0x4479E, size: 0x8, addend: 0x0, symName: __ZNSt3__122__compressed_pair_elemINS_9allocatorIdEELi1ELb1EEC2B8ue170006ENS_18__default_init_tagE, symObjAddr: 0xE90, symBinAddr: 0x100029478, symSize: 0x2C }
  - { offsetInCU: 0x5C82, offset: 0x447D2, size: 0x8, addend: 0x0, symName: __ZNSt3__19allocatorIdEC2B8ue170006Ev, symObjAddr: 0xEBC, symBinAddr: 0x1000294A4, symSize: 0x2C }
  - { offsetInCU: 0x5CAB, offset: 0x447FB, size: 0x8, addend: 0x0, symName: __ZNSt3__116__non_trivial_ifILb1ENS_9allocatorIdEEEC2B8ue170006Ev, symObjAddr: 0xEE8, symBinAddr: 0x1000294D0, symSize: 0x14 }
  - { offsetInCU: 0x5CD4, offset: 0x44824, size: 0x8, addend: 0x0, symName: __ZNSt3__16vectorIdNS_9allocatorIdEEED2B8ue170006Ev, symObjAddr: 0xEFC, symBinAddr: 0x1000294E4, symSize: 0x44 }
  - { offsetInCU: 0x5CFD, offset: 0x4484D, size: 0x8, addend: 0x0, symName: __ZNSt3__16vectorIdNS_9allocatorIdEEE16__destroy_vectorC1B8ue170006ERS3_, symObjAddr: 0xF40, symBinAddr: 0x100029528, symSize: 0x34 }
  - { offsetInCU: 0x5D36, offset: 0x44886, size: 0x8, addend: 0x0, symName: __ZNSt3__16vectorIdNS_9allocatorIdEEE16__destroy_vectorclB8ue170006Ev, symObjAddr: 0xF74, symBinAddr: 0x10002955C, symSize: 0x90 }
  - { offsetInCU: 0x5D5A, offset: 0x448AA, size: 0x8, addend: 0x0, symName: __ZNSt3__16vectorIdNS_9allocatorIdEEE16__destroy_vectorC2B8ue170006ERS3_, symObjAddr: 0x1004, symBinAddr: 0x1000295EC, symSize: 0x20 }
  - { offsetInCU: 0x5D93, offset: 0x448E3, size: 0x8, addend: 0x0, symName: __ZNSt3__16vectorIdNS_9allocatorIdEEE7__clearB8ue170006Ev, symObjAddr: 0x1024, symBinAddr: 0x10002960C, symSize: 0x28 }
  - { offsetInCU: 0x5DB7, offset: 0x44907, size: 0x8, addend: 0x0, symName: __ZNKSt3__16vectorIdNS_9allocatorIdEEE17__annotate_deleteB8ue170006Ev, symObjAddr: 0x104C, symBinAddr: 0x100029634, symSize: 0xB8 }
  - { offsetInCU: 0x5DDB, offset: 0x4492B, size: 0x8, addend: 0x0, symName: __ZNSt3__116allocator_traitsINS_9allocatorIdEEE10deallocateB8ue170006ERS2_Pdm, symObjAddr: 0x1104, symBinAddr: 0x1000296EC, symSize: 0x34 }
  - { offsetInCU: 0x5E20, offset: 0x44970, size: 0x8, addend: 0x0, symName: __ZNSt3__16vectorIdNS_9allocatorIdEEE7__allocB8ue170006Ev, symObjAddr: 0x1138, symBinAddr: 0x100029720, symSize: 0x28 }
  - { offsetInCU: 0x5E44, offset: 0x44994, size: 0x8, addend: 0x0, symName: __ZNKSt3__16vectorIdNS_9allocatorIdEEE8capacityB8ue170006Ev, symObjAddr: 0x1160, symBinAddr: 0x100029748, symSize: 0x40 }
  - { offsetInCU: 0x5E68, offset: 0x449B8, size: 0x8, addend: 0x0, symName: __ZNSt3__16vectorIdNS_9allocatorIdEEE22__base_destruct_at_endB8ue170006EPd, symObjAddr: 0x11A0, symBinAddr: 0x100029788, symSize: 0x8C }
  - { offsetInCU: 0x5EAC, offset: 0x449FC, size: 0x8, addend: 0x0, symName: __ZNSt3__116allocator_traitsINS_9allocatorIdEEE7destroyB8ue170006IdvEEvRS2_PT_, symObjAddr: 0x122C, symBinAddr: 0x100029814, symSize: 0x2C }
  - { offsetInCU: 0x5EEB, offset: 0x44A3B, size: 0x8, addend: 0x0, symName: __ZNSt3__19allocatorIdE7destroyB8ue170006EPd, symObjAddr: 0x126C, symBinAddr: 0x100029854, symSize: 0x14 }
  - { offsetInCU: 0x5F1D, offset: 0x44A6D, size: 0x8, addend: 0x0, symName: __ZNKSt3__16vectorIdNS_9allocatorIdEEE31__annotate_contiguous_containerB8ue170006EPKvS5_S5_S5_, symObjAddr: 0x1280, symBinAddr: 0x100029868, symSize: 0x20 }
  - { offsetInCU: 0x5F71, offset: 0x44AC1, size: 0x8, addend: 0x0, symName: __ZNKSt3__16vectorIdNS_9allocatorIdEEE4dataB8ue170006Ev, symObjAddr: 0x12A0, symBinAddr: 0x100029888, symSize: 0x28 }
  - { offsetInCU: 0x5F95, offset: 0x44AE5, size: 0x8, addend: 0x0, symName: __ZNKSt3__16vectorIdNS_9allocatorIdEEE4sizeB8ue170006Ev, symObjAddr: 0x12C8, symBinAddr: 0x1000298B0, symSize: 0x28 }
  - { offsetInCU: 0x5FB9, offset: 0x44B09, size: 0x8, addend: 0x0, symName: __ZNSt3__19allocatorIdE10deallocateB8ue170006EPdm, symObjAddr: 0x12F0, symBinAddr: 0x1000298D8, symSize: 0x40 }
  - { offsetInCU: 0x5FF9, offset: 0x44B49, size: 0x8, addend: 0x0, symName: __ZNSt3__117__compressed_pairIPdNS_9allocatorIdEEE6secondB8ue170006Ev, symObjAddr: 0x1458, symBinAddr: 0x100029918, symSize: 0x24 }
  - { offsetInCU: 0x601D, offset: 0x44B6D, size: 0x8, addend: 0x0, symName: __ZNSt3__122__compressed_pair_elemINS_9allocatorIdEELi1ELb1EE5__getB8ue170006Ev, symObjAddr: 0x147C, symBinAddr: 0x10002993C, symSize: 0x14 }
  - { offsetInCU: 0x6041, offset: 0x44B91, size: 0x8, addend: 0x0, symName: __ZNKSt3__16vectorIdNS_9allocatorIdEEE9__end_capB8ue170006Ev, symObjAddr: 0x1490, symBinAddr: 0x100029950, symSize: 0x28 }
  - { offsetInCU: 0x6065, offset: 0x44BB5, size: 0x8, addend: 0x0, symName: __ZNKSt3__117__compressed_pairIPdNS_9allocatorIdEEE5firstB8ue170006Ev, symObjAddr: 0x14B8, symBinAddr: 0x100029978, symSize: 0x24 }
  - { offsetInCU: 0x6089, offset: 0x44BD9, size: 0x8, addend: 0x0, symName: __ZNKSt3__122__compressed_pair_elemIPdLi0ELb0EE5__getB8ue170006Ev, symObjAddr: 0x14DC, symBinAddr: 0x10002999C, symSize: 0x14 }
  - { offsetInCU: 0x60AD, offset: 0x44BFD, size: 0x8, addend: 0x0, symName: __ZNSt3__16vectorIdNS_9allocatorIdEEE9__end_capB8ue170006Ev, symObjAddr: 0x14F0, symBinAddr: 0x1000299B0, symSize: 0x28 }
  - { offsetInCU: 0x60D1, offset: 0x44C21, size: 0x8, addend: 0x0, symName: __ZNSt3__16vectorIdNS_9allocatorIdEEE22__construct_one_at_endB8ue170006IJRKdEEEvDpOT_, symObjAddr: 0x1518, symBinAddr: 0x1000299D8, symSize: 0x90 }
  - { offsetInCU: 0x611F, offset: 0x44C6F, size: 0x8, addend: 0x0, symName: __ZNSt3__16vectorIdNS_9allocatorIdEEE21__push_back_slow_pathIRKdEEvOT_, symObjAddr: 0x15A8, symBinAddr: 0x100029A68, symSize: 0xD8 }
  - { offsetInCU: 0x6180, offset: 0x44CD0, size: 0x8, addend: 0x0, symName: __ZNSt3__117__compressed_pairIPdNS_9allocatorIdEEE5firstB8ue170006Ev, symObjAddr: 0x1680, symBinAddr: 0x100029B40, symSize: 0x24 }
  - { offsetInCU: 0x61A4, offset: 0x44CF4, size: 0x8, addend: 0x0, symName: __ZNSt3__122__compressed_pair_elemIPdLi0ELb0EE5__getB8ue170006Ev, symObjAddr: 0x16A4, symBinAddr: 0x100029B64, symSize: 0x14 }
  - { offsetInCU: 0x61E1, offset: 0x44D31, size: 0x8, addend: 0x0, symName: __ZNSt3__16vectorIdNS_9allocatorIdEEE21_ConstructTransactionC1B8ue170006ERS3_m, symObjAddr: 0x16B8, symBinAddr: 0x100029B78, symSize: 0x3C }
  - { offsetInCU: 0x622A, offset: 0x44D7A, size: 0x8, addend: 0x0, symName: __ZNSt3__116allocator_traitsINS_9allocatorIdEEE9constructB8ue170006IdJRKdEvEEvRS2_PT_DpOT0_, symObjAddr: 0x16F4, symBinAddr: 0x100029BB4, symSize: 0x34 }
  - { offsetInCU: 0x6284, offset: 0x44DD4, size: 0x8, addend: 0x0, symName: __ZNSt3__16vectorIdNS_9allocatorIdEEE21_ConstructTransactionD1B8ue170006Ev, symObjAddr: 0x1728, symBinAddr: 0x100029BE8, symSize: 0x2C }
  - { offsetInCU: 0x62AD, offset: 0x44DFD, size: 0x8, addend: 0x0, symName: __ZNSt3__16vectorIdNS_9allocatorIdEEE21_ConstructTransactionC2B8ue170006ERS3_m, symObjAddr: 0x1754, symBinAddr: 0x100029C14, symSize: 0x44 }
  - { offsetInCU: 0x62F6, offset: 0x44E46, size: 0x8, addend: 0x0, symName: __ZNSt3__19allocatorIdE9constructB8ue170006IdJRKdEEEvPT_DpOT0_, symObjAddr: 0x1798, symBinAddr: 0x100029C58, symSize: 0x28 }
  - { offsetInCU: 0x634A, offset: 0x44E9A, size: 0x8, addend: 0x0, symName: __ZNSt3__16vectorIdNS_9allocatorIdEEE21_ConstructTransactionD2B8ue170006Ev, symObjAddr: 0x17C0, symBinAddr: 0x100029C80, symSize: 0x20 }
  - { offsetInCU: 0x6372, offset: 0x44EC2, size: 0x8, addend: 0x0, symName: __ZNKSt3__16vectorIdNS_9allocatorIdEEE11__recommendB8ue170006Em, symObjAddr: 0x17E0, symBinAddr: 0x100029CA0, symSize: 0xB4 }
  - { offsetInCU: 0x63CA, offset: 0x44F1A, size: 0x8, addend: 0x0, symName: __ZNSt3__114__split_bufferIdRNS_9allocatorIdEEEC1EmmS3_, symObjAddr: 0x1894, symBinAddr: 0x100029D54, symSize: 0x44 }
  - { offsetInCU: 0x641F, offset: 0x44F6F, size: 0x8, addend: 0x0, symName: __ZNSt3__114__split_bufferIdRNS_9allocatorIdEEED1Ev, symObjAddr: 0x19E8, symBinAddr: 0x100029EA8, symSize: 0x2C }
  - { offsetInCU: 0x6449, offset: 0x44F99, size: 0x8, addend: 0x0, symName: __ZNKSt3__16vectorIdNS_9allocatorIdEEE8max_sizeEv, symObjAddr: 0x1A14, symBinAddr: 0x100029ED4, symSize: 0x60 }
  - { offsetInCU: 0x6471, offset: 0x44FC1, size: 0x8, addend: 0x0, symName: __ZNKSt3__16vectorIdNS_9allocatorIdEEE20__throw_length_errorB8ue170006Ev, symObjAddr: 0x1A74, symBinAddr: 0x100029F34, symSize: 0x1C }
  - { offsetInCU: 0x649F, offset: 0x44FEF, size: 0x8, addend: 0x0, symName: __ZNSt3__116allocator_traitsINS_9allocatorIdEEE8max_sizeB8ue170006IS2_vEEmRKS2_, symObjAddr: 0x1AE8, symBinAddr: 0x100029F50, symSize: 0x24 }
  - { offsetInCU: 0x64CE, offset: 0x4501E, size: 0x8, addend: 0x0, symName: __ZNKSt3__16vectorIdNS_9allocatorIdEEE7__allocB8ue170006Ev, symObjAddr: 0x1B0C, symBinAddr: 0x100029F74, symSize: 0x28 }
  - { offsetInCU: 0x64F2, offset: 0x45042, size: 0x8, addend: 0x0, symName: __ZNKSt3__19allocatorIdE8max_sizeB8ue170006Ev, symObjAddr: 0x1BD0, symBinAddr: 0x100029F9C, symSize: 0x14 }
  - { offsetInCU: 0x6516, offset: 0x45066, size: 0x8, addend: 0x0, symName: __ZNKSt3__117__compressed_pairIPdNS_9allocatorIdEEE6secondB8ue170006Ev, symObjAddr: 0x1BE4, symBinAddr: 0x100029FB0, symSize: 0x24 }
  - { offsetInCU: 0x653A, offset: 0x4508A, size: 0x8, addend: 0x0, symName: __ZNKSt3__122__compressed_pair_elemINS_9allocatorIdEELi1ELb1EE5__getB8ue170006Ev, symObjAddr: 0x1C08, symBinAddr: 0x100029FD4, symSize: 0x14 }
  - { offsetInCU: 0x655E, offset: 0x450AE, size: 0x8, addend: 0x0, symName: __ZNSt3__114__split_bufferIdRNS_9allocatorIdEEEC2EmmS3_, symObjAddr: 0x1D5C, symBinAddr: 0x100029FE8, symSize: 0xD4 }
  - { offsetInCU: 0x65D1, offset: 0x45121, size: 0x8, addend: 0x0, symName: __ZNSt3__117__compressed_pairIPdRNS_9allocatorIdEEEC1B8ue170006IDnS4_EEOT_OT0_, symObjAddr: 0x1E30, symBinAddr: 0x10002A0BC, symSize: 0x3C }
  - { offsetInCU: 0x6628, offset: 0x45178, size: 0x8, addend: 0x0, symName: __ZNSt3__114__split_bufferIdRNS_9allocatorIdEEE7__allocB8ue170006Ev, symObjAddr: 0x1EAC, symBinAddr: 0x10002A138, symSize: 0x28 }
  - { offsetInCU: 0x664C, offset: 0x4519C, size: 0x8, addend: 0x0, symName: __ZNSt3__114__split_bufferIdRNS_9allocatorIdEEE9__end_capB8ue170006Ev, symObjAddr: 0x1ED4, symBinAddr: 0x10002A160, symSize: 0x28 }
  - { offsetInCU: 0x6670, offset: 0x451C0, size: 0x8, addend: 0x0, symName: __ZNSt3__117__compressed_pairIPdRNS_9allocatorIdEEEC2B8ue170006IDnS4_EEOT_OT0_, symObjAddr: 0x1EFC, symBinAddr: 0x10002A188, symSize: 0x48 }
  - { offsetInCU: 0x66C7, offset: 0x45217, size: 0x8, addend: 0x0, symName: __ZNSt3__122__compressed_pair_elemIRNS_9allocatorIdEELi1ELb0EEC2B8ue170006IS3_vEEOT_, symObjAddr: 0x1F44, symBinAddr: 0x10002A1D0, symSize: 0x20 }
  - { offsetInCU: 0x6708, offset: 0x45258, size: 0x8, addend: 0x0, symName: __ZNSt3__19allocatorIdE8allocateB8ue170006Em, symObjAddr: 0x1F64, symBinAddr: 0x10002A1F0, symSize: 0x58 }
  - { offsetInCU: 0x673A, offset: 0x4528A, size: 0x8, addend: 0x0, symName: __ZNSt3__117__compressed_pairIPdRNS_9allocatorIdEEE6secondB8ue170006Ev, symObjAddr: 0x20A0, symBinAddr: 0x10002A248, symSize: 0x28 }
  - { offsetInCU: 0x675E, offset: 0x452AE, size: 0x8, addend: 0x0, symName: __ZNSt3__122__compressed_pair_elemIRNS_9allocatorIdEELi1ELb0EE5__getB8ue170006Ev, symObjAddr: 0x20C8, symBinAddr: 0x10002A270, symSize: 0x18 }
  - { offsetInCU: 0x6782, offset: 0x452D2, size: 0x8, addend: 0x0, symName: __ZNSt3__117__compressed_pairIPdRNS_9allocatorIdEEE5firstB8ue170006Ev, symObjAddr: 0x20E0, symBinAddr: 0x10002A288, symSize: 0x24 }
  - { offsetInCU: 0x67A6, offset: 0x452F6, size: 0x8, addend: 0x0, symName: __ZNSt3__116reverse_iteratorIPdEC1B8ue170006ES1_, symObjAddr: 0x217C, symBinAddr: 0x10002A324, symSize: 0x34 }
  - { offsetInCU: 0x67DD, offset: 0x4532D, size: 0x8, addend: 0x0, symName: __ZNKSt3__116reverse_iteratorIPdE4baseB8ue170006Ev, symObjAddr: 0x21B0, symBinAddr: 0x10002A358, symSize: 0x18 }
  - { offsetInCU: 0x6801, offset: 0x45351, size: 0x8, addend: 0x0, symName: __ZNKSt3__16vectorIdNS_9allocatorIdEEE14__annotate_newB8ue170006Em, symObjAddr: 0x2204, symBinAddr: 0x10002A3AC, symSize: 0xAC }
  - { offsetInCU: 0x6859, offset: 0x453A9, size: 0x8, addend: 0x0, symName: __ZNKSt3__111__move_loopINS_17_ClassicAlgPolicyEEclB8ue170006INS_16reverse_iteratorIPdEES6_S6_EENS_4pairIT_T1_EES8_T0_S9_, symObjAddr: 0x25A0, symBinAddr: 0x10002A748, symSize: 0xA0 }
  - { offsetInCU: 0x68C8, offset: 0x45418, size: 0x8, addend: 0x0, symName: __ZNSt3__18_IterOpsINS_17_ClassicAlgPolicyEE11__iter_moveB8ue170006IRNS_16reverse_iteratorIPdEEEENS_9enable_ifIXsr12is_referenceIDTdeclsr3stdE7declvalIRT_EEEEE5valueEDTclsr3stdE4movedeclsr3stdE7declvalISA_EEEEE4typeEOS9_, symObjAddr: 0x27D4, symBinAddr: 0x10002A97C, symSize: 0x28 }
  - { offsetInCU: 0x68F4, offset: 0x45444, size: 0x8, addend: 0x0, symName: __ZNKSt3__116reverse_iteratorIPdEdeB8ue170006Ev, symObjAddr: 0x27FC, symBinAddr: 0x10002A9A4, symSize: 0x28 }
  - { offsetInCU: 0x6926, offset: 0x45476, size: 0x8, addend: 0x0, symName: __ZNSt3__116reverse_iteratorIPdEppB8ue170006Ev, symObjAddr: 0x2824, symBinAddr: 0x10002A9CC, symSize: 0x20 }
  - { offsetInCU: 0x694A, offset: 0x4549A, size: 0x8, addend: 0x0, symName: __ZNSt3__18_IterOpsINS_17_ClassicAlgPolicyEE25__validate_iter_referenceB8ue170006IRNS_16reverse_iteratorIPdEEEEvv, symObjAddr: 0x2844, symBinAddr: 0x10002A9EC, symSize: 0x4 }
  - { offsetInCU: 0x6968, offset: 0x454B8, size: 0x8, addend: 0x0, symName: __ZNSt3__118__unwrap_iter_implINS_16reverse_iteratorIPdEELb0EE8__unwrapB8ue170006ES3_, symObjAddr: 0x2848, symBinAddr: 0x10002A9F0, symSize: 0x24 }
  - { offsetInCU: 0x6991, offset: 0x454E1, size: 0x8, addend: 0x0, symName: __ZNSt3__14pairINS_16reverse_iteratorIPdEES3_EC1B8ue170006IS3_S3_LPv0EEEOT_OT0_, symObjAddr: 0x286C, symBinAddr: 0x10002AA14, symSize: 0x3C }
  - { offsetInCU: 0x69EF, offset: 0x4553F, size: 0x8, addend: 0x0, symName: __ZNSt3__14pairINS_16reverse_iteratorIPdEES3_EC2B8ue170006IS3_S3_LPv0EEEOT_OT0_, symObjAddr: 0x28A8, symBinAddr: 0x10002AA50, symSize: 0x34 }
  - { offsetInCU: 0x6A4D, offset: 0x4559D, size: 0x8, addend: 0x0, symName: __ZNSt3__118__unwrap_iter_implINS_16reverse_iteratorIPdEELb0EE8__rewrapB8ue170006ES3_S3_, symObjAddr: 0x28DC, symBinAddr: 0x10002AA84, symSize: 0x2C }
  - { offsetInCU: 0x6A7B, offset: 0x455CB, size: 0x8, addend: 0x0, symName: __ZNSt3__116reverse_iteratorIPdEC2B8ue170006ES1_, symObjAddr: 0x2908, symBinAddr: 0x10002AAB0, symSize: 0x28 }
  - { offsetInCU: 0x6AB2, offset: 0x45602, size: 0x8, addend: 0x0, symName: __ZNSt3__114__split_bufferIdRNS_9allocatorIdEEED2Ev, symObjAddr: 0x2930, symBinAddr: 0x10002AAD8, symSize: 0x8C }
  - { offsetInCU: 0x6ADD, offset: 0x4562D, size: 0x8, addend: 0x0, symName: __ZNSt3__114__split_bufferIdRNS_9allocatorIdEEE5clearB8ue170006Ev, symObjAddr: 0x29BC, symBinAddr: 0x10002AB64, symSize: 0x28 }
  - { offsetInCU: 0x6B01, offset: 0x45651, size: 0x8, addend: 0x0, symName: __ZNKSt3__114__split_bufferIdRNS_9allocatorIdEEE8capacityB8ue170006Ev, symObjAddr: 0x29E4, symBinAddr: 0x10002AB8C, symSize: 0x40 }
  - { offsetInCU: 0x6B25, offset: 0x45675, size: 0x8, addend: 0x0, symName: __ZNSt3__114__split_bufferIdRNS_9allocatorIdEEE17__destruct_at_endB8ue170006EPd, symObjAddr: 0x2A24, symBinAddr: 0x10002ABCC, symSize: 0x2C }
  - { offsetInCU: 0x6B56, offset: 0x456A6, size: 0x8, addend: 0x0, symName: __ZNSt3__114__split_bufferIdRNS_9allocatorIdEEE17__destruct_at_endB8ue170006EPdNS_17integral_constantIbLb0EEE, symObjAddr: 0x2A50, symBinAddr: 0x10002ABF8, symSize: 0x80 }
  - { offsetInCU: 0x6B97, offset: 0x456E7, size: 0x8, addend: 0x0, symName: __ZNKSt3__114__split_bufferIdRNS_9allocatorIdEEE9__end_capB8ue170006Ev, symObjAddr: 0x2AD0, symBinAddr: 0x10002AC78, symSize: 0x28 }
  - { offsetInCU: 0x6BBB, offset: 0x4570B, size: 0x8, addend: 0x0, symName: __ZNKSt3__117__compressed_pairIPdRNS_9allocatorIdEEE5firstB8ue170006Ev, symObjAddr: 0x2AF8, symBinAddr: 0x10002ACA0, symSize: 0x24 }
  - { offsetInCU: 0x26, offset: 0x457BD, size: 0x8, addend: 0x0, symName: __ZN12GPathBuilder7addRectERK5GRect14GPathDirection, symObjAddr: 0x0, symBinAddr: 0x10002ACC4, symSize: 0x1A0 }
  - { offsetInCU: 0x4053, offset: 0x497EA, size: 0x8, addend: 0x0, symName: __ZN12GPathBuilder7addRectERK5GRect14GPathDirection, symObjAddr: 0x0, symBinAddr: 0x10002ACC4, symSize: 0x1A0 }
  - { offsetInCU: 0x4095, offset: 0x4982C, size: 0x8, addend: 0x0, symName: __ZN12GPathBuilder10addPolygonEPK6GPointi, symObjAddr: 0x1A0, symBinAddr: 0x10002AE64, symSize: 0x9C }
  - { offsetInCU: 0x40F3, offset: 0x4988A, size: 0x8, addend: 0x0, symName: __ZN12GPathBuilder9addCircleE6GPointf14GPathDirection, symObjAddr: 0x23C, symBinAddr: 0x10002AF00, symSize: 0x81C }
  - { offsetInCU: 0x4250, offset: 0x499E7, size: 0x8, addend: 0x0, symName: __Z4sqrtB8ue170006IiENSt3__19enable_ifIXsr3std11is_integralIT_EE5valueEdE4typeES2_, symObjAddr: 0xA84, symBinAddr: 0x10002B71C, symSize: 0x24 }
  - { offsetInCU: 0x350E, offset: 0x4CF33, size: 0x8, addend: 0x0, symName: __Z21GCreateLinearGradient6GPointS_PK6GColori9GTileMode, symObjAddr: 0x0, symBinAddr: 0x10002B740, symSize: 0x108 }
  - { offsetInCU: 0x3685, offset: 0x4D0AA, size: 0x8, addend: 0x0, symName: __ZN10MyGradientC1E6GPointS0_PK6GColori9GTileMode, symObjAddr: 0x13C, symBinAddr: 0x10002B848, symSize: 0x64 }
  - { offsetInCU: 0x36F4, offset: 0x4D119, size: 0x8, addend: 0x0, symName: __ZN10MyGradientC2E6GPointS0_PK6GColori9GTileMode, symObjAddr: 0x254, symBinAddr: 0x10002B8AC, symSize: 0x178 }
  - { offsetInCU: 0x377F, offset: 0x4D1A4, size: 0x8, addend: 0x0, symName: __ZN10MyGradientD1Ev, symObjAddr: 0x564, symBinAddr: 0x10002BA24, symSize: 0x2C }
  - { offsetInCU: 0x37AA, offset: 0x4D1CF, size: 0x8, addend: 0x0, symName: __ZN10MyGradientD0Ev, symObjAddr: 0x590, symBinAddr: 0x10002BA50, symSize: 0x30 }
  - { offsetInCU: 0x37D5, offset: 0x4D1FA, size: 0x8, addend: 0x0, symName: __ZN10MyGradient8isOpaqueEv, symObjAddr: 0x5C0, symBinAddr: 0x10002BA80, symSize: 0x18 }
  - { offsetInCU: 0x37F8, offset: 0x4D21D, size: 0x8, addend: 0x0, symName: __ZN10MyGradient10setContextERK7GMatrix, symObjAddr: 0x5D8, symBinAddr: 0x10002BA98, symSize: 0xA8 }
  - { offsetInCU: 0x383F, offset: 0x4D264, size: 0x8, addend: 0x0, symName: __ZN10MyGradient8shadeRowEiiiPj, symObjAddr: 0x680, symBinAddr: 0x10002BB40, symSize: 0x3B0 }
  - { offsetInCU: 0x3936, offset: 0x4D35B, size: 0x8, addend: 0x0, symName: __ZN10MyGradientD2Ev, symObjAddr: 0x2948, symBinAddr: 0x10002BEF0, symSize: 0x48 }
  - { offsetInCU: 0x3960, offset: 0x4D385, size: 0x8, addend: 0x0, symName: __Z5floorB8ue170006f, symObjAddr: 0x2A7C, symBinAddr: 0x10002BF38, symSize: 0x18 }
  - { offsetInCU: 0x3990, offset: 0x4D3B5, size: 0x8, addend: 0x0, symName: __ZN10MyGradient9color2PixERK6GColor, symObjAddr: 0x2B7C, symBinAddr: 0x10002BF50, symSize: 0xC0 }
  - { offsetInCU: 0x39FB, offset: 0x4D420, size: 0x8, addend: 0x0, symName: __ZL11GRoundToIntf, symObjAddr: 0x2CE8, symBinAddr: 0x10002C010, symSize: 0x20 }
  - { offsetInCU: 0x3A27, offset: 0x4D44C, size: 0x8, addend: 0x0, symName: __ZL15GPixel_PackARGBjjjj, symObjAddr: 0x2D08, symBinAddr: 0x10002C030, symSize: 0x134 }
  - { offsetInCU: 0x1B02, offset: 0x4EFA8, size: 0x8, addend: 0x0, symName: __ZNSt3__110shared_ptrI7GShaderE18__enable_weak_thisB8ue170006IS1_8MyShadervEEvPKNS_23enable_shared_from_thisIT_EEPT0_, symObjAddr: 0x1078, symBinAddr: 0x10002CC24, symSize: 0x7C }
  - { offsetInCU: 0x393C, offset: 0x50DE2, size: 0x8, addend: 0x0, symName: __Z19GCreateBitmapShaderRK7GBitmapRK7GMatrix9GTileMode, symObjAddr: 0x0, symBinAddr: 0x10002C164, symSize: 0x7C }
  - { offsetInCU: 0x3985, offset: 0x50E2B, size: 0x8, addend: 0x0, symName: __ZN8MyShaderC1ERK7GBitmapRK7GMatrix9GTileMode, symObjAddr: 0x7C, symBinAddr: 0x10002C1E0, symSize: 0x44 }
  - { offsetInCU: 0x39D8, offset: 0x50E7E, size: 0x8, addend: 0x0, symName: __ZNSt3__110shared_ptrI7GShaderEC1B8ue170006I8MyShadervEEPT_, symObjAddr: 0xC0, symBinAddr: 0x10002C224, symSize: 0x34 }
  - { offsetInCU: 0x3A1B, offset: 0x50EC1, size: 0x8, addend: 0x0, symName: __ZN8MyShaderC2ERK7GBitmapRK7GMatrix9GTileMode, symObjAddr: 0xF4, symBinAddr: 0x10002C258, symSize: 0xB4 }
  - { offsetInCU: 0x3A6E, offset: 0x50F14, size: 0x8, addend: 0x0, symName: __ZN8MyShaderD1Ev, symObjAddr: 0x220, symBinAddr: 0x10002C30C, symSize: 0x2C }
  - { offsetInCU: 0x3A99, offset: 0x50F3F, size: 0x8, addend: 0x0, symName: __ZN8MyShaderD0Ev, symObjAddr: 0x24C, symBinAddr: 0x10002C338, symSize: 0x30 }
  - { offsetInCU: 0x3AC4, offset: 0x50F6A, size: 0x8, addend: 0x0, symName: __ZN8MyShader8isOpaqueEv, symObjAddr: 0x27C, symBinAddr: 0x10002C368, symSize: 0x110 }
  - { offsetInCU: 0x3B3C, offset: 0x50FE2, size: 0x8, addend: 0x0, symName: __ZN8MyShader10setContextERK7GMatrix, symObjAddr: 0x38C, symBinAddr: 0x10002C478, symSize: 0xA8 }
  - { offsetInCU: 0x3B83, offset: 0x51029, size: 0x8, addend: 0x0, symName: __ZN8MyShader8shadeRowEiiiPj, symObjAddr: 0x434, symBinAddr: 0x10002C520, symSize: 0x4B8 }
  - { offsetInCU: 0x3C7A, offset: 0x51120, size: 0x8, addend: 0x0, symName: __ZN8MyShaderD2Ev, symObjAddr: 0xA2C, symBinAddr: 0x10002C9D8, symSize: 0x2C }
  - { offsetInCU: 0x3CA5, offset: 0x5114B, size: 0x8, addend: 0x0, symName: __ZL11GPixel_GetAj, symObjAddr: 0xBD0, symBinAddr: 0x10002CA04, symSize: 0x1C }
  - { offsetInCU: 0x3CD1, offset: 0x51177, size: 0x8, addend: 0x0, symName: __ZL11GFloorToIntf, symObjAddr: 0xD08, symBinAddr: 0x10002CA20, symSize: 0x18 }
  - { offsetInCU: 0x3CFD, offset: 0x511A3, size: 0x8, addend: 0x0, symName: __ZNSt3__110shared_ptrI7GShaderEC2B8ue170006I8MyShadervEEPT_, symObjAddr: 0xE8C, symBinAddr: 0x10002CA38, symSize: 0x114 }
  - { offsetInCU: 0x3DEE, offset: 0x51294, size: 0x8, addend: 0x0, symName: __ZNSt3__110unique_ptrI8MyShaderNS_14default_deleteIS1_EEEC1B8ue170006ILb1EvEEPS1_, symObjAddr: 0xFA0, symBinAddr: 0x10002CB4C, symSize: 0x34 }
  - { offsetInCU: 0x3E53, offset: 0x512F9, size: 0x8, addend: 0x0, symName: __ZNSt3__19allocatorI8MyShaderEC1B8ue170006Ev, symObjAddr: 0xFD4, symBinAddr: 0x10002CB80, symSize: 0x2C }
  - { offsetInCU: 0x3F17, offset: 0x513BD, size: 0x8, addend: 0x0, symName: __ZNSt3__120__shared_ptr_pointerIP8MyShaderNS_10shared_ptrI7GShaderE27__shared_ptr_default_deleteIS4_S1_EENS_9allocatorIS1_EEEC1B8ue170006ES2_S7_S9_, symObjAddr: 0x1000, symBinAddr: 0x10002CBAC, symSize: 0x34 }
  - { offsetInCU: 0x3F6A, offset: 0x51410, size: 0x8, addend: 0x0, symName: __ZNSt3__110unique_ptrI8MyShaderNS_14default_deleteIS1_EEE7releaseB8ue170006Ev, symObjAddr: 0x1034, symBinAddr: 0x10002CBE0, symSize: 0x44 }
  - { offsetInCU: 0x3F9E, offset: 0x51444, size: 0x8, addend: 0x0, symName: __ZNSt3__110unique_ptrI8MyShaderNS_14default_deleteIS1_EEED1B8ue170006Ev, symObjAddr: 0x10F4, symBinAddr: 0x10002CCA0, symSize: 0x2C }
  - { offsetInCU: 0x3FC7, offset: 0x5146D, size: 0x8, addend: 0x0, symName: __ZNSt3__110unique_ptrI8MyShaderNS_14default_deleteIS1_EEEC2B8ue170006ILb1EvEEPS1_, symObjAddr: 0x1120, symBinAddr: 0x10002CCCC, symSize: 0x44 }
  - { offsetInCU: 0x400F, offset: 0x514B5, size: 0x8, addend: 0x0, symName: __ZNSt3__117__compressed_pairIP8MyShaderNS_14default_deleteIS1_EEEC1B8ue170006IRS2_NS_16__value_init_tagEEEOT_OT0_, symObjAddr: 0x1164, symBinAddr: 0x10002CD10, symSize: 0x3C }
  - { offsetInCU: 0x4066, offset: 0x5150C, size: 0x8, addend: 0x0, symName: __ZNSt3__117__compressed_pairIP8MyShaderNS_14default_deleteIS1_EEEC2B8ue170006IRS2_NS_16__value_init_tagEEEOT_OT0_, symObjAddr: 0x11AC, symBinAddr: 0x10002CD4C, symSize: 0x40 }
  - { offsetInCU: 0x40BD, offset: 0x51563, size: 0x8, addend: 0x0, symName: __ZNSt3__122__compressed_pair_elemIP8MyShaderLi0ELb0EEC2B8ue170006IRS2_vEEOT_, symObjAddr: 0x11EC, symBinAddr: 0x10002CD8C, symSize: 0x24 }
  - { offsetInCU: 0x40FE, offset: 0x515A4, size: 0x8, addend: 0x0, symName: __ZNSt3__122__compressed_pair_elemINS_14default_deleteI8MyShaderEELi1ELb1EEC2B8ue170006ENS_16__value_init_tagE, symObjAddr: 0x1210, symBinAddr: 0x10002CDB0, symSize: 0x14 }
  - { offsetInCU: 0x4132, offset: 0x515D8, size: 0x8, addend: 0x0, symName: __ZNSt3__19allocatorI8MyShaderEC2B8ue170006Ev, symObjAddr: 0x1224, symBinAddr: 0x10002CDC4, symSize: 0x2C }
  - { offsetInCU: 0x415B, offset: 0x51601, size: 0x8, addend: 0x0, symName: __ZNSt3__116__non_trivial_ifILb1ENS_9allocatorI8MyShaderEEEC2B8ue170006Ev, symObjAddr: 0x1250, symBinAddr: 0x10002CDF0, symSize: 0x14 }
  - { offsetInCU: 0x4184, offset: 0x5162A, size: 0x8, addend: 0x0, symName: __ZNSt3__120__shared_ptr_pointerIP8MyShaderNS_10shared_ptrI7GShaderE27__shared_ptr_default_deleteIS4_S1_EENS_9allocatorIS1_EEEC2B8ue170006ES2_S7_S9_, symObjAddr: 0x1264, symBinAddr: 0x10002CE04, symSize: 0xA8 }
  - { offsetInCU: 0x41DD, offset: 0x51683, size: 0x8, addend: 0x0, symName: __ZNSt3__117__compressed_pairIP8MyShaderNS_10shared_ptrI7GShaderE27__shared_ptr_default_deleteIS4_S1_EEEC1B8ue170006IRS2_S7_EEOT_OT0_, symObjAddr: 0x1360, symBinAddr: 0x10002CEAC, symSize: 0x3C }
  - { offsetInCU: 0x4240, offset: 0x516E6, size: 0x8, addend: 0x0, symName: __ZNSt3__117__compressed_pairINS0_IP8MyShaderNS_10shared_ptrI7GShaderE27__shared_ptr_default_deleteIS4_S1_EEEENS_9allocatorIS1_EEEC1B8ue170006IS8_SA_EEOT_OT0_, symObjAddr: 0x139C, symBinAddr: 0x10002CEE8, symSize: 0x3C }
  - { offsetInCU: 0x4297, offset: 0x5173D, size: 0x8, addend: 0x0, symName: __ZNSt3__120__shared_ptr_pointerIP8MyShaderNS_10shared_ptrI7GShaderE27__shared_ptr_default_deleteIS4_S1_EENS_9allocatorIS1_EEED1Ev, symObjAddr: 0x13D8, symBinAddr: 0x10002CF24, symSize: 0x2C }
  - { offsetInCU: 0x42C2, offset: 0x51768, size: 0x8, addend: 0x0, symName: __ZNSt3__120__shared_ptr_pointerIP8MyShaderNS_10shared_ptrI7GShaderE27__shared_ptr_default_deleteIS4_S1_EENS_9allocatorIS1_EEED0Ev, symObjAddr: 0x1404, symBinAddr: 0x10002CF50, symSize: 0x30 }
  - { offsetInCU: 0x42ED, offset: 0x51793, size: 0x8, addend: 0x0, symName: __ZNSt3__120__shared_ptr_pointerIP8MyShaderNS_10shared_ptrI7GShaderE27__shared_ptr_default_deleteIS4_S1_EENS_9allocatorIS1_EEE16__on_zero_sharedEv, symObjAddr: 0x1434, symBinAddr: 0x10002CF80, symSize: 0x64 }
  - { offsetInCU: 0x4315, offset: 0x517BB, size: 0x8, addend: 0x0, symName: __ZNKSt3__120__shared_ptr_pointerIP8MyShaderNS_10shared_ptrI7GShaderE27__shared_ptr_default_deleteIS4_S1_EENS_9allocatorIS1_EEE13__get_deleterERKSt9type_info, symObjAddr: 0x1498, symBinAddr: 0x10002CFE4, symSize: 0x68 }
  - { offsetInCU: 0x4348, offset: 0x517EE, size: 0x8, addend: 0x0, symName: __ZNSt3__120__shared_ptr_pointerIP8MyShaderNS_10shared_ptrI7GShaderE27__shared_ptr_default_deleteIS4_S1_EENS_9allocatorIS1_EEE21__on_zero_shared_weakEv, symObjAddr: 0x1500, symBinAddr: 0x10002D04C, symSize: 0x60 }
  - { offsetInCU: 0x438B, offset: 0x51831, size: 0x8, addend: 0x0, symName: __ZNSt3__117__compressed_pairIP8MyShaderNS_10shared_ptrI7GShaderE27__shared_ptr_default_deleteIS4_S1_EEEC2B8ue170006IRS2_S7_EEOT_OT0_, symObjAddr: 0x1590, symBinAddr: 0x10002D0AC, symSize: 0x44 }
  - { offsetInCU: 0x43E2, offset: 0x51888, size: 0x8, addend: 0x0, symName: __ZNSt3__122__compressed_pair_elemINS_10shared_ptrI7GShaderE27__shared_ptr_default_deleteIS2_8MyShaderEELi1ELb1EEC2B8ue170006IS6_vEEOT_, symObjAddr: 0x15D4, symBinAddr: 0x10002D0F0, symSize: 0x18 }
  - { offsetInCU: 0x4423, offset: 0x518C9, size: 0x8, addend: 0x0, symName: __ZNSt3__117__compressed_pairINS0_IP8MyShaderNS_10shared_ptrI7GShaderE27__shared_ptr_default_deleteIS4_S1_EEEENS_9allocatorIS1_EEEC2B8ue170006IS8_SA_EEOT_OT0_, symObjAddr: 0x15EC, symBinAddr: 0x10002D108, symSize: 0x44 }
  - { offsetInCU: 0x447A, offset: 0x51920, size: 0x8, addend: 0x0, symName: __ZNSt3__122__compressed_pair_elemINS_17__compressed_pairIP8MyShaderNS_10shared_ptrI7GShaderE27__shared_ptr_default_deleteIS5_S2_EEEELi0ELb0EEC2B8ue170006IS9_vEEOT_, symObjAddr: 0x1630, symBinAddr: 0x10002D14C, symSize: 0x24 }
  - { offsetInCU: 0x44BB, offset: 0x51961, size: 0x8, addend: 0x0, symName: __ZNSt3__122__compressed_pair_elemINS_9allocatorI8MyShaderEELi1ELb1EEC2B8ue170006IS3_vEEOT_, symObjAddr: 0x1654, symBinAddr: 0x10002D170, symSize: 0x18 }
  - { offsetInCU: 0x44FC, offset: 0x519A2, size: 0x8, addend: 0x0, symName: __ZNSt3__120__shared_ptr_pointerIP8MyShaderNS_10shared_ptrI7GShaderE27__shared_ptr_default_deleteIS4_S1_EENS_9allocatorIS1_EEED2Ev, symObjAddr: 0x166C, symBinAddr: 0x10002D188, symSize: 0x2C }
  - { offsetInCU: 0x4527, offset: 0x519CD, size: 0x8, addend: 0x0, symName: __ZNSt3__117__compressed_pairINS0_IP8MyShaderNS_10shared_ptrI7GShaderE27__shared_ptr_default_deleteIS4_S1_EEEENS_9allocatorIS1_EEE5firstB8ue170006Ev, symObjAddr: 0x1698, symBinAddr: 0x10002D1B4, symSize: 0x24 }
  - { offsetInCU: 0x454B, offset: 0x519F1, size: 0x8, addend: 0x0, symName: __ZNSt3__117__compressed_pairIP8MyShaderNS_10shared_ptrI7GShaderE27__shared_ptr_default_deleteIS4_S1_EEE6secondB8ue170006Ev, symObjAddr: 0x16BC, symBinAddr: 0x10002D1D8, symSize: 0x24 }
  - { offsetInCU: 0x456F, offset: 0x51A15, size: 0x8, addend: 0x0, symName: __ZNKSt3__114default_deleteI8MyShaderEclB8ue170006EPS1_, symObjAddr: 0x16E0, symBinAddr: 0x10002D1FC, symSize: 0x4C }
  - { offsetInCU: 0x45A1, offset: 0x51A47, size: 0x8, addend: 0x0, symName: __ZNSt3__117__compressed_pairIP8MyShaderNS_10shared_ptrI7GShaderE27__shared_ptr_default_deleteIS4_S1_EEE5firstB8ue170006Ev, symObjAddr: 0x172C, symBinAddr: 0x10002D248, symSize: 0x24 }
  - { offsetInCU: 0x45C5, offset: 0x51A6B, size: 0x8, addend: 0x0, symName: __ZNSt3__122__compressed_pair_elemINS_17__compressed_pairIP8MyShaderNS_10shared_ptrI7GShaderE27__shared_ptr_default_deleteIS5_S2_EEEELi0ELb0EE5__getB8ue170006Ev, symObjAddr: 0x1750, symBinAddr: 0x10002D26C, symSize: 0x14 }
  - { offsetInCU: 0x45E9, offset: 0x51A8F, size: 0x8, addend: 0x0, symName: __ZNSt3__122__compressed_pair_elemINS_10shared_ptrI7GShaderE27__shared_ptr_default_deleteIS2_8MyShaderEELi1ELb1EE5__getB8ue170006Ev, symObjAddr: 0x1764, symBinAddr: 0x10002D280, symSize: 0x14 }
  - { offsetInCU: 0x460D, offset: 0x51AB3, size: 0x8, addend: 0x0, symName: __ZNSt3__122__compressed_pair_elemIP8MyShaderLi0ELb0EE5__getB8ue170006Ev, symObjAddr: 0x1778, symBinAddr: 0x10002D294, symSize: 0x14 }
  - { offsetInCU: 0x4631, offset: 0x51AD7, size: 0x8, addend: 0x0, symName: __ZNKSt3__117__compressed_pairINS0_IP8MyShaderNS_10shared_ptrI7GShaderE27__shared_ptr_default_deleteIS4_S1_EEEENS_9allocatorIS1_EEE5firstB8ue170006Ev, symObjAddr: 0x1868, symBinAddr: 0x10002D2A8, symSize: 0x24 }
  - { offsetInCU: 0x4655, offset: 0x51AFB, size: 0x8, addend: 0x0, symName: __ZNKSt3__117__compressed_pairIP8MyShaderNS_10shared_ptrI7GShaderE27__shared_ptr_default_deleteIS4_S1_EEE6secondB8ue170006Ev, symObjAddr: 0x188C, symBinAddr: 0x10002D2CC, symSize: 0x24 }
  - { offsetInCU: 0x4679, offset: 0x51B1F, size: 0x8, addend: 0x0, symName: __ZNKSt3__122__compressed_pair_elemINS_17__compressed_pairIP8MyShaderNS_10shared_ptrI7GShaderE27__shared_ptr_default_deleteIS5_S2_EEEELi0ELb0EE5__getB8ue170006Ev, symObjAddr: 0x18D0, symBinAddr: 0x10002D2F0, symSize: 0x14 }
  - { offsetInCU: 0x469D, offset: 0x51B43, size: 0x8, addend: 0x0, symName: __ZNKSt3__122__compressed_pair_elemINS_10shared_ptrI7GShaderE27__shared_ptr_default_deleteIS2_8MyShaderEELi1ELb1EE5__getB8ue170006Ev, symObjAddr: 0x18E4, symBinAddr: 0x10002D304, symSize: 0x14 }
  - { offsetInCU: 0x46C1, offset: 0x51B67, size: 0x8, addend: 0x0, symName: __ZNSt3__117__compressed_pairINS0_IP8MyShaderNS_10shared_ptrI7GShaderE27__shared_ptr_default_deleteIS4_S1_EEEENS_9allocatorIS1_EEE6secondB8ue170006Ev, symObjAddr: 0x18F8, symBinAddr: 0x10002D318, symSize: 0x24 }
  - { offsetInCU: 0x470D, offset: 0x51BB3, size: 0x8, addend: 0x0, symName: __ZNSt3__19allocatorINS_20__shared_ptr_pointerIP8MyShaderNS_10shared_ptrI7GShaderE27__shared_ptr_default_deleteIS5_S2_EENS0_IS2_EEEEEC1B8ue170006IS2_EERKNS0_IT_EE, symObjAddr: 0x191C, symBinAddr: 0x10002D33C, symSize: 0x34 }
  - { offsetInCU: 0x474A, offset: 0x51BF0, size: 0x8, addend: 0x0, symName: __ZNSt3__19allocatorINS_20__shared_ptr_pointerIP8MyShaderNS_10shared_ptrI7GShaderE27__shared_ptr_default_deleteIS5_S2_EENS0_IS2_EEEEE10deallocateB8ue170006EPSA_m, symObjAddr: 0x1950, symBinAddr: 0x10002D370, symSize: 0x40 }
  - { offsetInCU: 0x478B, offset: 0x51C31, size: 0x8, addend: 0x0, symName: __ZNSt3__114pointer_traitsIPNS_20__shared_ptr_pointerIP8MyShaderNS_10shared_ptrI7GShaderE27__shared_ptr_default_deleteIS5_S2_EENS_9allocatorIS2_EEEEE10pointer_toB8ue170006ERSB_, symObjAddr: 0x1990, symBinAddr: 0x10002D3B0, symSize: 0x14 }
  - { offsetInCU: 0x47AD, offset: 0x51C53, size: 0x8, addend: 0x0, symName: __ZNSt3__122__compressed_pair_elemINS_9allocatorI8MyShaderEELi1ELb1EE5__getB8ue170006Ev, symObjAddr: 0x19A4, symBinAddr: 0x10002D3C4, symSize: 0x14 }
  - { offsetInCU: 0x47D1, offset: 0x51C77, size: 0x8, addend: 0x0, symName: __ZNSt3__19allocatorINS_20__shared_ptr_pointerIP8MyShaderNS_10shared_ptrI7GShaderE27__shared_ptr_default_deleteIS5_S2_EENS0_IS2_EEEEEC2B8ue170006IS2_EERKNS0_IT_EE, symObjAddr: 0x19B8, symBinAddr: 0x10002D3D8, symSize: 0x30 }
  - { offsetInCU: 0x480E, offset: 0x51CB4, size: 0x8, addend: 0x0, symName: __ZNSt3__116__non_trivial_ifILb1ENS_9allocatorINS_20__shared_ptr_pointerIP8MyShaderNS_10shared_ptrI7GShaderE27__shared_ptr_default_deleteIS6_S3_EENS1_IS3_EEEEEEEC2B8ue170006Ev, symObjAddr: 0x19E8, symBinAddr: 0x10002D408, symSize: 0x14 }
  - { offsetInCU: 0x4837, offset: 0x51CDD, size: 0x8, addend: 0x0, symName: __ZNSt3__117__compressed_pairIP8MyShaderNS_14default_deleteIS1_EEE5firstB8ue170006Ev, symObjAddr: 0x1B24, symBinAddr: 0x10002D41C, symSize: 0x24 }
  - { offsetInCU: 0x485B, offset: 0x51D01, size: 0x8, addend: 0x0, symName: __ZNSt3__110unique_ptrI8MyShaderNS_14default_deleteIS1_EEED2B8ue170006Ev, symObjAddr: 0x20A4, symBinAddr: 0x10002D440, symSize: 0x30 }
  - { offsetInCU: 0x4884, offset: 0x51D2A, size: 0x8, addend: 0x0, symName: __ZNSt3__110unique_ptrI8MyShaderNS_14default_deleteIS1_EEE5resetB8ue170006EPS1_, symObjAddr: 0x20D4, symBinAddr: 0x10002D470, symSize: 0x78 }
  - { offsetInCU: 0x48C8, offset: 0x51D6E, size: 0x8, addend: 0x0, symName: __ZNSt3__117__compressed_pairIP8MyShaderNS_14default_deleteIS1_EEE6secondB8ue170006Ev, symObjAddr: 0x214C, symBinAddr: 0x10002D4E8, symSize: 0x24 }
  - { offsetInCU: 0x48EC, offset: 0x51D92, size: 0x8, addend: 0x0, symName: __ZNSt3__122__compressed_pair_elemINS_14default_deleteI8MyShaderEELi1ELb1EE5__getB8ue170006Ev, symObjAddr: 0x2170, symBinAddr: 0x10002D50C, symSize: 0x14 }
  - { offsetInCU: 0x5B67, offset: 0x57954, size: 0x8, addend: 0x0, symName: __ZNSt3__17advanceB8ue170006INS_15__list_iteratorI4EdgePvEEllvEEvRT_T0_, symObjAddr: 0xCFDC, symBinAddr: 0x100038180, symSize: 0x38 }
  - { offsetInCU: 0x9CC0, offset: 0x5BAAD, size: 0x8, addend: 0x0, symName: __ZNSt3__17advanceB8ue170006IPNS_6vectorI6GPointNS_9allocatorIS2_EEEEllvEEvRT_T0_, symObjAddr: 0x12338, symBinAddr: 0x10003CCDC, symSize: 0x38 }
  - { offsetInCU: 0x9E6E, offset: 0x5BC5B, size: 0x8, addend: 0x0, symName: __ZNSt3__17advanceB8ue170006IP6GPointllvEEvRT_T0_, symObjAddr: 0x13000, symBinAddr: 0x10003D8F0, symSize: 0x38 }
  - { offsetInCU: 0x9EDA, offset: 0x5BCC7, size: 0x8, addend: 0x0, symName: '__ZNSt3__111__introsortINS_17_ClassicAlgPolicyERZN8MyCanvas8drawPathERK5GPathRK6GPaintE3$_1P4EdgeLb0EEEvT1_SD_T0_NS_15iterator_traitsISD_E15difference_typeEb', symObjAddr: 0x145AC, symBinAddr: 0x10003DE7C, symSize: 0x470 }
  - { offsetInCU: 0xA012, offset: 0x5BDFF, size: 0x8, addend: 0x0, symName: '__ZNSt3__126__insertion_sort_unguardedB8ue170006INS_17_ClassicAlgPolicyERZN8MyCanvas8drawPathERK5GPathRK6GPaintE3$_1P4EdgeEEvT1_SD_T0_', symObjAddr: 0x14CE4, symBinAddr: 0x10003E5B4, symSize: 0x130 }
  - { offsetInCU: 0xA10B, offset: 0x5BEF8, size: 0x8, addend: 0x0, symName: '__ZNSt3__111__sift_downB8ue170006INS_17_ClassicAlgPolicyERZN8MyCanvas8drawPathERK5GPathRK6GPaintE3$_1P4EdgeEEvT1_OT0_NS_15iterator_traitsISD_E15difference_typeESD_', symObjAddr: 0x15F34, symBinAddr: 0x10003F804, symSize: 0x22C }
  - { offsetInCU: 0xA1B8, offset: 0x5BFA5, size: 0x8, addend: 0x0, symName: '__ZNSt3__117__floyd_sift_downB8ue170006INS_17_ClassicAlgPolicyERZN8MyCanvas8drawPathERK5GPathRK6GPaintE3$_1P4EdgeEET1_SD_OT0_NS_15iterator_traitsISD_E15difference_typeE', symObjAddr: 0x16314, symBinAddr: 0x10003FBE4, symSize: 0x10C }
  - { offsetInCU: 0xA250, offset: 0x5C03D, size: 0x8, addend: 0x0, symName: '__ZNSt3__131__partition_with_equals_on_leftB8ue170006INS_17_ClassicAlgPolicyEP4EdgeRZN8MyCanvas8drawPathERK5GPathRK6GPaintE3$_1EET0_SD_SD_T1_', symObjAddr: 0x15020, symBinAddr: 0x10003E8F0, symSize: 0x220 }
  - { offsetInCU: 0xA313, offset: 0x5C100, size: 0x8, addend: 0x0, symName: '__ZNSt3__118__bitset_partitionB8ue170006INS_17_ClassicAlgPolicyEP4EdgeRZN8MyCanvas8drawPathERK5GPathRK6GPaintE3$_1EENS_4pairIT0_bEESE_SE_T1_', symObjAddr: 0x15240, symBinAddr: 0x10003EB10, symSize: 0x348 }
  - { offsetInCU: 0xA41B, offset: 0x5C208, size: 0x8, addend: 0x0, symName: __ZNSt3__124__swap_bitmap_pos_withinB8ue170006INS_17_ClassicAlgPolicyEP4EdgeEEvRT0_S5_RyS6_, symObjAddr: 0x16A98, symBinAddr: 0x100040368, symSize: 0x1E8 }
  - { offsetInCU: 0xA4F1, offset: 0x5C2DE, size: 0x8, addend: 0x0, symName: '__ZNSt3__132__partition_with_equals_on_rightB8ue170006INS_17_ClassicAlgPolicyEP4EdgeRZN8MyCanvas8drawPathERK5GPathRK6GPaintE3$_1EENS_4pairIT0_bEESE_SE_T1_', symObjAddr: 0x15588, symBinAddr: 0x10003EE58, symSize: 0x234 }
  - { offsetInCU: 0xA5C4, offset: 0x5C3B1, size: 0x8, addend: 0x0, symName: '__ZNSt3__127__insertion_sort_incompleteB8ue170006INS_17_ClassicAlgPolicyERZN8MyCanvas8drawPathERK5GPathRK6GPaintE3$_1P4EdgeEEbT1_SD_T0_', symObjAddr: 0x157BC, symBinAddr: 0x10003F08C, symSize: 0x314 }
  - { offsetInCU: 0xA6C3, offset: 0x5C4B0, size: 0x8, addend: 0x0, symName: '__ZNSt3__111__introsortINS_17_ClassicAlgPolicyERZN8MyCanvas8drawPathERK5GPathRK6GPaintE3$_2P4EdgeLb0EEEvT1_SD_T0_NS_15iterator_traitsISD_E15difference_typeEb', symObjAddr: 0x16F94, symBinAddr: 0x100040864, symSize: 0x470 }
  - { offsetInCU: 0xA7FB, offset: 0x5C5E8, size: 0x8, addend: 0x0, symName: '__ZNSt3__126__insertion_sort_unguardedB8ue170006INS_17_ClassicAlgPolicyERZN8MyCanvas8drawPathERK5GPathRK6GPaintE3$_2P4EdgeEEvT1_SD_T0_', symObjAddr: 0x176A8, symBinAddr: 0x100040F78, symSize: 0x130 }
  - { offsetInCU: 0xA8F4, offset: 0x5C6E1, size: 0x8, addend: 0x0, symName: '__ZNSt3__111__sift_downB8ue170006INS_17_ClassicAlgPolicyERZN8MyCanvas8drawPathERK5GPathRK6GPaintE3$_2P4EdgeEEvT1_OT0_NS_15iterator_traitsISD_E15difference_typeESD_', symObjAddr: 0x187E8, symBinAddr: 0x1000420B8, symSize: 0x22C }
  - { offsetInCU: 0xA9A1, offset: 0x5C78E, size: 0x8, addend: 0x0, symName: '__ZNSt3__117__floyd_sift_downB8ue170006INS_17_ClassicAlgPolicyERZN8MyCanvas8drawPathERK5GPathRK6GPaintE3$_2P4EdgeEET1_SD_OT0_NS_15iterator_traitsISD_E15difference_typeE', symObjAddr: 0x18BC8, symBinAddr: 0x100042498, symSize: 0x10C }
  - { offsetInCU: 0xAA39, offset: 0x5C826, size: 0x8, addend: 0x0, symName: '__ZNSt3__131__partition_with_equals_on_leftB8ue170006INS_17_ClassicAlgPolicyEP4EdgeRZN8MyCanvas8drawPathERK5GPathRK6GPaintE3$_2EET0_SD_SD_T1_', symObjAddr: 0x179B0, symBinAddr: 0x100041280, symSize: 0x220 }
  - { offsetInCU: 0xAAFC, offset: 0x5C8E9, size: 0x8, addend: 0x0, symName: '__ZNSt3__118__bitset_partitionB8ue170006INS_17_ClassicAlgPolicyEP4EdgeRZN8MyCanvas8drawPathERK5GPathRK6GPaintE3$_2EENS_4pairIT0_bEESE_SE_T1_', symObjAddr: 0x17BD0, symBinAddr: 0x1000414A0, symSize: 0x348 }
  - { offsetInCU: 0xAC04, offset: 0x5C9F1, size: 0x8, addend: 0x0, symName: '__ZNSt3__132__partition_with_equals_on_rightB8ue170006INS_17_ClassicAlgPolicyEP4EdgeRZN8MyCanvas8drawPathERK5GPathRK6GPaintE3$_2EENS_4pairIT0_bEESE_SE_T1_', symObjAddr: 0x17F18, symBinAddr: 0x1000417E8, symSize: 0x234 }
  - { offsetInCU: 0xACD7, offset: 0x5CAC4, size: 0x8, addend: 0x0, symName: '__ZNSt3__127__insertion_sort_incompleteB8ue170006INS_17_ClassicAlgPolicyERZN8MyCanvas8drawPathERK5GPathRK6GPaintE3$_2P4EdgeEEbT1_SD_T0_', symObjAddr: 0x1814C, symBinAddr: 0x100041A1C, symSize: 0x314 }
  - { offsetInCU: 0xB907, offset: 0x5D6F4, size: 0x8, addend: 0x0, symName: __ZNSt3__13minB8ue170006IfEERKT_S3_S3_, symObjAddr: 0x1120, symBinAddr: 0x10002E5E4, symSize: 0x2C }
  - { offsetInCU: 0xB94B, offset: 0x5D738, size: 0x8, addend: 0x0, symName: __ZNSt3__13maxB8ue170006IfEERKT_S3_S3_, symObjAddr: 0x114C, symBinAddr: 0x10002E610, symSize: 0x2C }
  - { offsetInCU: 0xC703, offset: 0x5E4F0, size: 0x8, addend: 0x0, symName: __ZNSt3__1neB8ue170006IPNS_6vectorI6GPointNS_9allocatorIS2_EEEEEEbRKNS_11__wrap_iterIT_EESB_, symObjAddr: 0x3D5C, symBinAddr: 0x100031054, symSize: 0x34 }
  - { offsetInCU: 0xC747, offset: 0x5E534, size: 0x8, addend: 0x0, symName: '__ZNSt3__14sortB8ue170006INS_11__wrap_iterIP4EdgeEEZN8MyCanvas8drawPathERK5GPathRK6GPaintE3$_1EEvT_SD_T0_', symObjAddr: 0x4138, symBinAddr: 0x100031308, symSize: 0x40 }
  - { offsetInCU: 0xC7A5, offset: 0x5E592, size: 0x8, addend: 0x0, symName: __ZNSt3__1neB8ue170006IP4EdgeEEbRKNS_11__wrap_iterIT_EES7_, symObjAddr: 0x41D8, symBinAddr: 0x1000313A8, symSize: 0x34 }
  - { offsetInCU: 0xC7E9, offset: 0x5E5D6, size: 0x8, addend: 0x0, symName: '__ZNSt3__14sortB8ue170006INS_11__wrap_iterIP4EdgeEEZN8MyCanvas8drawPathERK5GPathRK6GPaintE3$_2EEvT_SD_T0_', symObjAddr: 0x42C4, symBinAddr: 0x100031494, symSize: 0x48 }
  - { offsetInCU: 0xC847, offset: 0x5E634, size: 0x8, addend: 0x0, symName: __ZNSt3__13minB8ue170006IfNS_6__lessIvvEEEERKT_S5_S5_T0_, symObjAddr: 0x6DF8, symBinAddr: 0x100033E08, symSize: 0x54 }
  - { offsetInCU: 0xC94B, offset: 0x5E738, size: 0x8, addend: 0x0, symName: __ZNSt3__13maxB8ue170006IfNS_6__lessIvvEEEERKT_S5_S5_T0_, symObjAddr: 0x6E80, symBinAddr: 0x100033E90, symSize: 0x54 }
  - { offsetInCU: 0xC9D9, offset: 0x5E7C6, size: 0x8, addend: 0x0, symName: __ZNSt3__127__throw_bad_optional_accessB8ue170006Ev, symObjAddr: 0x76F4, symBinAddr: 0x100034448, symSize: 0x38 }
  - { offsetInCU: 0xC9F4, offset: 0x5E7E1, size: 0x8, addend: 0x0, symName: __ZNSt3__1eqB8ue170006IPNS_6vectorI6GPointNS_9allocatorIS2_EEEEEEbRKNS_11__wrap_iterIT_EESB_, symObjAddr: 0x77D4, symBinAddr: 0x100034504, symSize: 0x48 }
  - { offsetInCU: 0xCA38, offset: 0x5E825, size: 0x8, addend: 0x0, symName: __ZNSt3__1eqB8ue170006IP4EdgeEEbRKNS_11__wrap_iterIT_EES7_, symObjAddr: 0x7834, symBinAddr: 0x100034564, symSize: 0x48 }
  - { offsetInCU: 0xCA7C, offset: 0x5E869, size: 0x8, addend: 0x0, symName: __ZNSt3__112__to_addressB8ue170006I7GMatrixEEPT_S3_, symObjAddr: 0x9458, symBinAddr: 0x100034EF4, symSize: 0x14 }
  - { offsetInCU: 0xCAB2, offset: 0x5E89F, size: 0x8, addend: 0x0, symName: __ZNSt3__119__allocate_at_leastB8ue170006INS_9allocatorI7GMatrixEEEENS_19__allocation_resultINS_16allocator_traitsIT_E7pointerEEERS6_m, symObjAddr: 0xA1CC, symBinAddr: 0x1000358F8, symSize: 0x40 }
  - { offsetInCU: 0xCAF6, offset: 0x5E8E3, size: 0x8, addend: 0x0, symName: __ZNSt3__142__uninitialized_allocator_move_if_noexceptB8ue170006INS_9allocatorI7GMatrixEENS_16reverse_iteratorIPS2_EES6_S2_vEET1_RT_T0_SA_S7_, symObjAddr: 0xA468, symBinAddr: 0x100035AB0, symSize: 0x78 }
  - { offsetInCU: 0xCB77, offset: 0x5E964, size: 0x8, addend: 0x0, symName: __ZNSt3__14swapB8ue170006IP7GMatrixEENS_9enable_ifIXaasr21is_move_constructibleIT_EE5valuesr18is_move_assignableIS4_EE5valueEvE4typeERS4_S7_, symObjAddr: 0xA52C, symBinAddr: 0x100035B74, symSize: 0x3C }
  - { offsetInCU: 0xCBC9, offset: 0x5E9B6, size: 0x8, addend: 0x0, symName: __ZNSt3__14moveB8ue170006INS_16reverse_iteratorIP7GMatrixEES4_EET0_T_S6_S5_, symObjAddr: 0xA630, symBinAddr: 0x100035C78, symSize: 0x78 }
  - { offsetInCU: 0xCC24, offset: 0x5EA11, size: 0x8, addend: 0x0, symName: __ZNSt3__16__moveB8ue170006INS_17_ClassicAlgPolicyENS_16reverse_iteratorIP7GMatrixEES5_S5_EENS_4pairIT0_T2_EES7_T1_S8_, symObjAddr: 0xA6A8, symBinAddr: 0x100035CF0, symSize: 0x64 }
  - { offsetInCU: 0xCC91, offset: 0x5EA7E, size: 0x8, addend: 0x0, symName: __ZNSt3__123__dispatch_copy_or_moveB8ue170006INS_17_ClassicAlgPolicyENS_11__move_loopIS1_EENS_14__move_trivialENS_16reverse_iteratorIP7GMatrixEES8_S8_EENS_4pairIT2_T4_EESA_T3_SB_, symObjAddr: 0xA70C, symBinAddr: 0x100035D54, symSize: 0x64 }
  - { offsetInCU: 0xCD10, offset: 0x5EAFD, size: 0x8, addend: 0x0, symName: __ZNSt3__121__unwrap_and_dispatchB8ue170006INS_10__overloadINS_11__move_loopINS_17_ClassicAlgPolicyEEENS_14__move_trivialEEENS_16reverse_iteratorIP7GMatrixEESA_SA_Li0EEENS_4pairIT0_T2_EESC_T1_SD_, symObjAddr: 0xA770, symBinAddr: 0x100035DB8, symSize: 0x12C }
  - { offsetInCU: 0xCDA2, offset: 0x5EB8F, size: 0x8, addend: 0x0, symName: __ZNSt3__114__unwrap_rangeB8ue170006INS_16reverse_iteratorIP7GMatrixEES4_EENS_4pairIT0_S6_EET_S8_, symObjAddr: 0xA89C, symBinAddr: 0x100035EE4, symSize: 0x84 }
  - { offsetInCU: 0xCF94, offset: 0x5ED81, size: 0x8, addend: 0x0, symName: __ZNSt3__113__unwrap_iterB8ue170006INS_16reverse_iteratorIP7GMatrixEENS_18__unwrap_iter_implIS4_Lb0EEELi0EEEDTclsrT0_8__unwrapclsr3stdE7declvalIT_EEEES8_, symObjAddr: 0xA9C8, symBinAddr: 0x100036010, symSize: 0x44 }
  - { offsetInCU: 0xCFDA, offset: 0x5EDC7, size: 0x8, addend: 0x0, symName: __ZNSt3__19make_pairB8ue170006INS_16reverse_iteratorIP7GMatrixEES4_EENS_4pairINS_18__unwrap_ref_decayIT_E4typeENS6_IT0_E4typeEEEOS7_OSA_, symObjAddr: 0xAA0C, symBinAddr: 0x100036054, symSize: 0x38 }
  - { offsetInCU: 0xD02B, offset: 0x5EE18, size: 0x8, addend: 0x0, symName: __ZNSt3__114__rewrap_rangeB8ue170006INS_16reverse_iteratorIP7GMatrixEES4_EET_S5_T0_, symObjAddr: 0xAA44, symBinAddr: 0x10003608C, symSize: 0x5C }
  - { offsetInCU: 0xD078, offset: 0x5EE65, size: 0x8, addend: 0x0, symName: __ZNSt3__113__rewrap_iterB8ue170006INS_16reverse_iteratorIP7GMatrixEES4_NS_18__unwrap_iter_implIS4_Lb0EEEEET_S7_T0_, symObjAddr: 0xAAA0, symBinAddr: 0x1000360E8, symSize: 0x74 }
  - { offsetInCU: 0xD0CE, offset: 0x5EEBB, size: 0x8, addend: 0x0, symName: __ZNSt3__1neB8ue170006IP7GMatrixS2_EEbRKNS_16reverse_iteratorIT_EERKNS3_IT0_EE, symObjAddr: 0xAB14, symBinAddr: 0x10003615C, symSize: 0x48 }
  - { offsetInCU: 0xD302, offset: 0x5F0EF, size: 0x8, addend: 0x0, symName: __ZNSt3__122__make_exception_guardB8ue170006INS_6vectorIjNS_9allocatorIjEEE16__destroy_vectorEEENS_28__exception_guard_exceptionsIT_EES7_, symObjAddr: 0xB574, symBinAddr: 0x100036718, symSize: 0x40 }
  - { offsetInCU: 0xD338, offset: 0x5F125, size: 0x8, addend: 0x0, symName: __ZNSt3__119__allocate_at_leastB8ue170006INS_9allocatorIjEEEENS_19__allocation_resultINS_16allocator_traitsIT_E7pointerEEERS5_m, symObjAddr: 0xB960, symBinAddr: 0x100036B04, symSize: 0x40 }
  - { offsetInCU: 0xD37C, offset: 0x5F169, size: 0x8, addend: 0x0, symName: __ZNSt3__112__to_addressB8ue170006IjEEPT_S2_, symObjAddr: 0xBC84, symBinAddr: 0x100036E28, symSize: 0x14 }
  - { offsetInCU: 0xD3D0, offset: 0x5F1BD, size: 0x8, addend: 0x0, symName: __ZNSt3__14nextB8ue170006INS_15__list_iteratorI4EdgePvEEEENS_9enable_ifIXsr29__has_input_iterator_categoryIT_EE5valueES6_E4typeES6_NS_15iterator_traitsIS6_E15difference_typeE, symObjAddr: 0xCF1C, symBinAddr: 0x1000380C0, symSize: 0x3C }
  - { offsetInCU: 0xD414, offset: 0x5F201, size: 0x8, addend: 0x0, symName: __ZNSt3__1neB8ue170006ERKNS_15__list_iteratorI4EdgePvEES5_, symObjAddr: 0xCF58, symBinAddr: 0x1000380FC, symSize: 0x34 }
  - { offsetInCU: 0xD453, offset: 0x5F240, size: 0x8, addend: 0x0, symName: __ZNSt3__1eqB8ue170006ERKNS_15__list_iteratorI4EdgePvEES5_, symObjAddr: 0xCFAC, symBinAddr: 0x100038150, symSize: 0x30 }
  - { offsetInCU: 0xD493, offset: 0x5F280, size: 0x8, addend: 0x0, symName: __ZNSt3__19__advanceB8ue170006INS_15__list_iteratorI4EdgePvEEEEvRT_NS_15iterator_traitsIS5_E15difference_typeENS_26bidirectional_iterator_tagE, symObjAddr: 0xD028, symBinAddr: 0x1000381B8, symSize: 0xA4 }
  - { offsetInCU: 0xD4DE, offset: 0x5F2CB, size: 0x8, addend: 0x0, symName: __ZNSt3__112__to_addressB8ue170006I4EdgeEEPT_S3_, symObjAddr: 0xD64C, symBinAddr: 0x1000387DC, symSize: 0x14 }
  - { offsetInCU: 0xD514, offset: 0x5F301, size: 0x8, addend: 0x0, symName: __ZNSt3__119__allocate_at_leastB8ue170006INS_9allocatorI4EdgeEEEENS_19__allocation_resultINS_16allocator_traitsIT_E7pointerEEERS6_m, symObjAddr: 0xDF34, symBinAddr: 0x1000390C4, symSize: 0x40 }
  - { offsetInCU: 0xD558, offset: 0x5F345, size: 0x8, addend: 0x0, symName: __ZNSt3__142__uninitialized_allocator_move_if_noexceptB8ue170006INS_9allocatorI4EdgeEENS_16reverse_iteratorIPS2_EES6_S2_vEET1_RT_T0_SA_S7_, symObjAddr: 0xE0EC, symBinAddr: 0x10003927C, symSize: 0x78 }
  - { offsetInCU: 0xD5D9, offset: 0x5F3C6, size: 0x8, addend: 0x0, symName: __ZNSt3__14swapB8ue170006IP4EdgeEENS_9enable_ifIXaasr21is_move_constructibleIT_EE5valuesr18is_move_assignableIS4_EE5valueEvE4typeERS4_S7_, symObjAddr: 0xE1B0, symBinAddr: 0x100039340, symSize: 0x3C }
  - { offsetInCU: 0xD62B, offset: 0x5F418, size: 0x8, addend: 0x0, symName: __ZNSt3__14moveB8ue170006INS_16reverse_iteratorIP4EdgeEES4_EET0_T_S6_S5_, symObjAddr: 0xE2B4, symBinAddr: 0x100039444, symSize: 0x78 }
  - { offsetInCU: 0xD686, offset: 0x5F473, size: 0x8, addend: 0x0, symName: __ZNSt3__16__moveB8ue170006INS_17_ClassicAlgPolicyENS_16reverse_iteratorIP4EdgeEES5_S5_EENS_4pairIT0_T2_EES7_T1_S8_, symObjAddr: 0xE32C, symBinAddr: 0x1000394BC, symSize: 0x64 }
  - { offsetInCU: 0xD6F3, offset: 0x5F4E0, size: 0x8, addend: 0x0, symName: __ZNSt3__123__dispatch_copy_or_moveB8ue170006INS_17_ClassicAlgPolicyENS_11__move_loopIS1_EENS_14__move_trivialENS_16reverse_iteratorIP4EdgeEES8_S8_EENS_4pairIT2_T4_EESA_T3_SB_, symObjAddr: 0xE390, symBinAddr: 0x100039520, symSize: 0x64 }
  - { offsetInCU: 0xD772, offset: 0x5F55F, size: 0x8, addend: 0x0, symName: __ZNSt3__121__unwrap_and_dispatchB8ue170006INS_10__overloadINS_11__move_loopINS_17_ClassicAlgPolicyEEENS_14__move_trivialEEENS_16reverse_iteratorIP4EdgeEESA_SA_Li0EEENS_4pairIT0_T2_EESC_T1_SD_, symObjAddr: 0xE3F4, symBinAddr: 0x100039584, symSize: 0x12C }
  - { offsetInCU: 0xD804, offset: 0x5F5F1, size: 0x8, addend: 0x0, symName: __ZNSt3__114__unwrap_rangeB8ue170006INS_16reverse_iteratorIP4EdgeEES4_EENS_4pairIT0_S6_EET_S8_, symObjAddr: 0xE520, symBinAddr: 0x1000396B0, symSize: 0x84 }
  - { offsetInCU: 0xD926, offset: 0x5F713, size: 0x8, addend: 0x0, symName: __ZNSt3__113__unwrap_iterB8ue170006INS_16reverse_iteratorIP4EdgeEENS_18__unwrap_iter_implIS4_Lb0EEELi0EEEDTclsrT0_8__unwrapclsr3stdE7declvalIT_EEEES8_, symObjAddr: 0xE640, symBinAddr: 0x1000397D0, symSize: 0x44 }
  - { offsetInCU: 0xD96C, offset: 0x5F759, size: 0x8, addend: 0x0, symName: __ZNSt3__19make_pairB8ue170006INS_16reverse_iteratorIP4EdgeEES4_EENS_4pairINS_18__unwrap_ref_decayIT_E4typeENS6_IT0_E4typeEEEOS7_OSA_, symObjAddr: 0xE684, symBinAddr: 0x100039814, symSize: 0x38 }
  - { offsetInCU: 0xD9BD, offset: 0x5F7AA, size: 0x8, addend: 0x0, symName: __ZNSt3__114__rewrap_rangeB8ue170006INS_16reverse_iteratorIP4EdgeEES4_EET_S5_T0_, symObjAddr: 0xE6BC, symBinAddr: 0x10003984C, symSize: 0x5C }
  - { offsetInCU: 0xDA0A, offset: 0x5F7F7, size: 0x8, addend: 0x0, symName: __ZNSt3__113__rewrap_iterB8ue170006INS_16reverse_iteratorIP4EdgeEES4_NS_18__unwrap_iter_implIS4_Lb0EEEEET_S7_T0_, symObjAddr: 0xE718, symBinAddr: 0x1000398A8, symSize: 0x74 }
  - { offsetInCU: 0xDA60, offset: 0x5F84D, size: 0x8, addend: 0x0, symName: __ZNSt3__1neB8ue170006IP4EdgeS2_EEbRKNS_16reverse_iteratorIT_EERKNS3_IT0_EE, symObjAddr: 0xE78C, symBinAddr: 0x10003991C, symSize: 0x48 }
  - { offsetInCU: 0xDB1A, offset: 0x5F907, size: 0x8, addend: 0x0, symName: __ZNSt3__112__to_addressB8ue170006INS_6vectorI6GPointNS_9allocatorIS2_EEEEEEPT_S7_, symObjAddr: 0xEFE4, symBinAddr: 0x10003A174, symSize: 0x14 }
  - { offsetInCU: 0xDB50, offset: 0x5F93D, size: 0x8, addend: 0x0, symName: __ZNSt3__119__allocate_at_leastB8ue170006INS_9allocatorINS_6vectorI6GPointNS1_IS3_EEEEEEEENS_19__allocation_resultINS_16allocator_traitsIT_E7pointerEEERS9_m, symObjAddr: 0xFAE0, symBinAddr: 0x10003AA64, symSize: 0x40 }
  - { offsetInCU: 0xDB94, offset: 0x5F981, size: 0x8, addend: 0x0, symName: __ZNSt3__142__uninitialized_allocator_move_if_noexceptB8ue170006INS_9allocatorINS_6vectorI6GPointNS1_IS3_EEEEEENS_16reverse_iteratorIPS5_EES9_S9_EET2_RT_T0_T1_SA_, symObjAddr: 0xFC98, symBinAddr: 0x10003AC1C, symSize: 0x12C }
  - { offsetInCU: 0xDC3A, offset: 0x5FA27, size: 0x8, addend: 0x0, symName: __ZNSt3__14swapB8ue170006IPNS_6vectorI6GPointNS_9allocatorIS2_EEEEEENS_9enable_ifIXaasr21is_move_constructibleIT_EE5valuesr18is_move_assignableIS8_EE5valueEvE4typeERS8_SB_, symObjAddr: 0xFE10, symBinAddr: 0x10003AD94, symSize: 0x3C }
  - { offsetInCU: 0xDC8C, offset: 0x5FA79, size: 0x8, addend: 0x0, symName: __ZNSt3__122__make_exception_guardB8ue170006INS_29_AllocatorDestroyRangeReverseINS_9allocatorINS_6vectorI6GPointNS2_IS4_EEEEEENS_16reverse_iteratorIPS6_EEEEEENS_28__exception_guard_exceptionsIT_EESD_, symObjAddr: 0xFF14, symBinAddr: 0x10003AE98, symSize: 0x4C }
  - { offsetInCU: 0xDCC3, offset: 0x5FAB0, size: 0x8, addend: 0x0, symName: __ZNSt3__1neB8ue170006IPNS_6vectorI6GPointNS_9allocatorIS2_EEEES6_EEbRKNS_16reverse_iteratorIT_EERKNS7_IT0_EE, symObjAddr: 0xFFA4, symBinAddr: 0x10003AF28, symSize: 0x48 }
  - { offsetInCU: 0xDD10, offset: 0x5FAFD, size: 0x8, addend: 0x0, symName: __ZNSt3__112__to_addressB8ue170006INS_16reverse_iteratorIPNS_6vectorI6GPointNS_9allocatorIS3_EEEEEEvEEu7__decayIDTclsr19__to_address_helperIT_EE6__callclsr3stdE7declvalIRKS9_EEEEESB_, symObjAddr: 0xFFEC, symBinAddr: 0x10003AF70, symSize: 0x24 }
  - { offsetInCU: 0xDD71, offset: 0x5FB5E, size: 0x8, addend: 0x0, symName: __ZNSt3__119__allocator_destroyB8ue170006INS_9allocatorINS_6vectorI6GPointNS1_IS3_EEEEEENS_16reverse_iteratorINS7_IPS5_EEEESA_EEvRT_T0_T1_, symObjAddr: 0x1029C, symBinAddr: 0x10003B220, symSize: 0x70 }
  - { offsetInCU: 0xDDDA, offset: 0x5FBC7, size: 0x8, addend: 0x0, symName: __ZNSt3__1neB8ue170006INS_16reverse_iteratorIPNS_6vectorI6GPointNS_9allocatorIS3_EEEEEES8_EEbRKNS1_IT_EERKNS1_IT0_EE, symObjAddr: 0x10348, symBinAddr: 0x10003B2CC, symSize: 0x60 }
  - { offsetInCU: 0xDE27, offset: 0x5FC14, size: 0x8, addend: 0x0, symName: __ZNSt3__112__to_addressB8ue170006INS_16reverse_iteratorINS1_IPNS_6vectorI6GPointNS_9allocatorIS3_EEEEEEEEvEEu7__decayIDTclsr19__to_address_helperIT_EE6__callclsr3stdE7declvalIRKSA_EEEEESC_, symObjAddr: 0x103A8, symBinAddr: 0x10003B32C, symSize: 0x24 }
  - { offsetInCU: 0xDE88, offset: 0x5FC75, size: 0x8, addend: 0x0, symName: __ZNSt3__130__uninitialized_allocator_copyB8ue170006INS_9allocatorI6GPointEEPKS2_S5_PS2_EET2_RT_T0_T1_S7_, symObjAddr: 0x10E14, symBinAddr: 0x10003B890, symSize: 0x80 }
  - { offsetInCU: 0xDF2B, offset: 0x5FD18, size: 0x8, addend: 0x0, symName: __ZNSt3__114__unwrap_rangeB8ue170006IPK6GPointS3_EENS_4pairIT0_S5_EET_S7_, symObjAddr: 0x10F04, symBinAddr: 0x10003B910, symSize: 0x60 }
  - { offsetInCU: 0xDF78, offset: 0x5FD65, size: 0x8, addend: 0x0, symName: __ZNSt3__135__uninitialized_allocator_copy_implB8ue170006INS_9allocatorI6GPointEEKS2_S2_S2_LPv0EEEPT2_RT_PT0_SB_S7_, symObjAddr: 0x10F64, symBinAddr: 0x10003B970, symSize: 0x38 }
  - { offsetInCU: 0xDFFE, offset: 0x5FDEB, size: 0x8, addend: 0x0, symName: __ZNSt3__113__unwrap_iterB8ue170006IP6GPointNS_18__unwrap_iter_implIS2_Lb1EEELi0EEEDTclsrT0_8__unwrapclsr3stdE7declvalIT_EEEES6_, symObjAddr: 0x10F9C, symBinAddr: 0x10003B9A8, symSize: 0x24 }
  - { offsetInCU: 0xE044, offset: 0x5FE31, size: 0x8, addend: 0x0, symName: __ZNSt3__113__rewrap_iterB8ue170006IP6GPointS2_NS_18__unwrap_iter_implIS2_Lb1EEEEET_S5_T0_, symObjAddr: 0x10FC0, symBinAddr: 0x10003B9CC, symSize: 0x3C }
  - { offsetInCU: 0xE09A, offset: 0x5FE87, size: 0x8, addend: 0x0, symName: __ZNSt3__19make_pairB8ue170006IPK6GPointS3_EENS_4pairINS_18__unwrap_ref_decayIT_E4typeENS5_IT0_E4typeEEEOS6_OS9_, symObjAddr: 0x10FFC, symBinAddr: 0x10003BA08, symSize: 0x38 }
  - { offsetInCU: 0xE0EB, offset: 0x5FED8, size: 0x8, addend: 0x0, symName: __ZNSt3__113__unwrap_iterB8ue170006IPK6GPointNS_18__unwrap_iter_implIS3_Lb1EEELi0EEEDTclsrT0_8__unwrapclsr3stdE7declvalIT_EEEES7_, symObjAddr: 0x11034, symBinAddr: 0x10003BA40, symSize: 0x24 }
  - { offsetInCU: 0xE259, offset: 0x60046, size: 0x8, addend: 0x0, symName: __ZNSt3__112__to_addressB8ue170006IK6GPointEEPT_S4_, symObjAddr: 0x110EC, symBinAddr: 0x10003BAF8, symSize: 0x14 }
  - { offsetInCU: 0xE28F, offset: 0x6007C, size: 0x8, addend: 0x0, symName: __ZNSt3__14copyB8ue170006IPK6GPointPS1_EET0_T_S6_S5_, symObjAddr: 0x11100, symBinAddr: 0x10003BB0C, symSize: 0x40 }
  - { offsetInCU: 0xE2EA, offset: 0x600D7, size: 0x8, addend: 0x0, symName: __ZNSt3__16__copyB8ue170006INS_17_ClassicAlgPolicyEPK6GPointS4_PS2_EENS_4pairIT0_T2_EES7_T1_S8_, symObjAddr: 0x11140, symBinAddr: 0x10003BB4C, symSize: 0x44 }
  - { offsetInCU: 0xE357, offset: 0x60144, size: 0x8, addend: 0x0, symName: __ZNSt3__123__dispatch_copy_or_moveB8ue170006INS_17_ClassicAlgPolicyENS_11__copy_loopIS1_EENS_14__copy_trivialEPK6GPointS7_PS5_EENS_4pairIT2_T4_EESA_T3_SB_, symObjAddr: 0x11184, symBinAddr: 0x10003BB90, symSize: 0x44 }
  - { offsetInCU: 0xE3D6, offset: 0x601C3, size: 0x8, addend: 0x0, symName: __ZNSt3__121__unwrap_and_dispatchB8ue170006INS_10__overloadINS_11__copy_loopINS_17_ClassicAlgPolicyEEENS_14__copy_trivialEEEPK6GPointS9_PS7_Li0EEENS_4pairIT0_T2_EESC_T1_SD_, symObjAddr: 0x111C8, symBinAddr: 0x10003BBD4, symSize: 0xB4 }
  - { offsetInCU: 0xE5EF, offset: 0x603DC, size: 0x8, addend: 0x0, symName: __ZNSt3__19make_pairB8ue170006IPK6GPointPS1_EENS_4pairINS_18__unwrap_ref_decayIT_E4typeENS6_IT0_E4typeEEEOS7_OSA_, symObjAddr: 0x112C4, symBinAddr: 0x10003BCD0, symSize: 0x38 }
  - { offsetInCU: 0xE640, offset: 0x6042D, size: 0x8, addend: 0x0, symName: __ZNSt3__114__rewrap_rangeB8ue170006IPK6GPointS3_EET_S4_T0_, symObjAddr: 0x112FC, symBinAddr: 0x10003BD08, symSize: 0x2C }
  - { offsetInCU: 0xE68D, offset: 0x6047A, size: 0x8, addend: 0x0, symName: __ZNSt3__119__copy_trivial_implB8ue170006IK6GPointS1_EENS_4pairIPT_PT0_EES5_S5_S7_, symObjAddr: 0x11328, symBinAddr: 0x10003BD34, symSize: 0x80 }
  - { offsetInCU: 0xE6F6, offset: 0x604E3, size: 0x8, addend: 0x0, symName: __ZNSt3__119__constexpr_memmoveB8ue170006I6GPointKS1_Li0EEEPT_S4_PT0_NS_15__element_countE, symObjAddr: 0x113A8, symBinAddr: 0x10003BDB4, symSize: 0x64 }
  - { offsetInCU: 0xE766, offset: 0x60553, size: 0x8, addend: 0x0, symName: __ZNSt3__19make_pairB8ue170006IRPK6GPointPS1_EENS_4pairINS_18__unwrap_ref_decayIT_E4typeENS7_IT0_E4typeEEEOS8_OSB_, symObjAddr: 0x1140C, symBinAddr: 0x10003BE18, symSize: 0x38 }
  - { offsetInCU: 0xE7B7, offset: 0x605A4, size: 0x8, addend: 0x0, symName: __ZNSt3__113__rewrap_iterB8ue170006IPK6GPointS3_NS_18__unwrap_iter_implIS3_Lb1EEEEET_S6_T0_, symObjAddr: 0x11524, symBinAddr: 0x10003BF30, symSize: 0x3C }
  - { offsetInCU: 0xE860, offset: 0x6064D, size: 0x8, addend: 0x0, symName: __ZNSt3__130__uninitialized_allocator_copyB8ue170006INS_9allocatorI6GPointEEPS2_S4_S4_EET2_RT_T0_T1_S5_, symObjAddr: 0x118F8, symBinAddr: 0x10003C29C, symSize: 0x80 }
  - { offsetInCU: 0xE903, offset: 0x606F0, size: 0x8, addend: 0x0, symName: __ZNSt3__114__unwrap_rangeB8ue170006IP6GPointS2_EENS_4pairIT0_S4_EET_S6_, symObjAddr: 0x11978, symBinAddr: 0x10003C31C, symSize: 0x60 }
  - { offsetInCU: 0xE950, offset: 0x6073D, size: 0x8, addend: 0x0, symName: __ZNSt3__135__uninitialized_allocator_copy_implB8ue170006INS_9allocatorI6GPointEES2_S2_S2_LPv0EEEPT2_RT_PT0_SA_S6_, symObjAddr: 0x119D8, symBinAddr: 0x10003C37C, symSize: 0x38 }
  - { offsetInCU: 0xE9D6, offset: 0x607C3, size: 0x8, addend: 0x0, symName: __ZNSt3__19make_pairB8ue170006IP6GPointS2_EENS_4pairINS_18__unwrap_ref_decayIT_E4typeENS4_IT0_E4typeEEEOS5_OS8_, symObjAddr: 0x11A10, symBinAddr: 0x10003C3B4, symSize: 0x38 }
  - { offsetInCU: 0xEB2C, offset: 0x60919, size: 0x8, addend: 0x0, symName: __ZNSt3__14copyB8ue170006IP6GPointS2_EET0_T_S4_S3_, symObjAddr: 0x11AB8, symBinAddr: 0x10003C45C, symSize: 0x40 }
  - { offsetInCU: 0xEB87, offset: 0x60974, size: 0x8, addend: 0x0, symName: __ZNSt3__16__copyB8ue170006INS_17_ClassicAlgPolicyEP6GPointS3_S3_EENS_4pairIT0_T2_EES5_T1_S6_, symObjAddr: 0x11AF8, symBinAddr: 0x10003C49C, symSize: 0x44 }
  - { offsetInCU: 0xEBF4, offset: 0x609E1, size: 0x8, addend: 0x0, symName: __ZNSt3__123__dispatch_copy_or_moveB8ue170006INS_17_ClassicAlgPolicyENS_11__copy_loopIS1_EENS_14__copy_trivialEP6GPointS6_S6_EENS_4pairIT2_T4_EES8_T3_S9_, symObjAddr: 0x11B3C, symBinAddr: 0x10003C4E0, symSize: 0x44 }
  - { offsetInCU: 0xEC73, offset: 0x60A60, size: 0x8, addend: 0x0, symName: __ZNSt3__121__unwrap_and_dispatchB8ue170006INS_10__overloadINS_11__copy_loopINS_17_ClassicAlgPolicyEEENS_14__copy_trivialEEEP6GPointS8_S8_Li0EEENS_4pairIT0_T2_EESA_T1_SB_, symObjAddr: 0x11B80, symBinAddr: 0x10003C524, symSize: 0xB4 }
  - { offsetInCU: 0xED03, offset: 0x60AF0, size: 0x8, addend: 0x0, symName: __ZNSt3__114__rewrap_rangeB8ue170006IP6GPointS2_EET_S3_T0_, symObjAddr: 0x11C7C, symBinAddr: 0x10003C620, symSize: 0x2C }
  - { offsetInCU: 0xED50, offset: 0x60B3D, size: 0x8, addend: 0x0, symName: __ZNSt3__119__copy_trivial_implB8ue170006I6GPointS1_EENS_4pairIPT_PT0_EES4_S4_S6_, symObjAddr: 0x11CA8, symBinAddr: 0x10003C64C, symSize: 0x80 }
  - { offsetInCU: 0xEDB9, offset: 0x60BA6, size: 0x8, addend: 0x0, symName: __ZNSt3__119__constexpr_memmoveB8ue170006I6GPointS1_Li0EEEPT_S3_PT0_NS_15__element_countE, symObjAddr: 0x11D28, symBinAddr: 0x10003C6CC, symSize: 0x64 }
  - { offsetInCU: 0xEE29, offset: 0x60C16, size: 0x8, addend: 0x0, symName: __ZNSt3__19make_pairB8ue170006IRP6GPointS2_EENS_4pairINS_18__unwrap_ref_decayIT_E4typeENS5_IT0_E4typeEEEOS6_OS9_, symObjAddr: 0x11D8C, symBinAddr: 0x10003C730, symSize: 0x38 }
  - { offsetInCU: 0xEE7A, offset: 0x60C67, size: 0x8, addend: 0x0, symName: __ZNSt3__18distanceB8ue170006IPNS_6vectorI6GPointNS_9allocatorIS2_EEEEEENS_15iterator_traitsIT_E15difference_typeES8_S8_, symObjAddr: 0x12034, symBinAddr: 0x10003C9D8, symSize: 0x2C }
  - { offsetInCU: 0xEEBE, offset: 0x60CAB, size: 0x8, addend: 0x0, symName: __ZNSt3__14nextB8ue170006IPNS_6vectorI6GPointNS_9allocatorIS2_EEEEEENS_9enable_ifIXsr29__has_input_iterator_categoryIT_EE5valueES8_E4typeES8_NS_15iterator_traitsIS8_E15difference_typeE, symObjAddr: 0x12060, symBinAddr: 0x10003CA04, symSize: 0x34 }
  - { offsetInCU: 0xEF02, offset: 0x60CEF, size: 0x8, addend: 0x0, symName: __ZNSt3__14copyB8ue170006IPNS_6vectorI6GPointNS_9allocatorIS2_EEEES6_EET0_T_S8_S7_, symObjAddr: 0x12094, symBinAddr: 0x10003CA38, symSize: 0x40 }
  - { offsetInCU: 0xEF5D, offset: 0x60D4A, size: 0x8, addend: 0x0, symName: __ZNSt3__16__copyB8ue170006INS_17_ClassicAlgPolicyEPNS_6vectorI6GPointNS_9allocatorIS3_EEEES7_S7_EENS_4pairIT0_T2_EES9_T1_SA_, symObjAddr: 0x12160, symBinAddr: 0x10003CB04, symSize: 0x44 }
  - { offsetInCU: 0xEFCA, offset: 0x60DB7, size: 0x8, addend: 0x0, symName: __ZNSt3__19__advanceB8ue170006IPNS_6vectorI6GPointNS_9allocatorIS2_EEEEEEvRT_NS_15iterator_traitsIS7_E15difference_typeENS_26random_access_iterator_tagE, symObjAddr: 0x12370, symBinAddr: 0x10003CD14, symSize: 0x30 }
  - { offsetInCU: 0xF015, offset: 0x60E02, size: 0x8, addend: 0x0, symName: __ZNSt3__130__uninitialized_allocator_copyB8ue170006INS_9allocatorINS_6vectorI6GPointNS1_IS3_EEEEEEPS5_S7_S7_EET2_RT_T0_T1_S8_, symObjAddr: 0x123A0, symBinAddr: 0x10003CD44, symSize: 0x80 }
  - { offsetInCU: 0xF0B8, offset: 0x60EA5, size: 0x8, addend: 0x0, symName: __ZNSt3__114__unwrap_rangeB8ue170006IPNS_6vectorI6GPointNS_9allocatorIS2_EEEES6_EENS_4pairIT0_S8_EET_SA_, symObjAddr: 0x12420, symBinAddr: 0x10003CDC4, symSize: 0x60 }
  - { offsetInCU: 0xF105, offset: 0x60EF2, size: 0x8, addend: 0x0, symName: __ZNSt3__135__uninitialized_allocator_copy_implB8ue170006INS_9allocatorINS_6vectorI6GPointNS1_IS3_EEEEEEPS5_S7_S7_EET2_RT_T0_T1_S8_, symObjAddr: 0x12480, symBinAddr: 0x10003CE24, symSize: 0xF4 }
  - { offsetInCU: 0xF1A9, offset: 0x60F96, size: 0x8, addend: 0x0, symName: __ZNSt3__113__unwrap_iterB8ue170006IPNS_6vectorI6GPointNS_9allocatorIS2_EEEENS_18__unwrap_iter_implIS6_Lb1EEELi0EEEDTclsrT0_8__unwrapclsr3stdE7declvalIT_EEEESA_, symObjAddr: 0x12574, symBinAddr: 0x10003CF18, symSize: 0x24 }
  - { offsetInCU: 0xF1EF, offset: 0x60FDC, size: 0x8, addend: 0x0, symName: __ZNSt3__113__rewrap_iterB8ue170006IPNS_6vectorI6GPointNS_9allocatorIS2_EEEES6_NS_18__unwrap_iter_implIS6_Lb1EEEEET_S9_T0_, symObjAddr: 0x12598, symBinAddr: 0x10003CF3C, symSize: 0x3C }
  - { offsetInCU: 0xF245, offset: 0x61032, size: 0x8, addend: 0x0, symName: __ZNSt3__19make_pairB8ue170006IPNS_6vectorI6GPointNS_9allocatorIS2_EEEES6_EENS_4pairINS_18__unwrap_ref_decayIT_E4typeENS8_IT0_E4typeEEEOS9_OSC_, symObjAddr: 0x125D4, symBinAddr: 0x10003CF78, symSize: 0x38 }
  - { offsetInCU: 0xF36B, offset: 0x61158, size: 0x8, addend: 0x0, symName: __ZNSt3__122__make_exception_guardB8ue170006INS_29_AllocatorDestroyRangeReverseINS_9allocatorINS_6vectorI6GPointNS2_IS4_EEEEEEPS6_EEEENS_28__exception_guard_exceptionsIT_EESB_, symObjAddr: 0x1267C, symBinAddr: 0x10003D020, symSize: 0x4C }
  - { offsetInCU: 0xF3A2, offset: 0x6118F, size: 0x8, addend: 0x0, symName: __ZNSt3__119__allocator_destroyB8ue170006INS_9allocatorINS_6vectorI6GPointNS1_IS3_EEEEEENS_16reverse_iteratorIPS5_EES9_EEvRT_T0_T1_, symObjAddr: 0x1290C, symBinAddr: 0x10003D2B0, symSize: 0x70 }
  - { offsetInCU: 0xF45C, offset: 0x61249, size: 0x8, addend: 0x0, symName: __ZNSt3__123__dispatch_copy_or_moveB8ue170006INS_17_ClassicAlgPolicyENS_11__copy_loopIS1_EENS_14__copy_trivialEPNS_6vectorI6GPointNS_9allocatorIS6_EEEESA_SA_EENS_4pairIT2_T4_EESC_T3_SD_, symObjAddr: 0x129F8, symBinAddr: 0x10003D39C, symSize: 0x44 }
  - { offsetInCU: 0xF4DB, offset: 0x612C8, size: 0x8, addend: 0x0, symName: __ZNSt3__121__unwrap_and_dispatchB8ue170006INS_10__overloadINS_11__copy_loopINS_17_ClassicAlgPolicyEEENS_14__copy_trivialEEEPNS_6vectorI6GPointNS_9allocatorIS8_EEEESC_SC_Li0EEENS_4pairIT0_T2_EESE_T1_SF_, symObjAddr: 0x12A3C, symBinAddr: 0x10003D3E0, symSize: 0xB4 }
  - { offsetInCU: 0xF5BD, offset: 0x613AA, size: 0x8, addend: 0x0, symName: __ZNSt3__114__rewrap_rangeB8ue170006IPNS_6vectorI6GPointNS_9allocatorIS2_EEEES6_EET_S7_T0_, symObjAddr: 0x12B78, symBinAddr: 0x10003D51C, symSize: 0x2C }
  - { offsetInCU: 0xF60A, offset: 0x613F7, size: 0x8, addend: 0x0, symName: __ZNSt3__18distanceB8ue170006IP6GPointEENS_15iterator_traitsIT_E15difference_typeES4_S4_, symObjAddr: 0x12E0C, symBinAddr: 0x10003D7B0, symSize: 0x2C }
  - { offsetInCU: 0xF64E, offset: 0x6143B, size: 0x8, addend: 0x0, symName: __ZNSt3__14nextB8ue170006IP6GPointEENS_9enable_ifIXsr29__has_input_iterator_categoryIT_EE5valueES4_E4typeES4_NS_15iterator_traitsIS4_E15difference_typeE, symObjAddr: 0x12E38, symBinAddr: 0x10003D7DC, symSize: 0x34 }
  - { offsetInCU: 0xF692, offset: 0x6147F, size: 0x8, addend: 0x0, symName: __ZNSt3__19__advanceB8ue170006IP6GPointEEvRT_NS_15iterator_traitsIS3_E15difference_typeENS_26random_access_iterator_tagE, symObjAddr: 0x13038, symBinAddr: 0x10003D928, symSize: 0x28 }
  - { offsetInCU: 0xF6DD, offset: 0x614CA, size: 0x8, addend: 0x0, symName: __ZNSt3__110__distanceB8ue170006IP6GPointEENS_15iterator_traitsIT_E15difference_typeES4_S4_NS_26random_access_iterator_tagE, symObjAddr: 0x13158, symBinAddr: 0x10003D950, symSize: 0x28 }
  - { offsetInCU: 0xF72C, offset: 0x61519, size: 0x8, addend: 0x0, symName: __ZNSt3__110__distanceB8ue170006IPNS_6vectorI6GPointNS_9allocatorIS2_EEEEEENS_15iterator_traitsIT_E15difference_typeES8_S8_NS_26random_access_iterator_tagE, symObjAddr: 0x13250, symBinAddr: 0x10003DA48, symSize: 0x28 }
  - { offsetInCU: 0xF77B, offset: 0x61568, size: 0x8, addend: 0x0, symName: '__ZNSt3__111__sort_implB8ue170006INS_17_ClassicAlgPolicyENS_11__wrap_iterIP4EdgeEEZN8MyCanvas8drawPathERK5GPathRK6GPaintE3$_1EEvT0_SE_RT1_', symObjAddr: 0x143F4, symBinAddr: 0x10003DCC4, symSize: 0xA8 }
  - { offsetInCU: 0xF7E2, offset: 0x615CF, size: 0x8, addend: 0x0, symName: __ZNSt3__123__debug_randomize_rangeB8ue170006INS_17_ClassicAlgPolicyENS_11__wrap_iterIP4EdgeEES5_EEvT0_T1_, symObjAddr: 0x1449C, symBinAddr: 0x10003DD6C, symSize: 0x14 }
  - { offsetInCU: 0xF834, offset: 0x61621, size: 0x8, addend: 0x0, symName: '__ZNSt3__115__sort_dispatchB8ue170006INS_17_ClassicAlgPolicyEP4EdgeZN8MyCanvas8drawPathERK5GPathRK6GPaintE3$_1EEvT0_SC_RT1_', symObjAddr: 0x144B0, symBinAddr: 0x10003DD80, symSize: 0x64 }
  - { offsetInCU: 0xF8B7, offset: 0x616A4, size: 0x8, addend: 0x0, symName: __ZNSt3__113__unwrap_iterB8ue170006INS_11__wrap_iterIP4EdgeEENS_18__unwrap_iter_implIS4_Lb1EEELi0EEEDTclsrT0_8__unwrapclsr3stdE7declvalIT_EEEES8_, symObjAddr: 0x14514, symBinAddr: 0x10003DDE4, symSize: 0x2C }
  - { offsetInCU: 0xF8FD, offset: 0x616EA, size: 0x8, addend: 0x0, symName: '__ZNSt3__135__check_strict_weak_ordering_sortedB8ue170006IP4EdgeZN8MyCanvas8drawPathERK5GPathRK6GPaintE3$_1EEvT_SB_RT0_', symObjAddr: 0x14540, symBinAddr: 0x10003DE10, symSize: 0x18 }
  - { offsetInCU: 0xF954, offset: 0x61741, size: 0x8, addend: 0x0, symName: __ZNSt3__17__log2iB8ue170006IlEET_S1_, symObjAddr: 0x14558, symBinAddr: 0x10003DE28, symSize: 0x54 }
  - { offsetInCU: 0xF98C, offset: 0x61779, size: 0x8, addend: 0x0, symName: __ZNSt3__112__libcpp_clzB8ue170006Em, symObjAddr: 0x14A34, symBinAddr: 0x10003E304, symSize: 0x1C }
  - { offsetInCU: 0xF9B9, offset: 0x617A6, size: 0x8, addend: 0x0, symName: '__ZNSt3__124__sort3_maybe_branchlessB8ue170006INS_17_ClassicAlgPolicyERZN8MyCanvas8drawPathERK5GPathRK6GPaintE3$_1P4EdgeEENS_9enable_ifIXntsr21__use_branchless_sortIT0_T1_EE5valueEvE4typeESF_SF_SF_SE_', symObjAddr: 0x14AB8, symBinAddr: 0x10003E388, symSize: 0x3C }
  - { offsetInCU: 0xFA2A, offset: 0x61817, size: 0x8, addend: 0x0, symName: '__ZNSt3__124__sort4_maybe_branchlessB8ue170006INS_17_ClassicAlgPolicyERZN8MyCanvas8drawPathERK5GPathRK6GPaintE3$_1P4EdgeEENS_9enable_ifIXntsr21__use_branchless_sortIT0_T1_EE5valueEvE4typeESF_SF_SF_SF_SE_', symObjAddr: 0x14AF4, symBinAddr: 0x10003E3C4, symSize: 0x44 }
  - { offsetInCU: 0xFAA9, offset: 0x61896, size: 0x8, addend: 0x0, symName: '__ZNSt3__124__sort5_maybe_branchlessB8ue170006INS_17_ClassicAlgPolicyERZN8MyCanvas8drawPathERK5GPathRK6GPaintE3$_1P4EdgeEENS_9enable_ifIXntsr21__use_branchless_sortIT0_T1_EE5valueEvE4typeESF_SF_SF_SF_SF_SE_', symObjAddr: 0x14B38, symBinAddr: 0x10003E408, symSize: 0x4C }
  - { offsetInCU: 0xFB36, offset: 0x61923, size: 0x8, addend: 0x0, symName: '__ZNSt3__116__insertion_sortB8ue170006INS_17_ClassicAlgPolicyERZN8MyCanvas8drawPathERK5GPathRK6GPaintE3$_1P4EdgeEEvT1_SD_T0_', symObjAddr: 0x14B84, symBinAddr: 0x10003E454, symSize: 0x160 }
  - { offsetInCU: 0xFBFD, offset: 0x619EA, size: 0x8, addend: 0x0, symName: '__ZNSt3__114__partial_sortB8ue170006INS_17_ClassicAlgPolicyERZN8MyCanvas8drawPathERK5GPathRK6GPaintE3$_1P4EdgeSC_EET1_SD_SD_T2_RT0_', symObjAddr: 0x14E14, symBinAddr: 0x10003E6E4, symSize: 0x94 }
  - { offsetInCU: 0xFC85, offset: 0x61A72, size: 0x8, addend: 0x0, symName: '__ZNSt3__17__sort3B8ue170006INS_17_ClassicAlgPolicyERZN8MyCanvas8drawPathERK5GPathRK6GPaintE3$_1P4EdgeEEjT1_SD_SD_T0_', symObjAddr: 0x14EA8, symBinAddr: 0x10003E778, symSize: 0x144 }
  - { offsetInCU: 0xFD04, offset: 0x61AF1, size: 0x8, addend: 0x0, symName: __ZNSt3__19iter_swapB8ue170006IP4EdgeS2_EEvT_T0_, symObjAddr: 0x15AE8, symBinAddr: 0x10003F3B8, symSize: 0x2C }
  - { offsetInCU: 0xFD4D, offset: 0x61B3A, size: 0x8, addend: 0x0, symName: __ZNSt3__14swapB8ue170006I4EdgeEENS_9enable_ifIXaasr21is_move_constructibleIT_EE5valuesr18is_move_assignableIS3_EE5valueEvE4typeERS3_S6_, symObjAddr: 0x15B14, symBinAddr: 0x10003F3E4, symSize: 0x58 }
  - { offsetInCU: 0xFD9F, offset: 0x61B8C, size: 0x8, addend: 0x0, symName: '__ZNSt3__17__sort4B8ue170006INS_17_ClassicAlgPolicyERZN8MyCanvas8drawPathERK5GPathRK6GPaintE3$_1P4EdgeEEvT1_SD_SD_SD_T0_', symObjAddr: 0x15B6C, symBinAddr: 0x10003F43C, symSize: 0xB8 }
  - { offsetInCU: 0xFE1A, offset: 0x61C07, size: 0x8, addend: 0x0, symName: '__ZNSt3__17__sort5B8ue170006INS_17_ClassicAlgPolicyERZN8MyCanvas8drawPathERK5GPathRK6GPaintE3$_1P4EdgeEEvT1_SD_SD_SD_SD_T0_', symObjAddr: 0x15C24, symBinAddr: 0x10003F4F4, symSize: 0xE8 }
  - { offsetInCU: 0xFEA3, offset: 0x61C90, size: 0x8, addend: 0x0, symName: __ZNSt3__123__debug_randomize_rangeB8ue170006INS_17_ClassicAlgPolicyEP4EdgeS3_EEvT0_T1_, symObjAddr: 0x15D50, symBinAddr: 0x10003F620, symSize: 0x14 }
  - { offsetInCU: 0xFEF5, offset: 0x61CE2, size: 0x8, addend: 0x0, symName: '__ZNSt3__119__partial_sort_implB8ue170006INS_17_ClassicAlgPolicyERZN8MyCanvas8drawPathERK5GPathRK6GPaintE3$_1P4EdgeSC_EET1_SD_SD_T2_OT0_', symObjAddr: 0x15D64, symBinAddr: 0x10003F634, symSize: 0x110 }
  - { offsetInCU: 0xFF8B, offset: 0x61D78, size: 0x8, addend: 0x0, symName: '__ZNSt3__111__make_heapB8ue170006INS_17_ClassicAlgPolicyERZN8MyCanvas8drawPathERK5GPathRK6GPaintE3$_1P4EdgeEEvT1_SD_OT0_', symObjAddr: 0x15E74, symBinAddr: 0x10003F744, symSize: 0xC0 }
  - { offsetInCU: 0x1002D, offset: 0x61E1A, size: 0x8, addend: 0x0, symName: '__ZNSt3__111__sort_heapB8ue170006INS_17_ClassicAlgPolicyERZN8MyCanvas8drawPathERK5GPathRK6GPaintE3$_1P4EdgeEEvT1_SD_OT0_', symObjAddr: 0x16160, symBinAddr: 0x10003FA30, symSize: 0xA8 }
  - { offsetInCU: 0x100CF, offset: 0x61EBC, size: 0x8, addend: 0x0, symName: '__ZNSt3__110__pop_heapB8ue170006INS_17_ClassicAlgPolicyEZN8MyCanvas8drawPathERK5GPathRK6GPaintE3$_1P4EdgeEEvT1_SC_RT0_NS_15iterator_traitsISC_E15difference_typeE', symObjAddr: 0x16208, symBinAddr: 0x10003FAD8, symSize: 0x10C }
  - { offsetInCU: 0x1017F, offset: 0x61F6C, size: 0x8, addend: 0x0, symName: '__ZNSt3__19__sift_upB8ue170006INS_17_ClassicAlgPolicyERZN8MyCanvas8drawPathERK5GPathRK6GPaintE3$_1P4EdgeEEvT1_SD_OT0_NS_15iterator_traitsISD_E15difference_typeE', symObjAddr: 0x16420, symBinAddr: 0x10003FCF0, symSize: 0x13C }
  - { offsetInCU: 0x1022F, offset: 0x6201C, size: 0x8, addend: 0x0, symName: '__ZNSt3__122__populate_left_bitsetB8ue170006IRZN8MyCanvas8drawPathERK5GPathRK6GPaintE3$_1P4EdgeSA_EEvT0_T_RT1_Ry', symObjAddr: 0x1655C, symBinAddr: 0x10003FE2C, symSize: 0xA8 }
  - { offsetInCU: 0x102F2, offset: 0x620DF, size: 0x8, addend: 0x0, symName: '__ZNSt3__123__populate_right_bitsetB8ue170006IRZN8MyCanvas8drawPathERK5GPathRK6GPaintE3$_1P4EdgeSA_EEvT0_T_RT1_Ry', symObjAddr: 0x16604, symBinAddr: 0x10003FED4, symSize: 0xA0 }
  - { offsetInCU: 0x103B5, offset: 0x621A2, size: 0x8, addend: 0x0, symName: __ZNSt3__117__swap_bitmap_posB8ue170006INS_17_ClassicAlgPolicyEP4EdgeEEvT0_S4_RyS5_, symObjAddr: 0x166A4, symBinAddr: 0x10003FF74, symSize: 0x104 }
  - { offsetInCU: 0x1045D, offset: 0x6224A, size: 0x8, addend: 0x0, symName: '__ZNSt3__133__bitset_partition_partial_blocksB8ue170006INS_17_ClassicAlgPolicyERZN8MyCanvas8drawPathERK5GPathRK6GPaintE3$_1P4EdgeSB_EEvRT1_SE_T0_RT2_RySI_', symObjAddr: 0x167A8, symBinAddr: 0x100040078, symSize: 0x2F0 }
  - { offsetInCU: 0x105EE, offset: 0x623DB, size: 0x8, addend: 0x0, symName: __ZNSt3__19make_pairB8ue170006IRP4EdgeRbEENS_4pairINS_18__unwrap_ref_decayIT_E4typeENS6_IT0_E4typeEEEOS7_OSA_, symObjAddr: 0x16C80, symBinAddr: 0x100040550, symSize: 0x38 }
  - { offsetInCU: 0x1063F, offset: 0x6242C, size: 0x8, addend: 0x0, symName: __ZNSt3__112__libcpp_ctzB8ue170006Ey, symObjAddr: 0x16CB8, symBinAddr: 0x100040588, symSize: 0x20 }
  - { offsetInCU: 0x1066C, offset: 0x62459, size: 0x8, addend: 0x0, symName: __ZNSt3__113__libcpp_blsrB8ue170006Ey, symObjAddr: 0x16CD8, symBinAddr: 0x1000405A8, symSize: 0x2C }
  - { offsetInCU: 0x10699, offset: 0x62486, size: 0x8, addend: 0x0, symName: __ZNSt3__112__libcpp_clzB8ue170006Ey, symObjAddr: 0x16D38, symBinAddr: 0x100040608, symSize: 0x1C }
  - { offsetInCU: 0x107EE, offset: 0x625DB, size: 0x8, addend: 0x0, symName: __ZNSt3__112__to_addressB8ue170006INS_11__wrap_iterIP4EdgeEEvEEu7__decayIDTclsr19__to_address_helperIT_EE6__callclsr3stdE7declvalIRKS5_EEEEES7_, symObjAddr: 0x16DF0, symBinAddr: 0x1000406C0, symSize: 0x24 }
  - { offsetInCU: 0x1088D, offset: 0x6267A, size: 0x8, addend: 0x0, symName: '__ZNSt3__111__sort_implB8ue170006INS_17_ClassicAlgPolicyENS_11__wrap_iterIP4EdgeEEZN8MyCanvas8drawPathERK5GPathRK6GPaintE3$_2EEvT0_SE_RT1_', symObjAddr: 0x16E70, symBinAddr: 0x100040740, symSize: 0xA8 }
  - { offsetInCU: 0x108F4, offset: 0x626E1, size: 0x8, addend: 0x0, symName: '__ZNSt3__115__sort_dispatchB8ue170006INS_17_ClassicAlgPolicyEP4EdgeZN8MyCanvas8drawPathERK5GPathRK6GPaintE3$_2EEvT0_SC_RT1_', symObjAddr: 0x16F18, symBinAddr: 0x1000407E8, symSize: 0x64 }
  - { offsetInCU: 0x10977, offset: 0x62764, size: 0x8, addend: 0x0, symName: '__ZNSt3__135__check_strict_weak_ordering_sortedB8ue170006IP4EdgeZN8MyCanvas8drawPathERK5GPathRK6GPaintE3$_2EEvT_SB_RT0_', symObjAddr: 0x16F7C, symBinAddr: 0x10004084C, symSize: 0x18 }
  - { offsetInCU: 0x109CE, offset: 0x627BB, size: 0x8, addend: 0x0, symName: '__ZNSt3__124__sort3_maybe_branchlessB8ue170006INS_17_ClassicAlgPolicyERZN8MyCanvas8drawPathERK5GPathRK6GPaintE3$_2P4EdgeEENS_9enable_ifIXntsr21__use_branchless_sortIT0_T1_EE5valueEvE4typeESF_SF_SF_SE_', symObjAddr: 0x1747C, symBinAddr: 0x100040D4C, symSize: 0x3C }
  - { offsetInCU: 0x10A3F, offset: 0x6282C, size: 0x8, addend: 0x0, symName: '__ZNSt3__124__sort4_maybe_branchlessB8ue170006INS_17_ClassicAlgPolicyERZN8MyCanvas8drawPathERK5GPathRK6GPaintE3$_2P4EdgeEENS_9enable_ifIXntsr21__use_branchless_sortIT0_T1_EE5valueEvE4typeESF_SF_SF_SF_SE_', symObjAddr: 0x174B8, symBinAddr: 0x100040D88, symSize: 0x44 }
  - { offsetInCU: 0x10ABE, offset: 0x628AB, size: 0x8, addend: 0x0, symName: '__ZNSt3__124__sort5_maybe_branchlessB8ue170006INS_17_ClassicAlgPolicyERZN8MyCanvas8drawPathERK5GPathRK6GPaintE3$_2P4EdgeEENS_9enable_ifIXntsr21__use_branchless_sortIT0_T1_EE5valueEvE4typeESF_SF_SF_SF_SF_SE_', symObjAddr: 0x174FC, symBinAddr: 0x100040DCC, symSize: 0x4C }
  - { offsetInCU: 0x10B4B, offset: 0x62938, size: 0x8, addend: 0x0, symName: '__ZNSt3__116__insertion_sortB8ue170006INS_17_ClassicAlgPolicyERZN8MyCanvas8drawPathERK5GPathRK6GPaintE3$_2P4EdgeEEvT1_SD_T0_', symObjAddr: 0x17548, symBinAddr: 0x100040E18, symSize: 0x160 }
  - { offsetInCU: 0x10C12, offset: 0x629FF, size: 0x8, addend: 0x0, symName: '__ZNSt3__114__partial_sortB8ue170006INS_17_ClassicAlgPolicyERZN8MyCanvas8drawPathERK5GPathRK6GPaintE3$_2P4EdgeSC_EET1_SD_SD_T2_RT0_', symObjAddr: 0x177D8, symBinAddr: 0x1000410A8, symSize: 0x94 }
  - { offsetInCU: 0x10C9A, offset: 0x62A87, size: 0x8, addend: 0x0, symName: '__ZNSt3__17__sort3B8ue170006INS_17_ClassicAlgPolicyERZN8MyCanvas8drawPathERK5GPathRK6GPaintE3$_2P4EdgeEEjT1_SD_SD_T0_', symObjAddr: 0x1786C, symBinAddr: 0x10004113C, symSize: 0x144 }
  - { offsetInCU: 0x10D19, offset: 0x62B06, size: 0x8, addend: 0x0, symName: '__ZNSt3__17__sort4B8ue170006INS_17_ClassicAlgPolicyERZN8MyCanvas8drawPathERK5GPathRK6GPaintE3$_2P4EdgeEEvT1_SD_SD_SD_T0_', symObjAddr: 0x18478, symBinAddr: 0x100041D48, symSize: 0xB8 }
  - { offsetInCU: 0x10D94, offset: 0x62B81, size: 0x8, addend: 0x0, symName: '__ZNSt3__17__sort5B8ue170006INS_17_ClassicAlgPolicyERZN8MyCanvas8drawPathERK5GPathRK6GPaintE3$_2P4EdgeEEvT1_SD_SD_SD_SD_T0_', symObjAddr: 0x18530, symBinAddr: 0x100041E00, symSize: 0xE8 }
  - { offsetInCU: 0x10E1D, offset: 0x62C0A, size: 0x8, addend: 0x0, symName: '__ZNSt3__119__partial_sort_implB8ue170006INS_17_ClassicAlgPolicyERZN8MyCanvas8drawPathERK5GPathRK6GPaintE3$_2P4EdgeSC_EET1_SD_SD_T2_OT0_', symObjAddr: 0x18618, symBinAddr: 0x100041EE8, symSize: 0x110 }
  - { offsetInCU: 0x10EB3, offset: 0x62CA0, size: 0x8, addend: 0x0, symName: '__ZNSt3__111__make_heapB8ue170006INS_17_ClassicAlgPolicyERZN8MyCanvas8drawPathERK5GPathRK6GPaintE3$_2P4EdgeEEvT1_SD_OT0_', symObjAddr: 0x18728, symBinAddr: 0x100041FF8, symSize: 0xC0 }
  - { offsetInCU: 0x10F55, offset: 0x62D42, size: 0x8, addend: 0x0, symName: '__ZNSt3__111__sort_heapB8ue170006INS_17_ClassicAlgPolicyERZN8MyCanvas8drawPathERK5GPathRK6GPaintE3$_2P4EdgeEEvT1_SD_OT0_', symObjAddr: 0x18A14, symBinAddr: 0x1000422E4, symSize: 0xA8 }
  - { offsetInCU: 0x10FF7, offset: 0x62DE4, size: 0x8, addend: 0x0, symName: '__ZNSt3__110__pop_heapB8ue170006INS_17_ClassicAlgPolicyEZN8MyCanvas8drawPathERK5GPathRK6GPaintE3$_2P4EdgeEEvT1_SC_RT0_NS_15iterator_traitsISC_E15difference_typeE', symObjAddr: 0x18ABC, symBinAddr: 0x10004238C, symSize: 0x10C }
  - { offsetInCU: 0x110A7, offset: 0x62E94, size: 0x8, addend: 0x0, symName: '__ZNSt3__19__sift_upB8ue170006INS_17_ClassicAlgPolicyERZN8MyCanvas8drawPathERK5GPathRK6GPaintE3$_2P4EdgeEEvT1_SD_OT0_NS_15iterator_traitsISD_E15difference_typeE', symObjAddr: 0x18CD4, symBinAddr: 0x1000425A4, symSize: 0x13C }
  - { offsetInCU: 0x11157, offset: 0x62F44, size: 0x8, addend: 0x0, symName: '__ZNSt3__122__populate_left_bitsetB8ue170006IRZN8MyCanvas8drawPathERK5GPathRK6GPaintE3$_2P4EdgeSA_EEvT0_T_RT1_Ry', symObjAddr: 0x18E10, symBinAddr: 0x1000426E0, symSize: 0xA8 }
  - { offsetInCU: 0x1121A, offset: 0x63007, size: 0x8, addend: 0x0, symName: '__ZNSt3__123__populate_right_bitsetB8ue170006IRZN8MyCanvas8drawPathERK5GPathRK6GPaintE3$_2P4EdgeSA_EEvT0_T_RT1_Ry', symObjAddr: 0x18EB8, symBinAddr: 0x100042788, symSize: 0xA0 }
  - { offsetInCU: 0x112DD, offset: 0x630CA, size: 0x8, addend: 0x0, symName: '__ZNSt3__133__bitset_partition_partial_blocksB8ue170006INS_17_ClassicAlgPolicyERZN8MyCanvas8drawPathERK5GPathRK6GPaintE3$_2P4EdgeSB_EEvRT1_SE_T0_RT2_RySI_', symObjAddr: 0x18F58, symBinAddr: 0x100042828, symSize: 0x2F0 }
  - { offsetInCU: 0x1146E, offset: 0x6325B, size: 0x8, addend: 0x0, symName: __ZNSt3__118__constexpr_strlenB8ue170006EPKc, symObjAddr: 0x19594, symBinAddr: 0x100042E64, symSize: 0x24 }
  - { offsetInCU: 0x120B0, offset: 0x63E9D, size: 0x8, addend: 0x0, symName: __ZNSt3__16vectorI7GMatrixNS_9allocatorIS1_EEE26__swap_out_circular_bufferERNS_14__split_bufferIS1_RS3_EE, symObjAddr: 0x9C28, symBinAddr: 0x100035588, symSize: 0x110 }
  - { offsetInCU: 0x1249D, offset: 0x6428A, size: 0x8, addend: 0x0, symName: __ZNSt3__16vectorI4EdgeNS_9allocatorIS1_EEE26__swap_out_circular_bufferERNS_14__split_bufferIS1_RS3_EE, symObjAddr: 0xDBBC, symBinAddr: 0x100038D4C, symSize: 0x110 }
  - { offsetInCU: 0x1267E, offset: 0x6446B, size: 0x8, addend: 0x0, symName: __ZNSt3__16vectorINS0_I6GPointNS_9allocatorIS1_EEEENS2_IS4_EEE26__swap_out_circular_bufferERNS_14__split_bufferIS4_RS5_EE, symObjAddr: 0xF770, symBinAddr: 0x10003A6F4, symSize: 0x110 }
  - { offsetInCU: 0x147E8, offset: 0x665D5, size: 0x8, addend: 0x0, symName: __ZN8MyCanvas9color2PixERK6GColor, symObjAddr: 0x0, symBinAddr: 0x10002D520, symSize: 0xC0 }
  - { offsetInCU: 0x14854, offset: 0x66641, size: 0x8, addend: 0x0, symName: __ZL11GRoundToIntf, symObjAddr: 0xC0, symBinAddr: 0x10002D5E0, symSize: 0x20 }
  - { offsetInCU: 0x1487F, offset: 0x6666C, size: 0x8, addend: 0x0, symName: __ZL15GPixel_PackARGBjjjj, symObjAddr: 0xE0, symBinAddr: 0x10002D600, symSize: 0x134 }
  - { offsetInCU: 0x148D6, offset: 0x666C3, size: 0x8, addend: 0x0, symName: __ZN8MyCanvas8clippedXEi, symObjAddr: 0x214, symBinAddr: 0x10002D734, symSize: 0x90 }
  - { offsetInCU: 0x1490A, offset: 0x666F7, size: 0x8, addend: 0x0, symName: __ZN8MyCanvas8clippedYEi, symObjAddr: 0x2BC, symBinAddr: 0x10002D7C4, symSize: 0x90 }
  - { offsetInCU: 0x1493E, offset: 0x6672B, size: 0x8, addend: 0x0, symName: __ZN8MyCanvas4saveEv, symObjAddr: 0x364, symBinAddr: 0x10002D854, symSize: 0x3C }
  - { offsetInCU: 0x14964, offset: 0x66751, size: 0x8, addend: 0x0, symName: __ZNSt3__16vectorI7GMatrixNS_9allocatorIS1_EEE9push_backB8ue170006ERKS1_, symObjAddr: 0x3A0, symBinAddr: 0x10002D890, symSize: 0x6C }
  - { offsetInCU: 0x1499B, offset: 0x66788, size: 0x8, addend: 0x0, symName: __ZNSt3__16vectorI7GMatrixNS_9allocatorIS1_EEE4backB8ue170006Ev, symObjAddr: 0x40C, symBinAddr: 0x10002D8FC, symSize: 0x1C }
  - { offsetInCU: 0x149BF, offset: 0x667AC, size: 0x8, addend: 0x0, symName: __ZN8MyCanvas7restoreEv, symObjAddr: 0x428, symBinAddr: 0x10002D918, symSize: 0x44 }
  - { offsetInCU: 0x149E5, offset: 0x667D2, size: 0x8, addend: 0x0, symName: __ZNKSt3__16vectorI7GMatrixNS_9allocatorIS1_EEE5emptyB8ue170006Ev, symObjAddr: 0x46C, symBinAddr: 0x10002D95C, symSize: 0x28 }
  - { offsetInCU: 0x14A09, offset: 0x667F6, size: 0x8, addend: 0x0, symName: __ZNSt3__16vectorI7GMatrixNS_9allocatorIS1_EEE8pop_backEv, symObjAddr: 0x494, symBinAddr: 0x10002D984, symSize: 0x2C }
  - { offsetInCU: 0x14A30, offset: 0x6681D, size: 0x8, addend: 0x0, symName: __ZN8MyCanvas6concatERK7GMatrix, symObjAddr: 0x4C0, symBinAddr: 0x10002D9B0, symSize: 0x58 }
  - { offsetInCU: 0x14A63, offset: 0x66850, size: 0x8, addend: 0x0, symName: __Z6kClearjj, symObjAddr: 0x544, symBinAddr: 0x10002DA08, symSize: 0x34 }
  - { offsetInCU: 0x14A9E, offset: 0x6688B, size: 0x8, addend: 0x0, symName: __Z4kSrcjj, symObjAddr: 0x578, symBinAddr: 0x10002DA3C, symSize: 0x18 }
  - { offsetInCU: 0x14AD9, offset: 0x668C6, size: 0x8, addend: 0x0, symName: __Z4kDstjj, symObjAddr: 0x590, symBinAddr: 0x10002DA54, symSize: 0x18 }
  - { offsetInCU: 0x14B14, offset: 0x66901, size: 0x8, addend: 0x0, symName: __Z8kSrcOverjj, symObjAddr: 0x5A8, symBinAddr: 0x10002DA6C, symSize: 0x134 }
  - { offsetInCU: 0x14B96, offset: 0x66983, size: 0x8, addend: 0x0, symName: __ZL11GPixel_GetAj, symObjAddr: 0x6DC, symBinAddr: 0x10002DBA0, symSize: 0x1C }
  - { offsetInCU: 0x14BC2, offset: 0x669AF, size: 0x8, addend: 0x0, symName: __ZL11GPixel_GetRj, symObjAddr: 0x6F8, symBinAddr: 0x10002DBBC, symSize: 0x1C }
  - { offsetInCU: 0x14BEE, offset: 0x669DB, size: 0x8, addend: 0x0, symName: __ZL11GPixel_GetGj, symObjAddr: 0x714, symBinAddr: 0x10002DBD8, symSize: 0x1C }
  - { offsetInCU: 0x14C1A, offset: 0x66A07, size: 0x8, addend: 0x0, symName: __ZL11GPixel_GetBj, symObjAddr: 0x730, symBinAddr: 0x10002DBF4, symSize: 0x1C }
  - { offsetInCU: 0x14C45, offset: 0x66A32, size: 0x8, addend: 0x0, symName: __Z8kDstOverjj, symObjAddr: 0x74C, symBinAddr: 0x10002DC10, symSize: 0x134 }
  - { offsetInCU: 0x14CC6, offset: 0x66AB3, size: 0x8, addend: 0x0, symName: __Z6kSrcInjj, symObjAddr: 0x880, symBinAddr: 0x10002DD44, symSize: 0xE0 }
  - { offsetInCU: 0x14D47, offset: 0x66B34, size: 0x8, addend: 0x0, symName: __Z6kDstInjj, symObjAddr: 0x960, symBinAddr: 0x10002DE24, symSize: 0xE0 }
  - { offsetInCU: 0x14DC8, offset: 0x66BB5, size: 0x8, addend: 0x0, symName: __Z7kSrcOutjj, symObjAddr: 0xA40, symBinAddr: 0x10002DF04, symSize: 0xE4 }
  - { offsetInCU: 0x14E49, offset: 0x66C36, size: 0x8, addend: 0x0, symName: __Z7kDstOutjj, symObjAddr: 0xB24, symBinAddr: 0x10002DFE8, symSize: 0xE4 }
  - { offsetInCU: 0x14ECA, offset: 0x66CB7, size: 0x8, addend: 0x0, symName: __Z8kSrcATopjj, symObjAddr: 0xC08, symBinAddr: 0x10002E0CC, symSize: 0xE4 }
  - { offsetInCU: 0x14F2F, offset: 0x66D1C, size: 0x8, addend: 0x0, symName: __Z8kDstATopjj, symObjAddr: 0xCEC, symBinAddr: 0x10002E1B0, symSize: 0xE4 }
  - { offsetInCU: 0x14F94, offset: 0x66D81, size: 0x8, addend: 0x0, symName: __Z4kXorjj, symObjAddr: 0xDD0, symBinAddr: 0x10002E294, symSize: 0xE4 }
  - { offsetInCU: 0x14FF9, offset: 0x66DE6, size: 0x8, addend: 0x0, symName: __Z14distanceToLineRK6GPointS1_S1_, symObjAddr: 0xEB4, symBinAddr: 0x10002E378, symSize: 0x110 }
  - { offsetInCU: 0x150B2, offset: 0x66E9F, size: 0x8, addend: 0x0, symName: __Z3absB8ue170006d, symObjAddr: 0xFC4, symBinAddr: 0x10002E488, symSize: 0x18 }
  - { offsetInCU: 0x150E0, offset: 0x66ECD, size: 0x8, addend: 0x0, symName: __ZN8MyCanvas8makeEdgeERK6GPointS2_, symObjAddr: 0xFDC, symBinAddr: 0x10002E4A0, symSize: 0x144 }
  - { offsetInCU: 0x15132, offset: 0x66F1F, size: 0x8, addend: 0x0, symName: __ZN8MyCanvas4blitEiii6GPaint, symObjAddr: 0x1178, symBinAddr: 0x10002E63C, symSize: 0x348 }
  - { offsetInCU: 0x15215, offset: 0x67002, size: 0x8, addend: 0x0, symName: __ZNSt3__16vectorIjNS_9allocatorIjEEEC1Em, symObjAddr: 0x14C0, symBinAddr: 0x10002E984, symSize: 0x34 }
  - { offsetInCU: 0x15250, offset: 0x6703D, size: 0x8, addend: 0x0, symName: __ZNK6GPaint10peekShaderEv, symObjAddr: 0x14F4, symBinAddr: 0x10002E9B8, symSize: 0x28 }
  - { offsetInCU: 0x15274, offset: 0x67061, size: 0x8, addend: 0x0, symName: __ZNSt3__16vectorIjNS_9allocatorIjEEEixB8ue170006Em, symObjAddr: 0x151C, symBinAddr: 0x10002E9E0, symSize: 0x24 }
  - { offsetInCU: 0x152AA, offset: 0x67097, size: 0x8, addend: 0x0, symName: __ZL5blendjj10GBlendMode, symObjAddr: 0x1688, symBinAddr: 0x10002EA04, symSize: 0x14C }
  - { offsetInCU: 0x152F3, offset: 0x670E0, size: 0x8, addend: 0x0, symName: __ZNK6GPaint12getBlendModeEv, symObjAddr: 0x1804, symBinAddr: 0x10002EB80, symSize: 0x18 }
  - { offsetInCU: 0x15317, offset: 0x67104, size: 0x8, addend: 0x0, symName: __ZNK6GPaint8getColorEv, symObjAddr: 0x181C, symBinAddr: 0x10002EB98, symSize: 0x2C }
  - { offsetInCU: 0x1533B, offset: 0x67128, size: 0x8, addend: 0x0, symName: __ZNSt3__16vectorIjNS_9allocatorIjEEED1B8ue170006Ev, symObjAddr: 0x1848, symBinAddr: 0x10002EBC4, symSize: 0x2C }
  - { offsetInCU: 0x15364, offset: 0x67151, size: 0x8, addend: 0x0, symName: __ZN8MyCanvas5clearERK6GColor, symObjAddr: 0x1874, symBinAddr: 0x10002EBF0, symSize: 0xE0 }
  - { offsetInCU: 0x153FA, offset: 0x671E7, size: 0x8, addend: 0x0, symName: __ZN8MyCanvas8drawRectERK5GRectRK6GPaint, symObjAddr: 0x1954, symBinAddr: 0x10002ECD0, symSize: 0xD4 }
  - { offsetInCU: 0x15452, offset: 0x6723F, size: 0x8, addend: 0x0, symName: __ZN8MyCanvas17drawConvexPolygonEPK6GPointiRK6GPaint, symObjAddr: 0x1A28, symBinAddr: 0x10002EDA4, symSize: 0x8F8 }
  - { offsetInCU: 0x15720, offset: 0x6750D, size: 0x8, addend: 0x0, symName: __ZNSt3__14listI4EdgeNS_9allocatorIS1_EEEC1B8ue170006Ev, symObjAddr: 0x2320, symBinAddr: 0x10002F69C, symSize: 0x2C }
  - { offsetInCU: 0x15749, offset: 0x67536, size: 0x8, addend: 0x0, symName: __ZNSt3__14listI4EdgeNS_9allocatorIS1_EEE9push_backEOS1_, symObjAddr: 0x234C, symBinAddr: 0x10002F6C8, symSize: 0xF4 }
  - { offsetInCU: 0x157A0, offset: 0x6758D, size: 0x8, addend: 0x0, symName: __ZNKSt3__14listI4EdgeNS_9allocatorIS1_EEE4sizeB8ue170006Ev, symObjAddr: 0x2440, symBinAddr: 0x10002F7BC, symSize: 0x28 }
  - { offsetInCU: 0x157C4, offset: 0x675B1, size: 0x8, addend: 0x0, symName: '__ZNSt3__14listI4EdgeNS_9allocatorIS1_EEE4sortIZN8MyCanvas17drawConvexPolygonEPK6GPointiRK6GPaintE3$_0EEvT_', symObjAddr: 0x2468, symBinAddr: 0x10002F7E4, symSize: 0x60 }
  - { offsetInCU: 0x15804, offset: 0x675F1, size: 0x8, addend: 0x0, symName: __ZNSt3__14listI4EdgeNS_9allocatorIS1_EEE5frontB8ue170006Ev, symObjAddr: 0x24C8, symBinAddr: 0x10002F844, symSize: 0x2C }
  - { offsetInCU: 0x15828, offset: 0x67615, size: 0x8, addend: 0x0, symName: __ZNSt3__14listI4EdgeNS_9allocatorIS1_EEE9pop_frontEv, symObjAddr: 0x24F4, symBinAddr: 0x10002F870, symSize: 0x84 }
  - { offsetInCU: 0x1587F, offset: 0x6766C, size: 0x8, addend: 0x0, symName: __ZNKSt3__14listI4EdgeNS_9allocatorIS1_EEE5emptyB8ue170006Ev, symObjAddr: 0x2578, symBinAddr: 0x10002F8F4, symSize: 0x28 }
  - { offsetInCU: 0x158A3, offset: 0x67690, size: 0x8, addend: 0x0, symName: __ZN4Edge4getXEi, symObjAddr: 0x25A0, symBinAddr: 0x10002F91C, symSize: 0x48 }
  - { offsetInCU: 0x158D5, offset: 0x676C2, size: 0x8, addend: 0x0, symName: __ZN6GPaintC1ERKS_, symObjAddr: 0x2640, symBinAddr: 0x10002F964, symSize: 0x34 }
  - { offsetInCU: 0x15909, offset: 0x676F6, size: 0x8, addend: 0x0, symName: __ZN6GPaintD1Ev, symObjAddr: 0x2674, symBinAddr: 0x10002F998, symSize: 0x2C }
  - { offsetInCU: 0x15934, offset: 0x67721, size: 0x8, addend: 0x0, symName: __ZNSt3__14listI4EdgeNS_9allocatorIS1_EEED1Ev, symObjAddr: 0x26A0, symBinAddr: 0x10002F9C4, symSize: 0x2C }
  - { offsetInCU: 0x15960, offset: 0x6774D, size: 0x8, addend: 0x0, symName: __ZN8MyCanvas8drawPathERK5GPathRK6GPaint, symObjAddr: 0x26CC, symBinAddr: 0x10002F9F0, symSize: 0x1434 }
  - { offsetInCU: 0x15E80, offset: 0x67C6D, size: 0x8, addend: 0x0, symName: __ZNSt3__16vectorI4EdgeNS_9allocatorIS1_EEEC1B8ue170006Ev, symObjAddr: 0x3B00, symBinAddr: 0x100030E24, symSize: 0x2C }
  - { offsetInCU: 0x15EB3, offset: 0x67CA0, size: 0x8, addend: 0x0, symName: __ZNKSt3__18optionalI9GPathVerbEcvbB8ue170006Ev, symObjAddr: 0x3B2C, symBinAddr: 0x100030E50, symSize: 0x28 }
  - { offsetInCU: 0x15ED7, offset: 0x67CC4, size: 0x8, addend: 0x0, symName: __ZNRSt3__18optionalI9GPathVerbE5valueB8ue170006Ev, symObjAddr: 0x3B54, symBinAddr: 0x100030E78, symSize: 0x3C }
  - { offsetInCU: 0x15EFB, offset: 0x67CE8, size: 0x8, addend: 0x0, symName: __ZNSt3__16vectorI4EdgeNS_9allocatorIS1_EEE9push_backB8ue170006ERKS1_, symObjAddr: 0x3B90, symBinAddr: 0x100030EB4, symSize: 0x6C }
  - { offsetInCU: 0x15F32, offset: 0x67D1F, size: 0x8, addend: 0x0, symName: __ZNSt3__16vectorINS0_I6GPointNS_9allocatorIS1_EEEENS2_IS4_EEEC1B8ue170006Ev, symObjAddr: 0x3BFC, symBinAddr: 0x100030F20, symSize: 0x2C }
  - { offsetInCU: 0x15F5B, offset: 0x67D48, size: 0x8, addend: 0x0, symName: __ZNSt3__16vectorINS0_I6GPointNS_9allocatorIS1_EEEENS2_IS4_EEE9push_backB8ue170006EOS4_, symObjAddr: 0x3C28, symBinAddr: 0x100030F4C, symSize: 0x6C }
  - { offsetInCU: 0x15F92, offset: 0x67D7F, size: 0x8, addend: 0x0, symName: __ZNSt3__16vectorI6GPointNS_9allocatorIS1_EEEC1B8ue170006ESt16initializer_listIS1_E, symObjAddr: 0x3C94, symBinAddr: 0x100030FB8, symSize: 0x3C }
  - { offsetInCU: 0x15FCD, offset: 0x67DBA, size: 0x8, addend: 0x0, symName: __ZNSt3__16vectorINS0_I6GPointNS_9allocatorIS1_EEEENS2_IS4_EEE5beginB8ue170006Ev, symObjAddr: 0x3CFC, symBinAddr: 0x100030FF4, symSize: 0x30 }
  - { offsetInCU: 0x15FF4, offset: 0x67DE1, size: 0x8, addend: 0x0, symName: __ZNSt3__16vectorINS0_I6GPointNS_9allocatorIS1_EEEENS2_IS4_EEE3endB8ue170006Ev, symObjAddr: 0x3D2C, symBinAddr: 0x100031024, symSize: 0x30 }
  - { offsetInCU: 0x1601B, offset: 0x67E08, size: 0x8, addend: 0x0, symName: __ZNKSt3__111__wrap_iterIPNS_6vectorI6GPointNS_9allocatorIS2_EEEEEdeB8ue170006Ev, symObjAddr: 0x3D90, symBinAddr: 0x100031088, symSize: 0x18 }
  - { offsetInCU: 0x1603F, offset: 0x67E2C, size: 0x8, addend: 0x0, symName: __ZNSt3__16vectorI6GPointNS_9allocatorIS1_EEEC1ERKS4_, symObjAddr: 0x3DA8, symBinAddr: 0x1000310A0, symSize: 0x34 }
  - { offsetInCU: 0x1607A, offset: 0x67E67, size: 0x8, addend: 0x0, symName: __ZNSt3__111__wrap_iterIPNS_6vectorI6GPointNS_9allocatorIS2_EEEEEppB8ue170006Ev, symObjAddr: 0x3E00, symBinAddr: 0x1000310D4, symSize: 0x20 }
  - { offsetInCU: 0x1609E, offset: 0x67E8B, size: 0x8, addend: 0x0, symName: __ZNSt3__16vectorINS0_I6GPointNS_9allocatorIS1_EEEENS2_IS4_EEEaSB8ue170006ERKS6_, symObjAddr: 0x3E20, symBinAddr: 0x1000310F4, symSize: 0x68 }
  - { offsetInCU: 0x160D5, offset: 0x67EC2, size: 0x8, addend: 0x0, symName: __ZNSt3__16vectorINS0_I6GPointNS_9allocatorIS1_EEEENS2_IS4_EEE5clearB8ue170006Ev, symObjAddr: 0x3E88, symBinAddr: 0x10003115C, symSize: 0x44 }
  - { offsetInCU: 0x16109, offset: 0x67EF6, size: 0x8, addend: 0x0, symName: __ZNSt3__16vectorINS0_I6GPointNS_9allocatorIS1_EEEENS2_IS4_EEE4backB8ue170006Ev, symObjAddr: 0x3F64, symBinAddr: 0x1000311A0, symSize: 0x1C }
  - { offsetInCU: 0x1612D, offset: 0x67F1A, size: 0x8, addend: 0x0, symName: __ZNSt3__16vectorI4EdgeNS_9allocatorIS1_EEE9push_backB8ue170006EOS1_, symObjAddr: 0x3FA8, symBinAddr: 0x1000311BC, symSize: 0x6C }
  - { offsetInCU: 0x16164, offset: 0x67F51, size: 0x8, addend: 0x0, symName: __ZNSt3__16vectorINS0_I6GPointNS_9allocatorIS1_EEEENS2_IS4_EEED1B8ue170006Ev, symObjAddr: 0x4014, symBinAddr: 0x100031228, symSize: 0x2C }
  - { offsetInCU: 0x1618C, offset: 0x67F79, size: 0x8, addend: 0x0, symName: __Zmlf6GPoint, symObjAddr: 0x4084, symBinAddr: 0x100031254, symSize: 0x40 }
  - { offsetInCU: 0x161C8, offset: 0x67FB5, size: 0x8, addend: 0x0, symName: __ZNK6GPointplES_, symObjAddr: 0x40C4, symBinAddr: 0x100031294, symSize: 0x44 }
  - { offsetInCU: 0x161F9, offset: 0x67FE6, size: 0x8, addend: 0x0, symName: __Z3absB8ue170006f, symObjAddr: 0x4108, symBinAddr: 0x1000312D8, symSize: 0x18 }
  - { offsetInCU: 0x16226, offset: 0x68013, size: 0x8, addend: 0x0, symName: __Z4sqrtB8ue170006f, symObjAddr: 0x4120, symBinAddr: 0x1000312F0, symSize: 0x18 }
  - { offsetInCU: 0x16257, offset: 0x68044, size: 0x8, addend: 0x0, symName: __ZNSt3__16vectorI4EdgeNS_9allocatorIS1_EEE5beginB8ue170006Ev, symObjAddr: 0x4178, symBinAddr: 0x100031348, symSize: 0x30 }
  - { offsetInCU: 0x1627E, offset: 0x6806B, size: 0x8, addend: 0x0, symName: __ZNSt3__16vectorI4EdgeNS_9allocatorIS1_EEE3endB8ue170006Ev, symObjAddr: 0x41A8, symBinAddr: 0x100031378, symSize: 0x30 }
  - { offsetInCU: 0x162A5, offset: 0x68092, size: 0x8, addend: 0x0, symName: __ZNKSt3__111__wrap_iterIP4EdgeEdeB8ue170006Ev, symObjAddr: 0x420C, symBinAddr: 0x1000313DC, symSize: 0x18 }
  - { offsetInCU: 0x162C9, offset: 0x680B6, size: 0x8, addend: 0x0, symName: __ZN4Edge9existsAtYEi, symObjAddr: 0x4224, symBinAddr: 0x1000313F4, symSize: 0x80 }
  - { offsetInCU: 0x162FB, offset: 0x680E8, size: 0x8, addend: 0x0, symName: __ZNSt3__111__wrap_iterIP4EdgeEppB8ue170006Ev, symObjAddr: 0x42A4, symBinAddr: 0x100031474, symSize: 0x20 }
  - { offsetInCU: 0x1631F, offset: 0x6810C, size: 0x8, addend: 0x0, symName: __ZNSt3__16vectorI4EdgeNS_9allocatorIS1_EEE5clearB8ue170006Ev, symObjAddr: 0x430C, symBinAddr: 0x1000314DC, symSize: 0x44 }
  - { offsetInCU: 0x16353, offset: 0x68140, size: 0x8, addend: 0x0, symName: __ZNSt3__16vectorI4EdgeNS_9allocatorIS1_EEED1B8ue170006Ev, symObjAddr: 0x4350, symBinAddr: 0x100031520, symSize: 0x2C }
  - { offsetInCU: 0x1637C, offset: 0x68169, size: 0x8, addend: 0x0, symName: __ZN8MyCanvas8drawMeshEPK6GPointPK6GColorS2_iPKiRK6GPaint, symObjAddr: 0x437C, symBinAddr: 0x10003154C, symSize: 0x674 }
  - { offsetInCU: 0x165FB, offset: 0x683E8, size: 0x8, addend: 0x0, symName: __ZL19GCreateTwoDGradient6GPointS_S_6GColorS0_S0_, symObjAddr: 0x49F0, symBinAddr: 0x100031BC0, symSize: 0x1D8 }
  - { offsetInCU: 0x16670, offset: 0x6845D, size: 0x8, addend: 0x0, symName: __ZN6GPaintC1ENSt3__110shared_ptrI7GShaderEE, symObjAddr: 0x4BC8, symBinAddr: 0x100031D98, symSize: 0x34 }
  - { offsetInCU: 0x166A7, offset: 0x68494, size: 0x8, addend: 0x0, symName: __ZL18GCreateProxyShaderP7GShaderRK7GMatrix, symObjAddr: 0x4CD0, symBinAddr: 0x100031DCC, symSize: 0xA8 }
  - { offsetInCU: 0x166E2, offset: 0x684CF, size: 0x8, addend: 0x0, symName: __ZN8MyCanvas8drawQuadEPK6GPointPK6GColorS2_iRK6GPaint, symObjAddr: 0x4D78, symBinAddr: 0x100031E74, symSize: 0x140 }
  - { offsetInCU: 0x167CE, offset: 0x685BB, size: 0x8, addend: 0x0, symName: __Zml6GPointf, symObjAddr: 0x4EB8, symBinAddr: 0x100031FB4, symSize: 0x40 }
  - { offsetInCU: 0x1680A, offset: 0x685F7, size: 0x8, addend: 0x0, symName: __ZN8MyCanvas11quadDividerEPK6GPointPK6GColorS2_iRK6GPaint, symObjAddr: 0x4EF8, symBinAddr: 0x100031FF4, symSize: 0x194C }
  - { offsetInCU: 0x1730C, offset: 0x690F9, size: 0x8, addend: 0x0, symName: __ZN8MyCanvas11getMidpointE6GPointS0_, symObjAddr: 0x6844, symBinAddr: 0x100033940, symSize: 0x64 }
  - { offsetInCU: 0x17363, offset: 0x69150, size: 0x8, addend: 0x0, symName: __Z13GCreateCanvasRK7GBitmap, symObjAddr: 0x6994, symBinAddr: 0x1000339A4, symSize: 0x6C }
  - { offsetInCU: 0x17393, offset: 0x69180, size: 0x8, addend: 0x0, symName: __ZN8MyCanvasC1ERK7GBitmap, symObjAddr: 0x6A00, symBinAddr: 0x100033A10, symSize: 0x34 }
  - { offsetInCU: 0x173CA, offset: 0x691B7, size: 0x8, addend: 0x0, symName: __ZNSt3__110unique_ptrI7GCanvasNS_14default_deleteIS1_EEEC1B8ue170006ILb1EvEEPS1_, symObjAddr: 0x6A34, symBinAddr: 0x100033A44, symSize: 0x34 }
  - { offsetInCU: 0x1740B, offset: 0x691F8, size: 0x8, addend: 0x0, symName: __Z14GDrawSomethingP7GCanvas5GSizeIiE, symObjAddr: 0x6A68, symBinAddr: 0x100033A78, symSize: 0x254 }
  - { offsetInCU: 0x174E4, offset: 0x692D1, size: 0x8, addend: 0x0, symName: __ZN6GColor4RGBAEffff, symObjAddr: 0x6CBC, symBinAddr: 0x100033CCC, symSize: 0x4C }
  - { offsetInCU: 0x17531, offset: 0x6931E, size: 0x8, addend: 0x0, symName: __ZN6GPaintC1ERK6GColor, symObjAddr: 0x6D08, symBinAddr: 0x100033D18, symSize: 0x34 }
  - { offsetInCU: 0x17568, offset: 0x69355, size: 0x8, addend: 0x0, symName: __ZN6GPaintC1Ev, symObjAddr: 0x6D3C, symBinAddr: 0x100033D4C, symSize: 0x2C }
  - { offsetInCU: 0x17596, offset: 0x69383, size: 0x8, addend: 0x0, symName: __ZNSt3__112basic_stringIcNS_11char_traitsIcEENS_9allocatorIcEEEC1B8ue170006ILi0EEEPKc, symObjAddr: 0x6D68, symBinAddr: 0x100033D78, symSize: 0x34 }
  - { offsetInCU: 0x175D6, offset: 0x693C3, size: 0x8, addend: 0x0, symName: __ZN8MyCanvasD1Ev, symObjAddr: 0x6D9C, symBinAddr: 0x100033DAC, symSize: 0x2C }
  - { offsetInCU: 0x17601, offset: 0x693EE, size: 0x8, addend: 0x0, symName: __ZN8MyCanvasD0Ev, symObjAddr: 0x6DC8, symBinAddr: 0x100033DD8, symSize: 0x30 }
  - { offsetInCU: 0x17640, offset: 0x6942D, size: 0x8, addend: 0x0, symName: __ZNKSt3__16__lessIvvEclB8ue170006IffEEbRKT_RKT0_, symObjAddr: 0x6E4C, symBinAddr: 0x100033E5C, symSize: 0x34 }
  - { offsetInCU: 0x17692, offset: 0x6947F, size: 0x8, addend: 0x0, symName: __ZNKSt3__110shared_ptrI7GShaderE3getB8ue170006Ev, symObjAddr: 0x6ED4, symBinAddr: 0x100033EE4, symSize: 0x18 }
  - { offsetInCU: 0x176BB, offset: 0x694A8, size: 0x8, addend: 0x0, symName: __ZN6GPaintC2ERKS_, symObjAddr: 0x6FF8, symBinAddr: 0x100033EFC, symSize: 0x54 }
  - { offsetInCU: 0x176EF, offset: 0x694DC, size: 0x8, addend: 0x0, symName: __ZNSt3__110shared_ptrI7GShaderEC1B8ue170006ERKS2_, symObjAddr: 0x704C, symBinAddr: 0x100033F50, symSize: 0x34 }
  - { offsetInCU: 0x17728, offset: 0x69515, size: 0x8, addend: 0x0, symName: __ZNSt3__110shared_ptrI7GShaderEC2B8ue170006ERKS2_, symObjAddr: 0x7080, symBinAddr: 0x100033F84, symSize: 0x70 }
  - { offsetInCU: 0x17761, offset: 0x6954E, size: 0x8, addend: 0x0, symName: __ZN6GPaintD2Ev, symObjAddr: 0x716C, symBinAddr: 0x100033FF4, symSize: 0x30 }
  - { offsetInCU: 0x1778C, offset: 0x69579, size: 0x8, addend: 0x0, symName: __ZNSt3__14listI4EdgeNS_9allocatorIS1_EEED2Ev, symObjAddr: 0x719C, symBinAddr: 0x100034024, symSize: 0x2C }
  - { offsetInCU: 0x177B8, offset: 0x695A5, size: 0x8, addend: 0x0, symName: __ZNSt3__110__list_impI4EdgeNS_9allocatorIS1_EEED2Ev, symObjAddr: 0x71C8, symBinAddr: 0x100034050, symSize: 0x2C }
  - { offsetInCU: 0x177E3, offset: 0x695D0, size: 0x8, addend: 0x0, symName: __ZNSt3__110__list_impI4EdgeNS_9allocatorIS1_EEE5clearEv, symObjAddr: 0x71F4, symBinAddr: 0x10003407C, symSize: 0xE0 }
  - { offsetInCU: 0x17858, offset: 0x69645, size: 0x8, addend: 0x0, symName: __ZNKSt3__110__list_impI4EdgeNS_9allocatorIS1_EEE5emptyB8ue170006Ev, symObjAddr: 0x72D4, symBinAddr: 0x10003415C, symSize: 0x34 }
  - { offsetInCU: 0x1787C, offset: 0x69669, size: 0x8, addend: 0x0, symName: __ZNSt3__110__list_impI4EdgeNS_9allocatorIS1_EEE12__node_allocB8ue170006Ev, symObjAddr: 0x7308, symBinAddr: 0x100034190, symSize: 0x28 }
  - { offsetInCU: 0x178A0, offset: 0x6968D, size: 0x8, addend: 0x0, symName: __ZNKSt3__110__list_impI4EdgeNS_9allocatorIS1_EEE13__end_as_linkB8ue170006Ev, symObjAddr: 0x7330, symBinAddr: 0x1000341B8, symSize: 0x44 }
  - { offsetInCU: 0x178C4, offset: 0x696B1, size: 0x8, addend: 0x0, symName: __ZNSt3__110__list_impI4EdgeNS_9allocatorIS1_EEE14__unlink_nodesEPNS_16__list_node_baseIS1_PvEES8_, symObjAddr: 0x7374, symBinAddr: 0x1000341FC, symSize: 0x3C }
  - { offsetInCU: 0x178FB, offset: 0x696E8, size: 0x8, addend: 0x0, symName: __ZNSt3__110__list_impI4EdgeNS_9allocatorIS1_EEE4__szB8ue170006Ev, symObjAddr: 0x73B0, symBinAddr: 0x100034238, symSize: 0x28 }
  - { offsetInCU: 0x1791F, offset: 0x6970C, size: 0x8, addend: 0x0, symName: __ZNSt3__116__list_node_baseI4EdgePvE9__as_nodeB8ue170006Ev, symObjAddr: 0x73D8, symBinAddr: 0x100034260, symSize: 0x24 }
  - { offsetInCU: 0x17943, offset: 0x69730, size: 0x8, addend: 0x0, symName: __ZNSt3__116allocator_traitsINS_9allocatorINS_11__list_nodeI4EdgePvEEEEE7destroyB8ue170006IS3_vvEEvRS6_PT_, symObjAddr: 0x7408, symBinAddr: 0x100034284, symSize: 0x14 }
  - { offsetInCU: 0x1797F, offset: 0x6976C, size: 0x8, addend: 0x0, symName: __ZNSt3__116allocator_traitsINS_9allocatorINS_11__list_nodeI4EdgePvEEEEE10deallocateB8ue170006ERS6_PS5_m, symObjAddr: 0x741C, symBinAddr: 0x100034298, symSize: 0x34 }
  - { offsetInCU: 0x179C4, offset: 0x697B1, size: 0x8, addend: 0x0, symName: __ZNKSt3__110__list_impI4EdgeNS_9allocatorIS1_EEE4__szB8ue170006Ev, symObjAddr: 0x7450, symBinAddr: 0x1000342CC, symSize: 0x28 }
  - { offsetInCU: 0x179E8, offset: 0x697D5, size: 0x8, addend: 0x0, symName: __ZNKSt3__117__compressed_pairImNS_9allocatorINS_11__list_nodeI4EdgePvEEEEE5firstB8ue170006Ev, symObjAddr: 0x7478, symBinAddr: 0x1000342F4, symSize: 0x24 }
  - { offsetInCU: 0x17A0C, offset: 0x697F9, size: 0x8, addend: 0x0, symName: __ZNKSt3__122__compressed_pair_elemImLi0ELb0EE5__getB8ue170006Ev, symObjAddr: 0x749C, symBinAddr: 0x100034318, symSize: 0x14 }
  - { offsetInCU: 0x17A30, offset: 0x6981D, size: 0x8, addend: 0x0, symName: __ZNSt3__117__compressed_pairImNS_9allocatorINS_11__list_nodeI4EdgePvEEEEE6secondB8ue170006Ev, symObjAddr: 0x74B0, symBinAddr: 0x10003432C, symSize: 0x24 }
  - { offsetInCU: 0x17A54, offset: 0x69841, size: 0x8, addend: 0x0, symName: __ZNSt3__122__compressed_pair_elemINS_9allocatorINS_11__list_nodeI4EdgePvEEEELi1ELb1EE5__getB8ue170006Ev, symObjAddr: 0x74D4, symBinAddr: 0x100034350, symSize: 0x14 }
  - { offsetInCU: 0x17A78, offset: 0x69865, size: 0x8, addend: 0x0, symName: __ZNSt3__126__list_node_pointer_traitsI4EdgePvE26__unsafe_link_pointer_castB8ue170006EPNS_16__list_node_baseIS1_S2_EE, symObjAddr: 0x74E8, symBinAddr: 0x100034364, symSize: 0x14 }
  - { offsetInCU: 0x17A9D, offset: 0x6988A, size: 0x8, addend: 0x0, symName: __ZNSt3__116__list_node_baseI4EdgePvE6__selfB8ue170006Ev, symObjAddr: 0x74FC, symBinAddr: 0x100034378, symSize: 0x24 }
  - { offsetInCU: 0x17AC6, offset: 0x698B3, size: 0x8, addend: 0x0, symName: __ZNSt3__114pointer_traitsIPNS_16__list_node_baseI4EdgePvEEE10pointer_toB8ue170006ERS4_, symObjAddr: 0x7520, symBinAddr: 0x10003439C, symSize: 0x14 }
  - { offsetInCU: 0x17AE9, offset: 0x698D6, size: 0x8, addend: 0x0, symName: __ZNSt3__117__compressed_pairImNS_9allocatorINS_11__list_nodeI4EdgePvEEEEE5firstB8ue170006Ev, symObjAddr: 0x7534, symBinAddr: 0x1000343B0, symSize: 0x24 }
  - { offsetInCU: 0x17B0D, offset: 0x698FA, size: 0x8, addend: 0x0, symName: __ZNSt3__122__compressed_pair_elemImLi0ELb0EE5__getB8ue170006Ev, symObjAddr: 0x7558, symBinAddr: 0x1000343D4, symSize: 0x14 }
  - { offsetInCU: 0x17B31, offset: 0x6991E, size: 0x8, addend: 0x0, symName: __ZNSt3__19allocatorINS_11__list_nodeI4EdgePvEEE10deallocateB8ue170006EPS4_m, symObjAddr: 0x756C, symBinAddr: 0x1000343E8, symSize: 0x44 }
  - { offsetInCU: 0x17B71, offset: 0x6995E, size: 0x8, addend: 0x0, symName: __ZNKSt3__123__optional_storage_baseI9GPathVerbLb0EE9has_valueB8ue170006Ev, symObjAddr: 0x76D8, symBinAddr: 0x10003442C, symSize: 0x1C }
  - { offsetInCU: 0x17B95, offset: 0x69982, size: 0x8, addend: 0x0, symName: __ZNRSt3__123__optional_storage_baseI9GPathVerbLb0EE5__getB8ue170006Ev, symObjAddr: 0x772C, symBinAddr: 0x100034480, symSize: 0x14 }
  - { offsetInCU: 0x17BB9, offset: 0x699A6, size: 0x8, addend: 0x0, symName: __ZNSt19bad_optional_accessC1Ev, symObjAddr: 0x7740, symBinAddr: 0x100034494, symSize: 0x2C }
  - { offsetInCU: 0x17BE4, offset: 0x699D1, size: 0x8, addend: 0x0, symName: __ZNSt19bad_optional_accessC2Ev, symObjAddr: 0x776C, symBinAddr: 0x1000344C0, symSize: 0x44 }
  - { offsetInCU: 0x17C0F, offset: 0x699FC, size: 0x8, addend: 0x0, symName: __ZNKSt3__111__wrap_iterIPNS_6vectorI6GPointNS_9allocatorIS2_EEEEE4baseB8ue170006Ev, symObjAddr: 0x781C, symBinAddr: 0x10003454C, symSize: 0x18 }
  - { offsetInCU: 0x17C33, offset: 0x69A20, size: 0x8, addend: 0x0, symName: __ZNKSt3__111__wrap_iterIP4EdgeE4baseB8ue170006Ev, symObjAddr: 0x787C, symBinAddr: 0x1000345AC, symSize: 0x18 }
  - { offsetInCU: 0x17C5D, offset: 0x69A4A, size: 0x8, addend: 0x0, symName: __ZN6GPaintC2ENSt3__110shared_ptrI7GShaderEE, symObjAddr: 0x8964, symBinAddr: 0x1000345C4, symSize: 0x58 }
  - { offsetInCU: 0x17C95, offset: 0x69A82, size: 0x8, addend: 0x0, symName: __ZNSt3__110shared_ptrI7GShaderEC1B8ue170006EOS2_, symObjAddr: 0x89BC, symBinAddr: 0x10003461C, symSize: 0x34 }
  - { offsetInCU: 0x17CCE, offset: 0x69ABB, size: 0x8, addend: 0x0, symName: __ZNSt3__110shared_ptrI7GShaderEC2B8ue170006EOS2_, symObjAddr: 0x89F0, symBinAddr: 0x100034650, symSize: 0x40 }
  - { offsetInCU: 0x17DD6, offset: 0x69BC3, size: 0x8, addend: 0x0, symName: __ZN11ProxyShaderC1EP7GShaderRK7GMatrix, symObjAddr: 0x8ABC, symBinAddr: 0x100034690, symSize: 0x3C }
  - { offsetInCU: 0x17E1B, offset: 0x69C08, size: 0x8, addend: 0x0, symName: __ZN11ProxyShaderC2EP7GShaderRK7GMatrix, symObjAddr: 0x8AF8, symBinAddr: 0x1000346CC, symSize: 0x68 }
  - { offsetInCU: 0x17E60, offset: 0x69C4D, size: 0x8, addend: 0x0, symName: __ZN11ProxyShaderD1Ev, symObjAddr: 0x8BA8, symBinAddr: 0x100034734, symSize: 0x2C }
  - { offsetInCU: 0x17E8B, offset: 0x69C78, size: 0x8, addend: 0x0, symName: __ZN11ProxyShaderD0Ev, symObjAddr: 0x8BD4, symBinAddr: 0x100034760, symSize: 0x30 }
  - { offsetInCU: 0x17EB6, offset: 0x69CA3, size: 0x8, addend: 0x0, symName: __ZN11ProxyShader8isOpaqueEv, symObjAddr: 0x8C04, symBinAddr: 0x100034790, symSize: 0x34 }
  - { offsetInCU: 0x17EDA, offset: 0x69CC7, size: 0x8, addend: 0x0, symName: __ZN11ProxyShader10setContextERK7GMatrix, symObjAddr: 0x8C38, symBinAddr: 0x1000347C4, symSize: 0x58 }
  - { offsetInCU: 0x17F0C, offset: 0x69CF9, size: 0x8, addend: 0x0, symName: __ZN11ProxyShader8shadeRowEiiiPj, symObjAddr: 0x8C90, symBinAddr: 0x10003481C, symSize: 0x50 }
  - { offsetInCU: 0x17F68, offset: 0x69D55, size: 0x8, addend: 0x0, symName: __ZN11ProxyShaderD2Ev, symObjAddr: 0x8D74, symBinAddr: 0x10003486C, symSize: 0x2C }
  - { offsetInCU: 0x17F93, offset: 0x69D80, size: 0x8, addend: 0x0, symName: __ZN8MyCanvasC2ERK7GBitmap, symObjAddr: 0x8DFC, symBinAddr: 0x100034898, symSize: 0xE4 }
  - { offsetInCU: 0x17FCA, offset: 0x69DB7, size: 0x8, addend: 0x0, symName: __ZN7GCanvasC2Ev, symObjAddr: 0x8EE0, symBinAddr: 0x10003497C, symSize: 0x24 }
  - { offsetInCU: 0x17FF5, offset: 0x69DE2, size: 0x8, addend: 0x0, symName: __ZNSt3__16vectorI7GMatrixNS_9allocatorIS1_EEEC1B8ue170006Ev, symObjAddr: 0x8F04, symBinAddr: 0x1000349A0, symSize: 0x2C }
  - { offsetInCU: 0x1801E, offset: 0x69E0B, size: 0x8, addend: 0x0, symName: __ZNSt3__16vectorI7GMatrixNS_9allocatorIS1_EEED1B8ue170006Ev, symObjAddr: 0x8F30, symBinAddr: 0x1000349CC, symSize: 0x2C }
  - { offsetInCU: 0x18047, offset: 0x69E34, size: 0x8, addend: 0x0, symName: __ZN7GCanvasD2Ev, symObjAddr: 0x8F5C, symBinAddr: 0x1000349F8, symSize: 0x14 }
  - { offsetInCU: 0x18070, offset: 0x69E5D, size: 0x8, addend: 0x0, symName: __ZN7GCanvasD1Ev, symObjAddr: 0x8F70, symBinAddr: 0x100034A0C, symSize: 0x14 }
  - { offsetInCU: 0x18099, offset: 0x69E86, size: 0x8, addend: 0x0, symName: __ZN7GCanvasD0Ev, symObjAddr: 0x8F84, symBinAddr: 0x100034A20, symSize: 0xC }
  - { offsetInCU: 0x180C2, offset: 0x69EAF, size: 0x8, addend: 0x0, symName: __ZNSt3__16vectorI7GMatrixNS_9allocatorIS1_EEEC2B8ue170006Ev, symObjAddr: 0x8F90, symBinAddr: 0x100034A2C, symSize: 0x4C }
  - { offsetInCU: 0x180F7, offset: 0x69EE4, size: 0x8, addend: 0x0, symName: __ZNSt3__117__compressed_pairIP7GMatrixNS_9allocatorIS1_EEEC1B8ue170006IDnNS_18__default_init_tagEEEOT_OT0_, symObjAddr: 0x8FDC, symBinAddr: 0x100034A78, symSize: 0x3C }
  - { offsetInCU: 0x1814E, offset: 0x69F3B, size: 0x8, addend: 0x0, symName: __ZNSt3__117__compressed_pairIP7GMatrixNS_9allocatorIS1_EEEC2B8ue170006IDnNS_18__default_init_tagEEEOT_OT0_, symObjAddr: 0x9018, symBinAddr: 0x100034AB4, symSize: 0x40 }
  - { offsetInCU: 0x181A5, offset: 0x69F92, size: 0x8, addend: 0x0, symName: __ZNSt3__122__compressed_pair_elemIP7GMatrixLi0ELb0EEC2B8ue170006IDnvEEOT_, symObjAddr: 0x9058, symBinAddr: 0x100034AF4, symSize: 0x1C }
  - { offsetInCU: 0x181E6, offset: 0x69FD3, size: 0x8, addend: 0x0, symName: __ZNSt3__122__compressed_pair_elemINS_9allocatorI7GMatrixEELi1ELb1EEC2B8ue170006ENS_18__default_init_tagE, symObjAddr: 0x9074, symBinAddr: 0x100034B10, symSize: 0x2C }
  - { offsetInCU: 0x1821A, offset: 0x6A007, size: 0x8, addend: 0x0, symName: __ZNSt3__19allocatorI7GMatrixEC2B8ue170006Ev, symObjAddr: 0x90A0, symBinAddr: 0x100034B3C, symSize: 0x2C }
  - { offsetInCU: 0x18243, offset: 0x6A030, size: 0x8, addend: 0x0, symName: __ZNSt3__116__non_trivial_ifILb1ENS_9allocatorI7GMatrixEEEC2B8ue170006Ev, symObjAddr: 0x90CC, symBinAddr: 0x100034B68, symSize: 0x14 }
  - { offsetInCU: 0x1826C, offset: 0x6A059, size: 0x8, addend: 0x0, symName: __ZNSt3__16vectorI7GMatrixNS_9allocatorIS1_EEED2B8ue170006Ev, symObjAddr: 0x90E0, symBinAddr: 0x100034B7C, symSize: 0x44 }
  - { offsetInCU: 0x18295, offset: 0x6A082, size: 0x8, addend: 0x0, symName: __ZNSt3__16vectorI7GMatrixNS_9allocatorIS1_EEE16__destroy_vectorC1B8ue170006ERS4_, symObjAddr: 0x9124, symBinAddr: 0x100034BC0, symSize: 0x34 }
  - { offsetInCU: 0x182CE, offset: 0x6A0BB, size: 0x8, addend: 0x0, symName: __ZNSt3__16vectorI7GMatrixNS_9allocatorIS1_EEE16__destroy_vectorclB8ue170006Ev, symObjAddr: 0x9158, symBinAddr: 0x100034BF4, symSize: 0x90 }
  - { offsetInCU: 0x182F2, offset: 0x6A0DF, size: 0x8, addend: 0x0, symName: __ZNSt3__16vectorI7GMatrixNS_9allocatorIS1_EEE16__destroy_vectorC2B8ue170006ERS4_, symObjAddr: 0x91E8, symBinAddr: 0x100034C84, symSize: 0x20 }
  - { offsetInCU: 0x1832B, offset: 0x6A118, size: 0x8, addend: 0x0, symName: __ZNSt3__16vectorI7GMatrixNS_9allocatorIS1_EEE7__clearB8ue170006Ev, symObjAddr: 0x9208, symBinAddr: 0x100034CA4, symSize: 0x28 }
  - { offsetInCU: 0x1834F, offset: 0x6A13C, size: 0x8, addend: 0x0, symName: __ZNKSt3__16vectorI7GMatrixNS_9allocatorIS1_EEE17__annotate_deleteB8ue170006Ev, symObjAddr: 0x9230, symBinAddr: 0x100034CCC, symSize: 0xD4 }
  - { offsetInCU: 0x18373, offset: 0x6A160, size: 0x8, addend: 0x0, symName: __ZNSt3__116allocator_traitsINS_9allocatorI7GMatrixEEE10deallocateB8ue170006ERS3_PS2_m, symObjAddr: 0x9304, symBinAddr: 0x100034DA0, symSize: 0x34 }
  - { offsetInCU: 0x183B8, offset: 0x6A1A5, size: 0x8, addend: 0x0, symName: __ZNSt3__16vectorI7GMatrixNS_9allocatorIS1_EEE7__allocB8ue170006Ev, symObjAddr: 0x9338, symBinAddr: 0x100034DD4, symSize: 0x28 }
  - { offsetInCU: 0x183DC, offset: 0x6A1C9, size: 0x8, addend: 0x0, symName: __ZNKSt3__16vectorI7GMatrixNS_9allocatorIS1_EEE8capacityB8ue170006Ev, symObjAddr: 0x9360, symBinAddr: 0x100034DFC, symSize: 0x40 }
  - { offsetInCU: 0x18400, offset: 0x6A1ED, size: 0x8, addend: 0x0, symName: __ZNSt3__16vectorI7GMatrixNS_9allocatorIS1_EEE22__base_destruct_at_endB8ue170006EPS1_, symObjAddr: 0x93A0, symBinAddr: 0x100034E3C, symSize: 0x8C }
  - { offsetInCU: 0x18444, offset: 0x6A231, size: 0x8, addend: 0x0, symName: __ZNSt3__116allocator_traitsINS_9allocatorI7GMatrixEEE7destroyB8ue170006IS2_vEEvRS3_PT_, symObjAddr: 0x942C, symBinAddr: 0x100034EC8, symSize: 0x2C }
  - { offsetInCU: 0x18483, offset: 0x6A270, size: 0x8, addend: 0x0, symName: __ZNSt3__19allocatorI7GMatrixE7destroyB8ue170006EPS1_, symObjAddr: 0x946C, symBinAddr: 0x100034F08, symSize: 0x14 }
  - { offsetInCU: 0x184B5, offset: 0x6A2A2, size: 0x8, addend: 0x0, symName: __ZNKSt3__16vectorI7GMatrixNS_9allocatorIS1_EEE31__annotate_contiguous_containerB8ue170006EPKvS6_S6_S6_, symObjAddr: 0x9480, symBinAddr: 0x100034F1C, symSize: 0x20 }
  - { offsetInCU: 0x18509, offset: 0x6A2F6, size: 0x8, addend: 0x0, symName: __ZNKSt3__16vectorI7GMatrixNS_9allocatorIS1_EEE4dataB8ue170006Ev, symObjAddr: 0x94A0, symBinAddr: 0x100034F3C, symSize: 0x28 }
  - { offsetInCU: 0x1852D, offset: 0x6A31A, size: 0x8, addend: 0x0, symName: __ZNKSt3__16vectorI7GMatrixNS_9allocatorIS1_EEE4sizeB8ue170006Ev, symObjAddr: 0x94C8, symBinAddr: 0x100034F64, symSize: 0x28 }
  - { offsetInCU: 0x18551, offset: 0x6A33E, size: 0x8, addend: 0x0, symName: __ZNSt3__19allocatorI7GMatrixE10deallocateB8ue170006EPS1_m, symObjAddr: 0x94F0, symBinAddr: 0x100034F8C, symSize: 0x44 }
  - { offsetInCU: 0x18591, offset: 0x6A37E, size: 0x8, addend: 0x0, symName: __ZNSt3__117__compressed_pairIP7GMatrixNS_9allocatorIS1_EEE6secondB8ue170006Ev, symObjAddr: 0x9534, symBinAddr: 0x100034FD0, symSize: 0x24 }
  - { offsetInCU: 0x185B5, offset: 0x6A3A2, size: 0x8, addend: 0x0, symName: __ZNSt3__122__compressed_pair_elemINS_9allocatorI7GMatrixEELi1ELb1EE5__getB8ue170006Ev, symObjAddr: 0x9558, symBinAddr: 0x100034FF4, symSize: 0x14 }
  - { offsetInCU: 0x185D9, offset: 0x6A3C6, size: 0x8, addend: 0x0, symName: __ZNKSt3__16vectorI7GMatrixNS_9allocatorIS1_EEE9__end_capB8ue170006Ev, symObjAddr: 0x956C, symBinAddr: 0x100035008, symSize: 0x28 }
  - { offsetInCU: 0x185FD, offset: 0x6A3EA, size: 0x8, addend: 0x0, symName: __ZNKSt3__117__compressed_pairIP7GMatrixNS_9allocatorIS1_EEE5firstB8ue170006Ev, symObjAddr: 0x9594, symBinAddr: 0x100035030, symSize: 0x24 }
  - { offsetInCU: 0x18621, offset: 0x6A40E, size: 0x8, addend: 0x0, symName: __ZNKSt3__122__compressed_pair_elemIP7GMatrixLi0ELb0EE5__getB8ue170006Ev, symObjAddr: 0x95B8, symBinAddr: 0x100035054, symSize: 0x14 }
  - { offsetInCU: 0x18645, offset: 0x6A432, size: 0x8, addend: 0x0, symName: __ZN6GPaintC2ERK6GColor, symObjAddr: 0x95CC, symBinAddr: 0x100035068, symSize: 0x48 }
  - { offsetInCU: 0x1867C, offset: 0x6A469, size: 0x8, addend: 0x0, symName: __ZNSt3__110shared_ptrI7GShaderEC1B8ue170006Ev, symObjAddr: 0x9614, symBinAddr: 0x1000350B0, symSize: 0x2C }
  - { offsetInCU: 0x186A5, offset: 0x6A492, size: 0x8, addend: 0x0, symName: __ZNSt3__110shared_ptrI7GShaderEC2B8ue170006Ev, symObjAddr: 0x9640, symBinAddr: 0x1000350DC, symSize: 0x1C }
  - { offsetInCU: 0x186CE, offset: 0x6A4BB, size: 0x8, addend: 0x0, symName: __ZN6GPaintC2Ev, symObjAddr: 0x965C, symBinAddr: 0x1000350F8, symSize: 0x50 }
  - { offsetInCU: 0x186F7, offset: 0x6A4E4, size: 0x8, addend: 0x0, symName: __ZN8MyCanvasD2Ev, symObjAddr: 0x96AC, symBinAddr: 0x100035148, symSize: 0x48 }
  - { offsetInCU: 0x18722, offset: 0x6A50F, size: 0x8, addend: 0x0, symName: __ZNSt3__16vectorI7GMatrixNS_9allocatorIS1_EEE9__end_capB8ue170006Ev, symObjAddr: 0x9830, symBinAddr: 0x100035190, symSize: 0x28 }
  - { offsetInCU: 0x18746, offset: 0x6A533, size: 0x8, addend: 0x0, symName: __ZNSt3__16vectorI7GMatrixNS_9allocatorIS1_EEE22__construct_one_at_endB8ue170006IJRKS1_EEEvDpOT_, symObjAddr: 0x9858, symBinAddr: 0x1000351B8, symSize: 0x90 }
  - { offsetInCU: 0x18795, offset: 0x6A582, size: 0x8, addend: 0x0, symName: __ZNSt3__16vectorI7GMatrixNS_9allocatorIS1_EEE21__push_back_slow_pathIRKS1_EEvOT_, symObjAddr: 0x98E8, symBinAddr: 0x100035248, symSize: 0xD8 }
  - { offsetInCU: 0x187F5, offset: 0x6A5E2, size: 0x8, addend: 0x0, symName: __ZNSt3__117__compressed_pairIP7GMatrixNS_9allocatorIS1_EEE5firstB8ue170006Ev, symObjAddr: 0x99C0, symBinAddr: 0x100035320, symSize: 0x24 }
  - { offsetInCU: 0x18819, offset: 0x6A606, size: 0x8, addend: 0x0, symName: __ZNSt3__122__compressed_pair_elemIP7GMatrixLi0ELb0EE5__getB8ue170006Ev, symObjAddr: 0x99E4, symBinAddr: 0x100035344, symSize: 0x14 }
  - { offsetInCU: 0x18856, offset: 0x6A643, size: 0x8, addend: 0x0, symName: __ZNSt3__16vectorI7GMatrixNS_9allocatorIS1_EEE21_ConstructTransactionC1B8ue170006ERS4_m, symObjAddr: 0x99F8, symBinAddr: 0x100035358, symSize: 0x3C }
  - { offsetInCU: 0x1889F, offset: 0x6A68C, size: 0x8, addend: 0x0, symName: __ZNSt3__116allocator_traitsINS_9allocatorI7GMatrixEEE9constructB8ue170006IS2_JRKS2_EvEEvRS3_PT_DpOT0_, symObjAddr: 0x9A34, symBinAddr: 0x100035394, symSize: 0x34 }
  - { offsetInCU: 0x188F9, offset: 0x6A6E6, size: 0x8, addend: 0x0, symName: __ZNSt3__16vectorI7GMatrixNS_9allocatorIS1_EEE21_ConstructTransactionD1B8ue170006Ev, symObjAddr: 0x9A68, symBinAddr: 0x1000353C8, symSize: 0x2C }
  - { offsetInCU: 0x18922, offset: 0x6A70F, size: 0x8, addend: 0x0, symName: __ZNSt3__16vectorI7GMatrixNS_9allocatorIS1_EEE21_ConstructTransactionC2B8ue170006ERS4_m, symObjAddr: 0x9A94, symBinAddr: 0x1000353F4, symSize: 0x4C }
  - { offsetInCU: 0x1896B, offset: 0x6A758, size: 0x8, addend: 0x0, symName: __ZNSt3__19allocatorI7GMatrixE9constructB8ue170006IS1_JRKS1_EEEvPT_DpOT0_, symObjAddr: 0x9AE0, symBinAddr: 0x100035440, symSize: 0x30 }
  - { offsetInCU: 0x189BF, offset: 0x6A7AC, size: 0x8, addend: 0x0, symName: __ZNSt3__16vectorI7GMatrixNS_9allocatorIS1_EEE21_ConstructTransactionD2B8ue170006Ev, symObjAddr: 0x9B10, symBinAddr: 0x100035470, symSize: 0x20 }
  - { offsetInCU: 0x189E8, offset: 0x6A7D5, size: 0x8, addend: 0x0, symName: __ZNKSt3__16vectorI7GMatrixNS_9allocatorIS1_EEE11__recommendB8ue170006Em, symObjAddr: 0x9B30, symBinAddr: 0x100035490, symSize: 0xB4 }
  - { offsetInCU: 0x18A3F, offset: 0x6A82C, size: 0x8, addend: 0x0, symName: __ZNSt3__114__split_bufferI7GMatrixRNS_9allocatorIS1_EEEC1EmmS4_, symObjAddr: 0x9BE4, symBinAddr: 0x100035544, symSize: 0x44 }
  - { offsetInCU: 0x18A94, offset: 0x6A881, size: 0x8, addend: 0x0, symName: __ZNSt3__114__split_bufferI7GMatrixRNS_9allocatorIS1_EEED1Ev, symObjAddr: 0x9D38, symBinAddr: 0x100035698, symSize: 0x2C }
  - { offsetInCU: 0x18ABF, offset: 0x6A8AC, size: 0x8, addend: 0x0, symName: __ZNKSt3__16vectorI7GMatrixNS_9allocatorIS1_EEE8max_sizeEv, symObjAddr: 0x9D64, symBinAddr: 0x1000356C4, symSize: 0x60 }
  - { offsetInCU: 0x18AE6, offset: 0x6A8D3, size: 0x8, addend: 0x0, symName: __ZNKSt3__16vectorI7GMatrixNS_9allocatorIS1_EEE20__throw_length_errorB8ue170006Ev, symObjAddr: 0x9DC4, symBinAddr: 0x100035724, symSize: 0x1C }
  - { offsetInCU: 0x18B14, offset: 0x6A901, size: 0x8, addend: 0x0, symName: __ZNSt3__116allocator_traitsINS_9allocatorI7GMatrixEEE8max_sizeB8ue170006IS3_vEEmRKS3_, symObjAddr: 0x9E38, symBinAddr: 0x100035740, symSize: 0x24 }
  - { offsetInCU: 0x18B43, offset: 0x6A930, size: 0x8, addend: 0x0, symName: __ZNKSt3__16vectorI7GMatrixNS_9allocatorIS1_EEE7__allocB8ue170006Ev, symObjAddr: 0x9E5C, symBinAddr: 0x100035764, symSize: 0x28 }
  - { offsetInCU: 0x18B67, offset: 0x6A954, size: 0x8, addend: 0x0, symName: __ZNKSt3__19allocatorI7GMatrixE8max_sizeB8ue170006Ev, symObjAddr: 0x9F20, symBinAddr: 0x10003578C, symSize: 0x18 }
  - { offsetInCU: 0x18B8B, offset: 0x6A978, size: 0x8, addend: 0x0, symName: __ZNKSt3__117__compressed_pairIP7GMatrixNS_9allocatorIS1_EEE6secondB8ue170006Ev, symObjAddr: 0x9F38, symBinAddr: 0x1000357A4, symSize: 0x24 }
  - { offsetInCU: 0x18BAF, offset: 0x6A99C, size: 0x8, addend: 0x0, symName: __ZNKSt3__122__compressed_pair_elemINS_9allocatorI7GMatrixEELi1ELb1EE5__getB8ue170006Ev, symObjAddr: 0x9F5C, symBinAddr: 0x1000357C8, symSize: 0x14 }
  - { offsetInCU: 0x18BD3, offset: 0x6A9C0, size: 0x8, addend: 0x0, symName: __ZNSt3__114__split_bufferI7GMatrixRNS_9allocatorIS1_EEEC2EmmS4_, symObjAddr: 0xA0B0, symBinAddr: 0x1000357DC, symSize: 0xE0 }
  - { offsetInCU: 0x18C46, offset: 0x6AA33, size: 0x8, addend: 0x0, symName: __ZNSt3__117__compressed_pairIP7GMatrixRNS_9allocatorIS1_EEEC1B8ue170006IDnS5_EEOT_OT0_, symObjAddr: 0xA190, symBinAddr: 0x1000358BC, symSize: 0x3C }
  - { offsetInCU: 0x18C9D, offset: 0x6AA8A, size: 0x8, addend: 0x0, symName: __ZNSt3__114__split_bufferI7GMatrixRNS_9allocatorIS1_EEE7__allocB8ue170006Ev, symObjAddr: 0xA20C, symBinAddr: 0x100035938, symSize: 0x28 }
  - { offsetInCU: 0x18CC1, offset: 0x6AAAE, size: 0x8, addend: 0x0, symName: __ZNSt3__114__split_bufferI7GMatrixRNS_9allocatorIS1_EEE9__end_capB8ue170006Ev, symObjAddr: 0xA234, symBinAddr: 0x100035960, symSize: 0x28 }
  - { offsetInCU: 0x18CE5, offset: 0x6AAD2, size: 0x8, addend: 0x0, symName: __ZNSt3__117__compressed_pairIP7GMatrixRNS_9allocatorIS1_EEEC2B8ue170006IDnS5_EEOT_OT0_, symObjAddr: 0xA25C, symBinAddr: 0x100035988, symSize: 0x48 }
  - { offsetInCU: 0x18D3C, offset: 0x6AB29, size: 0x8, addend: 0x0, symName: __ZNSt3__122__compressed_pair_elemIRNS_9allocatorI7GMatrixEELi1ELb0EEC2B8ue170006IS4_vEEOT_, symObjAddr: 0xA2A4, symBinAddr: 0x1000359D0, symSize: 0x20 }
  - { offsetInCU: 0x18D7D, offset: 0x6AB6A, size: 0x8, addend: 0x0, symName: __ZNSt3__19allocatorI7GMatrixE8allocateB8ue170006Em, symObjAddr: 0xA2C4, symBinAddr: 0x1000359F0, symSize: 0x5C }
  - { offsetInCU: 0x18DAF, offset: 0x6AB9C, size: 0x8, addend: 0x0, symName: __ZNSt3__117__compressed_pairIP7GMatrixRNS_9allocatorIS1_EEE6secondB8ue170006Ev, symObjAddr: 0xA404, symBinAddr: 0x100035A4C, symSize: 0x28 }
  - { offsetInCU: 0x18DD3, offset: 0x6ABC0, size: 0x8, addend: 0x0, symName: __ZNSt3__122__compressed_pair_elemIRNS_9allocatorI7GMatrixEELi1ELb0EE5__getB8ue170006Ev, symObjAddr: 0xA42C, symBinAddr: 0x100035A74, symSize: 0x18 }
  - { offsetInCU: 0x18DF7, offset: 0x6ABE4, size: 0x8, addend: 0x0, symName: __ZNSt3__117__compressed_pairIP7GMatrixRNS_9allocatorIS1_EEE5firstB8ue170006Ev, symObjAddr: 0xA444, symBinAddr: 0x100035A8C, symSize: 0x24 }
  - { offsetInCU: 0x18E1B, offset: 0x6AC08, size: 0x8, addend: 0x0, symName: __ZNSt3__116reverse_iteratorIP7GMatrixEC1B8ue170006ES2_, symObjAddr: 0xA4E0, symBinAddr: 0x100035B28, symSize: 0x34 }
  - { offsetInCU: 0x18E52, offset: 0x6AC3F, size: 0x8, addend: 0x0, symName: __ZNKSt3__116reverse_iteratorIP7GMatrixE4baseB8ue170006Ev, symObjAddr: 0xA514, symBinAddr: 0x100035B5C, symSize: 0x18 }
  - { offsetInCU: 0x18E76, offset: 0x6AC63, size: 0x8, addend: 0x0, symName: __ZNKSt3__16vectorI7GMatrixNS_9allocatorIS1_EEE14__annotate_newB8ue170006Em, symObjAddr: 0xA568, symBinAddr: 0x100035BB0, symSize: 0xC8 }
  - { offsetInCU: 0x18ECE, offset: 0x6ACBB, size: 0x8, addend: 0x0, symName: __ZNKSt3__111__move_loopINS_17_ClassicAlgPolicyEEclB8ue170006INS_16reverse_iteratorIP7GMatrixEES7_S7_EENS_4pairIT_T1_EES9_T0_SA_, symObjAddr: 0xA920, symBinAddr: 0x100035F68, symSize: 0xA8 }
  - { offsetInCU: 0x18F3D, offset: 0x6AD2A, size: 0x8, addend: 0x0, symName: __ZNSt3__18_IterOpsINS_17_ClassicAlgPolicyEE11__iter_moveB8ue170006IRNS_16reverse_iteratorIP7GMatrixEEEENS_9enable_ifIXsr12is_referenceIDTdeclsr3stdE7declvalIRT_EEEEE5valueEDTclsr3stdE4movedeclsr3stdE7declvalISB_EEEEE4typeEOSA_, symObjAddr: 0xAB5C, symBinAddr: 0x1000361A4, symSize: 0x28 }
  - { offsetInCU: 0x18F69, offset: 0x6AD56, size: 0x8, addend: 0x0, symName: __ZNKSt3__116reverse_iteratorIP7GMatrixEdeB8ue170006Ev, symObjAddr: 0xAB84, symBinAddr: 0x1000361CC, symSize: 0x28 }
  - { offsetInCU: 0x18F9B, offset: 0x6AD88, size: 0x8, addend: 0x0, symName: __ZNSt3__116reverse_iteratorIP7GMatrixEppB8ue170006Ev, symObjAddr: 0xABAC, symBinAddr: 0x1000361F4, symSize: 0x20 }
  - { offsetInCU: 0x18FBF, offset: 0x6ADAC, size: 0x8, addend: 0x0, symName: __ZNSt3__18_IterOpsINS_17_ClassicAlgPolicyEE25__validate_iter_referenceB8ue170006IRNS_16reverse_iteratorIP7GMatrixEEEEvv, symObjAddr: 0xABCC, symBinAddr: 0x100036214, symSize: 0x4 }
  - { offsetInCU: 0x18FDD, offset: 0x6ADCA, size: 0x8, addend: 0x0, symName: __ZNSt3__118__unwrap_iter_implINS_16reverse_iteratorIP7GMatrixEELb0EE8__unwrapB8ue170006ES4_, symObjAddr: 0xABD0, symBinAddr: 0x100036218, symSize: 0x24 }
  - { offsetInCU: 0x19006, offset: 0x6ADF3, size: 0x8, addend: 0x0, symName: __ZNSt3__14pairINS_16reverse_iteratorIP7GMatrixEES4_EC1B8ue170006IS4_S4_LPv0EEEOT_OT0_, symObjAddr: 0xABF4, symBinAddr: 0x10003623C, symSize: 0x3C }
  - { offsetInCU: 0x19064, offset: 0x6AE51, size: 0x8, addend: 0x0, symName: __ZNSt3__14pairINS_16reverse_iteratorIP7GMatrixEES4_EC2B8ue170006IS4_S4_LPv0EEEOT_OT0_, symObjAddr: 0xAC30, symBinAddr: 0x100036278, symSize: 0x34 }
  - { offsetInCU: 0x190C2, offset: 0x6AEAF, size: 0x8, addend: 0x0, symName: __ZNSt3__118__unwrap_iter_implINS_16reverse_iteratorIP7GMatrixEELb0EE8__rewrapB8ue170006ES4_S4_, symObjAddr: 0xAC64, symBinAddr: 0x1000362AC, symSize: 0x2C }
  - { offsetInCU: 0x190F0, offset: 0x6AEDD, size: 0x8, addend: 0x0, symName: __ZNSt3__116reverse_iteratorIP7GMatrixEC2B8ue170006ES2_, symObjAddr: 0xAC90, symBinAddr: 0x1000362D8, symSize: 0x28 }
  - { offsetInCU: 0x19127, offset: 0x6AF14, size: 0x8, addend: 0x0, symName: __ZNSt3__114__split_bufferI7GMatrixRNS_9allocatorIS1_EEED2Ev, symObjAddr: 0xACB8, symBinAddr: 0x100036300, symSize: 0x8C }
  - { offsetInCU: 0x19152, offset: 0x6AF3F, size: 0x8, addend: 0x0, symName: __ZNSt3__114__split_bufferI7GMatrixRNS_9allocatorIS1_EEE5clearB8ue170006Ev, symObjAddr: 0xAD44, symBinAddr: 0x10003638C, symSize: 0x28 }
  - { offsetInCU: 0x19176, offset: 0x6AF63, size: 0x8, addend: 0x0, symName: __ZNKSt3__114__split_bufferI7GMatrixRNS_9allocatorIS1_EEE8capacityB8ue170006Ev, symObjAddr: 0xAD6C, symBinAddr: 0x1000363B4, symSize: 0x40 }
  - { offsetInCU: 0x1919A, offset: 0x6AF87, size: 0x8, addend: 0x0, symName: __ZNSt3__114__split_bufferI7GMatrixRNS_9allocatorIS1_EEE17__destruct_at_endB8ue170006EPS1_, symObjAddr: 0xADAC, symBinAddr: 0x1000363F4, symSize: 0x2C }
  - { offsetInCU: 0x191CC, offset: 0x6AFB9, size: 0x8, addend: 0x0, symName: __ZNSt3__114__split_bufferI7GMatrixRNS_9allocatorIS1_EEE17__destruct_at_endB8ue170006EPS1_NS_17integral_constantIbLb0EEE, symObjAddr: 0xADD8, symBinAddr: 0x100036420, symSize: 0x80 }
  - { offsetInCU: 0x1920C, offset: 0x6AFF9, size: 0x8, addend: 0x0, symName: __ZNKSt3__114__split_bufferI7GMatrixRNS_9allocatorIS1_EEE9__end_capB8ue170006Ev, symObjAddr: 0xAE58, symBinAddr: 0x1000364A0, symSize: 0x28 }
  - { offsetInCU: 0x19230, offset: 0x6B01D, size: 0x8, addend: 0x0, symName: __ZNKSt3__117__compressed_pairIP7GMatrixRNS_9allocatorIS1_EEE5firstB8ue170006Ev, symObjAddr: 0xAE80, symBinAddr: 0x1000364C8, symSize: 0x24 }
  - { offsetInCU: 0x19254, offset: 0x6B041, size: 0x8, addend: 0x0, symName: __ZNSt3__16vectorI7GMatrixNS_9allocatorIS1_EEE17__destruct_at_endB8ue170006EPS1_, symObjAddr: 0xB348, symBinAddr: 0x1000364EC, symSize: 0x4C }
  - { offsetInCU: 0x19298, offset: 0x6B085, size: 0x8, addend: 0x0, symName: __ZNKSt3__16vectorI7GMatrixNS_9allocatorIS1_EEE17__annotate_shrinkB8ue170006Em, symObjAddr: 0xB394, symBinAddr: 0x100036538, symSize: 0xD0 }
  - { offsetInCU: 0x192CC, offset: 0x6B0B9, size: 0x8, addend: 0x0, symName: __ZNSt3__16vectorIjNS_9allocatorIjEEEC2Em, symObjAddr: 0xB464, symBinAddr: 0x100036608, symSize: 0xD4 }
  - { offsetInCU: 0x1931E, offset: 0x6B10B, size: 0x8, addend: 0x0, symName: __ZNSt3__117__compressed_pairIPjNS_9allocatorIjEEEC1B8ue170006IDnNS_18__default_init_tagEEEOT_OT0_, symObjAddr: 0xB538, symBinAddr: 0x1000366DC, symSize: 0x3C }
  - { offsetInCU: 0x19375, offset: 0x6B162, size: 0x8, addend: 0x0, symName: __ZNSt3__16vectorIjNS_9allocatorIjEEE16__destroy_vectorC1B8ue170006ERS3_, symObjAddr: 0xB5B4, symBinAddr: 0x100036758, symSize: 0x34 }
  - { offsetInCU: 0x193AE, offset: 0x6B19B, size: 0x8, addend: 0x0, symName: __ZNSt3__16vectorIjNS_9allocatorIjEEE11__vallocateB8ue170006Em, symObjAddr: 0xB5E8, symBinAddr: 0x10003678C, symSize: 0xAC }
  - { offsetInCU: 0x193F2, offset: 0x6B1DF, size: 0x8, addend: 0x0, symName: __ZNSt3__16vectorIjNS_9allocatorIjEEE18__construct_at_endEm, symObjAddr: 0xB694, symBinAddr: 0x100036838, symSize: 0xC8 }
  - { offsetInCU: 0x19467, offset: 0x6B254, size: 0x8, addend: 0x0, symName: __ZNSt3__128__exception_guard_exceptionsINS_6vectorIjNS_9allocatorIjEEE16__destroy_vectorEE10__completeB8ue170006Ev, symObjAddr: 0xB75C, symBinAddr: 0x100036900, symSize: 0x1C }
  - { offsetInCU: 0x1948B, offset: 0x6B278, size: 0x8, addend: 0x0, symName: __ZNSt3__128__exception_guard_exceptionsINS_6vectorIjNS_9allocatorIjEEE16__destroy_vectorEED1B8ue170006Ev, symObjAddr: 0xB778, symBinAddr: 0x10003691C, symSize: 0x2C }
  - { offsetInCU: 0x194B4, offset: 0x6B2A1, size: 0x8, addend: 0x0, symName: __ZNSt3__117__compressed_pairIPjNS_9allocatorIjEEEC2B8ue170006IDnNS_18__default_init_tagEEEOT_OT0_, symObjAddr: 0xB7A4, symBinAddr: 0x100036948, symSize: 0x40 }
  - { offsetInCU: 0x1950B, offset: 0x6B2F8, size: 0x8, addend: 0x0, symName: __ZNSt3__122__compressed_pair_elemIPjLi0ELb0EEC2B8ue170006IDnvEEOT_, symObjAddr: 0xB7E4, symBinAddr: 0x100036988, symSize: 0x1C }
  - { offsetInCU: 0x1954C, offset: 0x6B339, size: 0x8, addend: 0x0, symName: __ZNSt3__122__compressed_pair_elemINS_9allocatorIjEELi1ELb1EEC2B8ue170006ENS_18__default_init_tagE, symObjAddr: 0xB800, symBinAddr: 0x1000369A4, symSize: 0x2C }
  - { offsetInCU: 0x19580, offset: 0x6B36D, size: 0x8, addend: 0x0, symName: __ZNSt3__19allocatorIjEC2B8ue170006Ev, symObjAddr: 0xB82C, symBinAddr: 0x1000369D0, symSize: 0x2C }
  - { offsetInCU: 0x195A9, offset: 0x6B396, size: 0x8, addend: 0x0, symName: __ZNSt3__116__non_trivial_ifILb1ENS_9allocatorIjEEEC2B8ue170006Ev, symObjAddr: 0xB858, symBinAddr: 0x1000369FC, symSize: 0x14 }
  - { offsetInCU: 0x195D2, offset: 0x6B3BF, size: 0x8, addend: 0x0, symName: __ZNSt3__128__exception_guard_exceptionsINS_6vectorIjNS_9allocatorIjEEE16__destroy_vectorEEC1B8ue170006ES5_, symObjAddr: 0xB86C, symBinAddr: 0x100036A10, symSize: 0x34 }
  - { offsetInCU: 0x19609, offset: 0x6B3F6, size: 0x8, addend: 0x0, symName: __ZNSt3__128__exception_guard_exceptionsINS_6vectorIjNS_9allocatorIjEEE16__destroy_vectorEEC2B8ue170006ES5_, symObjAddr: 0xB8A0, symBinAddr: 0x100036A44, symSize: 0x24 }
  - { offsetInCU: 0x19640, offset: 0x6B42D, size: 0x8, addend: 0x0, symName: __ZNSt3__16vectorIjNS_9allocatorIjEEE16__destroy_vectorC2B8ue170006ERS3_, symObjAddr: 0xB8C4, symBinAddr: 0x100036A68, symSize: 0x20 }
  - { offsetInCU: 0x19679, offset: 0x6B466, size: 0x8, addend: 0x0, symName: __ZNKSt3__16vectorIjNS_9allocatorIjEEE8max_sizeEv, symObjAddr: 0xB8E4, symBinAddr: 0x100036A88, symSize: 0x60 }
  - { offsetInCU: 0x196A0, offset: 0x6B48D, size: 0x8, addend: 0x0, symName: __ZNKSt3__16vectorIjNS_9allocatorIjEEE20__throw_length_errorB8ue170006Ev, symObjAddr: 0xB944, symBinAddr: 0x100036AE8, symSize: 0x1C }
  - { offsetInCU: 0x196C4, offset: 0x6B4B1, size: 0x8, addend: 0x0, symName: __ZNSt3__16vectorIjNS_9allocatorIjEEE7__allocB8ue170006Ev, symObjAddr: 0xB9A0, symBinAddr: 0x100036B44, symSize: 0x28 }
  - { offsetInCU: 0x196E8, offset: 0x6B4D5, size: 0x8, addend: 0x0, symName: __ZNSt3__16vectorIjNS_9allocatorIjEEE9__end_capB8ue170006Ev, symObjAddr: 0xB9C8, symBinAddr: 0x100036B6C, symSize: 0x28 }
  - { offsetInCU: 0x1970C, offset: 0x6B4F9, size: 0x8, addend: 0x0, symName: __ZNKSt3__16vectorIjNS_9allocatorIjEEE14__annotate_newB8ue170006Em, symObjAddr: 0xB9F0, symBinAddr: 0x100036B94, symSize: 0xAC }
  - { offsetInCU: 0x1974A, offset: 0x6B537, size: 0x8, addend: 0x0, symName: __ZNSt3__116allocator_traitsINS_9allocatorIjEEE8max_sizeB8ue170006IS2_vEEmRKS2_, symObjAddr: 0xBA9C, symBinAddr: 0x100036C40, symSize: 0x24 }
  - { offsetInCU: 0x19779, offset: 0x6B566, size: 0x8, addend: 0x0, symName: __ZNKSt3__16vectorIjNS_9allocatorIjEEE7__allocB8ue170006Ev, symObjAddr: 0xBAC0, symBinAddr: 0x100036C64, symSize: 0x28 }
  - { offsetInCU: 0x1979D, offset: 0x6B58A, size: 0x8, addend: 0x0, symName: __ZNKSt3__19allocatorIjE8max_sizeB8ue170006Ev, symObjAddr: 0xBAE8, symBinAddr: 0x100036C8C, symSize: 0x14 }
  - { offsetInCU: 0x197C1, offset: 0x6B5AE, size: 0x8, addend: 0x0, symName: __ZNKSt3__117__compressed_pairIPjNS_9allocatorIjEEE6secondB8ue170006Ev, symObjAddr: 0xBAFC, symBinAddr: 0x100036CA0, symSize: 0x24 }
  - { offsetInCU: 0x197E5, offset: 0x6B5D2, size: 0x8, addend: 0x0, symName: __ZNKSt3__122__compressed_pair_elemINS_9allocatorIjEELi1ELb1EE5__getB8ue170006Ev, symObjAddr: 0xBB20, symBinAddr: 0x100036CC4, symSize: 0x14 }
  - { offsetInCU: 0x19809, offset: 0x6B5F6, size: 0x8, addend: 0x0, symName: __ZNSt3__19allocatorIjE8allocateB8ue170006Em, symObjAddr: 0xBB34, symBinAddr: 0x100036CD8, symSize: 0x58 }
  - { offsetInCU: 0x1983B, offset: 0x6B628, size: 0x8, addend: 0x0, symName: __ZNSt3__117__compressed_pairIPjNS_9allocatorIjEEE6secondB8ue170006Ev, symObjAddr: 0xBB8C, symBinAddr: 0x100036D30, symSize: 0x24 }
  - { offsetInCU: 0x1985F, offset: 0x6B64C, size: 0x8, addend: 0x0, symName: __ZNSt3__122__compressed_pair_elemINS_9allocatorIjEELi1ELb1EE5__getB8ue170006Ev, symObjAddr: 0xBBB0, symBinAddr: 0x100036D54, symSize: 0x14 }
  - { offsetInCU: 0x19883, offset: 0x6B670, size: 0x8, addend: 0x0, symName: __ZNSt3__117__compressed_pairIPjNS_9allocatorIjEEE5firstB8ue170006Ev, symObjAddr: 0xBBC4, symBinAddr: 0x100036D68, symSize: 0x24 }
  - { offsetInCU: 0x198A7, offset: 0x6B694, size: 0x8, addend: 0x0, symName: __ZNSt3__122__compressed_pair_elemIPjLi0ELb0EE5__getB8ue170006Ev, symObjAddr: 0xBBE8, symBinAddr: 0x100036D8C, symSize: 0x14 }
  - { offsetInCU: 0x198CB, offset: 0x6B6B8, size: 0x8, addend: 0x0, symName: __ZNKSt3__16vectorIjNS_9allocatorIjEEE31__annotate_contiguous_containerB8ue170006EPKvS5_S5_S5_, symObjAddr: 0xBBFC, symBinAddr: 0x100036DA0, symSize: 0x20 }
  - { offsetInCU: 0x1991F, offset: 0x6B70C, size: 0x8, addend: 0x0, symName: __ZNKSt3__16vectorIjNS_9allocatorIjEEE4dataB8ue170006Ev, symObjAddr: 0xBC1C, symBinAddr: 0x100036DC0, symSize: 0x28 }
  - { offsetInCU: 0x19943, offset: 0x6B730, size: 0x8, addend: 0x0, symName: __ZNKSt3__16vectorIjNS_9allocatorIjEEE8capacityB8ue170006Ev, symObjAddr: 0xBC44, symBinAddr: 0x100036DE8, symSize: 0x40 }
  - { offsetInCU: 0x19967, offset: 0x6B754, size: 0x8, addend: 0x0, symName: __ZNKSt3__16vectorIjNS_9allocatorIjEEE9__end_capB8ue170006Ev, symObjAddr: 0xBC98, symBinAddr: 0x100036E3C, symSize: 0x28 }
  - { offsetInCU: 0x1998B, offset: 0x6B778, size: 0x8, addend: 0x0, symName: __ZNKSt3__117__compressed_pairIPjNS_9allocatorIjEEE5firstB8ue170006Ev, symObjAddr: 0xBCC0, symBinAddr: 0x100036E64, symSize: 0x24 }
  - { offsetInCU: 0x199AF, offset: 0x6B79C, size: 0x8, addend: 0x0, symName: __ZNKSt3__122__compressed_pair_elemIPjLi0ELb0EE5__getB8ue170006Ev, symObjAddr: 0xBCE4, symBinAddr: 0x100036E88, symSize: 0x14 }
  - { offsetInCU: 0x199EC, offset: 0x6B7D9, size: 0x8, addend: 0x0, symName: __ZNSt3__16vectorIjNS_9allocatorIjEEE21_ConstructTransactionC1B8ue170006ERS3_m, symObjAddr: 0xBCF8, symBinAddr: 0x100036E9C, symSize: 0x3C }
  - { offsetInCU: 0x19A35, offset: 0x6B822, size: 0x8, addend: 0x0, symName: __ZNSt3__116allocator_traitsINS_9allocatorIjEEE9constructB8ue170006IjJEvEEvRS2_PT_DpOT0_, symObjAddr: 0xBD34, symBinAddr: 0x100036ED8, symSize: 0x2C }
  - { offsetInCU: 0x19A79, offset: 0x6B866, size: 0x8, addend: 0x0, symName: __ZNSt3__16vectorIjNS_9allocatorIjEEE21_ConstructTransactionD1B8ue170006Ev, symObjAddr: 0xBD60, symBinAddr: 0x100036F04, symSize: 0x2C }
  - { offsetInCU: 0x19AA2, offset: 0x6B88F, size: 0x8, addend: 0x0, symName: __ZNSt3__16vectorIjNS_9allocatorIjEEE21_ConstructTransactionC2B8ue170006ERS3_m, symObjAddr: 0xBD8C, symBinAddr: 0x100036F30, symSize: 0x44 }
  - { offsetInCU: 0x19AEB, offset: 0x6B8D8, size: 0x8, addend: 0x0, symName: __ZNSt3__19allocatorIjE9constructB8ue170006IjJEEEvPT_DpOT0_, symObjAddr: 0xBDD0, symBinAddr: 0x100036F74, symSize: 0x1C }
  - { offsetInCU: 0x19B2B, offset: 0x6B918, size: 0x8, addend: 0x0, symName: __ZNSt3__16vectorIjNS_9allocatorIjEEE21_ConstructTransactionD2B8ue170006Ev, symObjAddr: 0xBDEC, symBinAddr: 0x100036F90, symSize: 0x20 }
  - { offsetInCU: 0x19B54, offset: 0x6B941, size: 0x8, addend: 0x0, symName: __ZNSt3__128__exception_guard_exceptionsINS_6vectorIjNS_9allocatorIjEEE16__destroy_vectorEED2B8ue170006Ev, symObjAddr: 0xBE0C, symBinAddr: 0x100036FB0, symSize: 0x50 }
  - { offsetInCU: 0x19B7D, offset: 0x6B96A, size: 0x8, addend: 0x0, symName: __ZNSt3__16vectorIjNS_9allocatorIjEEE16__destroy_vectorclB8ue170006Ev, symObjAddr: 0xBE5C, symBinAddr: 0x100037000, symSize: 0x90 }
  - { offsetInCU: 0x19BA1, offset: 0x6B98E, size: 0x8, addend: 0x0, symName: __ZNSt3__16vectorIjNS_9allocatorIjEEE7__clearB8ue170006Ev, symObjAddr: 0xBEEC, symBinAddr: 0x100037090, symSize: 0x28 }
  - { offsetInCU: 0x19BC5, offset: 0x6B9B2, size: 0x8, addend: 0x0, symName: __ZNKSt3__16vectorIjNS_9allocatorIjEEE17__annotate_deleteB8ue170006Ev, symObjAddr: 0xBF14, symBinAddr: 0x1000370B8, symSize: 0xB8 }
  - { offsetInCU: 0x19BE9, offset: 0x6B9D6, size: 0x8, addend: 0x0, symName: __ZNSt3__116allocator_traitsINS_9allocatorIjEEE10deallocateB8ue170006ERS2_Pjm, symObjAddr: 0xBFCC, symBinAddr: 0x100037170, symSize: 0x34 }
  - { offsetInCU: 0x19C2E, offset: 0x6BA1B, size: 0x8, addend: 0x0, symName: __ZNSt3__16vectorIjNS_9allocatorIjEEE22__base_destruct_at_endB8ue170006EPj, symObjAddr: 0xC000, symBinAddr: 0x1000371A4, symSize: 0x8C }
  - { offsetInCU: 0x19C72, offset: 0x6BA5F, size: 0x8, addend: 0x0, symName: __ZNSt3__116allocator_traitsINS_9allocatorIjEEE7destroyB8ue170006IjvEEvRS2_PT_, symObjAddr: 0xC08C, symBinAddr: 0x100037230, symSize: 0x2C }
  - { offsetInCU: 0x19CB1, offset: 0x6BA9E, size: 0x8, addend: 0x0, symName: __ZNSt3__19allocatorIjE7destroyB8ue170006EPj, symObjAddr: 0xC0B8, symBinAddr: 0x10003725C, symSize: 0x14 }
  - { offsetInCU: 0x19CE3, offset: 0x6BAD0, size: 0x8, addend: 0x0, symName: __ZNKSt3__16vectorIjNS_9allocatorIjEEE4sizeB8ue170006Ev, symObjAddr: 0xC0CC, symBinAddr: 0x100037270, symSize: 0x28 }
  - { offsetInCU: 0x19D07, offset: 0x6BAF4, size: 0x8, addend: 0x0, symName: __ZNSt3__19allocatorIjE10deallocateB8ue170006EPjm, symObjAddr: 0xC0F4, symBinAddr: 0x100037298, symSize: 0x40 }
  - { offsetInCU: 0x19D47, offset: 0x6BB34, size: 0x8, addend: 0x0, symName: __ZNSt3__16vectorIjNS_9allocatorIjEEED2B8ue170006Ev, symObjAddr: 0xC134, symBinAddr: 0x1000372D8, symSize: 0x40 }
  - { offsetInCU: 0x19D70, offset: 0x6BB5D, size: 0x8, addend: 0x0, symName: __ZNSt3__14listI4EdgeNS_9allocatorIS1_EEEC2B8ue170006Ev, symObjAddr: 0xC174, symBinAddr: 0x100037318, symSize: 0x2C }
  - { offsetInCU: 0x19D99, offset: 0x6BB86, size: 0x8, addend: 0x0, symName: __ZNSt3__110__list_impI4EdgeNS_9allocatorIS1_EEEC2Ev, symObjAddr: 0xC1A0, symBinAddr: 0x100037344, symSize: 0x50 }
  - { offsetInCU: 0x19DC4, offset: 0x6BBB1, size: 0x8, addend: 0x0, symName: __ZNSt3__116__list_node_baseI4EdgePvEC1B8ue170006Ev, symObjAddr: 0xC1F0, symBinAddr: 0x100037394, symSize: 0x2C }
  - { offsetInCU: 0x19DF3, offset: 0x6BBE0, size: 0x8, addend: 0x0, symName: __ZNSt3__117__compressed_pairImNS_9allocatorINS_11__list_nodeI4EdgePvEEEEEC1B8ue170006IiNS_18__default_init_tagEEEOT_OT0_, symObjAddr: 0xC21C, symBinAddr: 0x1000373C0, symSize: 0x3C }
  - { offsetInCU: 0x19E4A, offset: 0x6BC37, size: 0x8, addend: 0x0, symName: __ZNSt3__116__list_node_baseI4EdgePvEC2B8ue170006Ev, symObjAddr: 0xC258, symBinAddr: 0x1000373FC, symSize: 0x4C }
  - { offsetInCU: 0x19E73, offset: 0x6BC60, size: 0x8, addend: 0x0, symName: __ZNSt3__117__compressed_pairImNS_9allocatorINS_11__list_nodeI4EdgePvEEEEEC2B8ue170006IiNS_18__default_init_tagEEEOT_OT0_, symObjAddr: 0xC2A4, symBinAddr: 0x100037448, symSize: 0x40 }
  - { offsetInCU: 0x19ECA, offset: 0x6BCB7, size: 0x8, addend: 0x0, symName: __ZNSt3__122__compressed_pair_elemImLi0ELb0EEC2B8ue170006IivEEOT_, symObjAddr: 0xC2E4, symBinAddr: 0x100037488, symSize: 0x24 }
  - { offsetInCU: 0x19F0B, offset: 0x6BCF8, size: 0x8, addend: 0x0, symName: __ZNSt3__122__compressed_pair_elemINS_9allocatorINS_11__list_nodeI4EdgePvEEEELi1ELb1EEC2B8ue170006ENS_18__default_init_tagE, symObjAddr: 0xC308, symBinAddr: 0x1000374AC, symSize: 0x2C }
  - { offsetInCU: 0x19F3F, offset: 0x6BD2C, size: 0x8, addend: 0x0, symName: __ZNSt3__19allocatorINS_11__list_nodeI4EdgePvEEEC2B8ue170006Ev, symObjAddr: 0xC334, symBinAddr: 0x1000374D8, symSize: 0x2C }
  - { offsetInCU: 0x19F68, offset: 0x6BD55, size: 0x8, addend: 0x0, symName: __ZNSt3__116__non_trivial_ifILb1ENS_9allocatorINS_11__list_nodeI4EdgePvEEEEEC2B8ue170006Ev, symObjAddr: 0xC360, symBinAddr: 0x100037504, symSize: 0x14 }
  - { offsetInCU: 0x19F91, offset: 0x6BD7E, size: 0x8, addend: 0x0, symName: __ZNSt3__14listI4EdgeNS_9allocatorIS1_EEE15__allocate_nodeB8ue170006ERNS2_INS_11__list_nodeIS1_PvEEEE, symObjAddr: 0xC374, symBinAddr: 0x100037518, symSize: 0x70 }
  - { offsetInCU: 0x19FDB, offset: 0x6BDC8, size: 0x8, addend: 0x0, symName: __ZNSt3__116allocator_traitsINS_9allocatorINS_11__list_nodeI4EdgePvEEEEE9constructB8ue170006IS3_JS3_EvEEvRS6_PT_DpOT0_, symObjAddr: 0xC3E4, symBinAddr: 0x100037588, symSize: 0x34 }
  - { offsetInCU: 0x1A035, offset: 0x6BE22, size: 0x8, addend: 0x0, symName: __ZNKSt3__110unique_ptrINS_11__list_nodeI4EdgePvEENS_22__allocator_destructorINS_9allocatorIS4_EEEEEptB8ue170006Ev, symObjAddr: 0xC418, symBinAddr: 0x1000375BC, symSize: 0x28 }
  - { offsetInCU: 0x1A059, offset: 0x6BE46, size: 0x8, addend: 0x0, symName: __ZNSt3__14listI4EdgeNS_9allocatorIS1_EEE20__link_nodes_at_backEPNS_16__list_node_baseIS1_PvEES8_, symObjAddr: 0xC440, symBinAddr: 0x1000375E4, symSize: 0x60 }
  - { offsetInCU: 0x1A0A0, offset: 0x6BE8D, size: 0x8, addend: 0x0, symName: __ZNKSt3__110unique_ptrINS_11__list_nodeI4EdgePvEENS_22__allocator_destructorINS_9allocatorIS4_EEEEE3getB8ue170006Ev, symObjAddr: 0xC4A0, symBinAddr: 0x100037644, symSize: 0x28 }
  - { offsetInCU: 0x1A0C4, offset: 0x6BEB1, size: 0x8, addend: 0x0, symName: __ZNSt3__111__list_nodeI4EdgePvE9__as_linkB8ue170006Ev, symObjAddr: 0xC4C8, symBinAddr: 0x10003766C, symSize: 0x24 }
  - { offsetInCU: 0x1A0E8, offset: 0x6BED5, size: 0x8, addend: 0x0, symName: __ZNSt3__110unique_ptrINS_11__list_nodeI4EdgePvEENS_22__allocator_destructorINS_9allocatorIS4_EEEEE7releaseB8ue170006Ev, symObjAddr: 0xC4EC, symBinAddr: 0x100037690, symSize: 0x44 }
  - { offsetInCU: 0x1A11C, offset: 0x6BF09, size: 0x8, addend: 0x0, symName: __ZNSt3__110unique_ptrINS_11__list_nodeI4EdgePvEENS_22__allocator_destructorINS_9allocatorIS4_EEEEED1B8ue170006Ev, symObjAddr: 0xC530, symBinAddr: 0x1000376D4, symSize: 0x2C }
  - { offsetInCU: 0x1A145, offset: 0x6BF32, size: 0x8, addend: 0x0, symName: __ZNSt3__116allocator_traitsINS_9allocatorINS_11__list_nodeI4EdgePvEEEEE8allocateB8ue170006ERS6_m, symObjAddr: 0xC55C, symBinAddr: 0x100037700, symSize: 0x2C }
  - { offsetInCU: 0x1A17A, offset: 0x6BF67, size: 0x8, addend: 0x0, symName: __ZNSt3__122__allocator_destructorINS_9allocatorINS_11__list_nodeI4EdgePvEEEEEC1B8ue170006ERS6_m, symObjAddr: 0xC588, symBinAddr: 0x10003772C, symSize: 0x3C }
  - { offsetInCU: 0x1A1C5, offset: 0x6BFB2, size: 0x8, addend: 0x0, symName: __ZNSt3__110unique_ptrINS_11__list_nodeI4EdgePvEENS_22__allocator_destructorINS_9allocatorIS4_EEEEEC1B8ue170006ILb1EvEEPS4_NS_16__dependent_typeINS_27__unique_ptr_deleter_sfinaeIS8_EEXT_EE20__good_rval_ref_typeE, symObjAddr: 0xC5C4, symBinAddr: 0x100037768, symSize: 0x3C }
  - { offsetInCU: 0x1A215, offset: 0x6C002, size: 0x8, addend: 0x0, symName: __ZNSt3__19allocatorINS_11__list_nodeI4EdgePvEEE8allocateB8ue170006Em, symObjAddr: 0xC600, symBinAddr: 0x1000377A4, symSize: 0x5C }
  - { offsetInCU: 0x1A251, offset: 0x6C03E, size: 0x8, addend: 0x0, symName: __ZNSt3__116allocator_traitsINS_9allocatorINS_11__list_nodeI4EdgePvEEEEE8max_sizeB8ue170006IS6_vEEmRKS6_, symObjAddr: 0xC65C, symBinAddr: 0x100037800, symSize: 0x24 }
  - { offsetInCU: 0x1A280, offset: 0x6C06D, size: 0x8, addend: 0x0, symName: __ZNKSt3__19allocatorINS_11__list_nodeI4EdgePvEEE8max_sizeB8ue170006Ev, symObjAddr: 0xC680, symBinAddr: 0x100037824, symSize: 0x18 }
  - { offsetInCU: 0x1A2A4, offset: 0x6C091, size: 0x8, addend: 0x0, symName: __ZNSt3__122__allocator_destructorINS_9allocatorINS_11__list_nodeI4EdgePvEEEEEC2B8ue170006ERS6_m, symObjAddr: 0xC698, symBinAddr: 0x10003783C, symSize: 0x2C }
  - { offsetInCU: 0x1A2E9, offset: 0x6C0D6, size: 0x8, addend: 0x0, symName: __ZNSt3__110unique_ptrINS_11__list_nodeI4EdgePvEENS_22__allocator_destructorINS_9allocatorIS4_EEEEEC2B8ue170006ILb1EvEEPS4_NS_16__dependent_typeINS_27__unique_ptr_deleter_sfinaeIS8_EEXT_EE20__good_rval_ref_typeE, symObjAddr: 0xC6C4, symBinAddr: 0x100037868, symSize: 0x48 }
  - { offsetInCU: 0x1A339, offset: 0x6C126, size: 0x8, addend: 0x0, symName: __ZNSt3__117__compressed_pairIPNS_11__list_nodeI4EdgePvEENS_22__allocator_destructorINS_9allocatorIS4_EEEEEC1B8ue170006IRS5_S9_EEOT_OT0_, symObjAddr: 0xC70C, symBinAddr: 0x1000378B0, symSize: 0x3C }
  - { offsetInCU: 0x1A390, offset: 0x6C17D, size: 0x8, addend: 0x0, symName: __ZNSt3__117__compressed_pairIPNS_11__list_nodeI4EdgePvEENS_22__allocator_destructorINS_9allocatorIS4_EEEEEC2B8ue170006IRS5_S9_EEOT_OT0_, symObjAddr: 0xC748, symBinAddr: 0x1000378EC, symSize: 0x48 }
  - { offsetInCU: 0x1A3E7, offset: 0x6C1D4, size: 0x8, addend: 0x0, symName: __ZNSt3__122__compressed_pair_elemIPNS_11__list_nodeI4EdgePvEELi0ELb0EEC2B8ue170006IRS5_vEEOT_, symObjAddr: 0xC790, symBinAddr: 0x100037934, symSize: 0x24 }
  - { offsetInCU: 0x1A428, offset: 0x6C215, size: 0x8, addend: 0x0, symName: __ZNSt3__122__compressed_pair_elemINS_22__allocator_destructorINS_9allocatorINS_11__list_nodeI4EdgePvEEEEEELi1ELb0EEC2B8ue170006IS8_vEEOT_, symObjAddr: 0xC7B4, symBinAddr: 0x100037958, symSize: 0x24 }
  - { offsetInCU: 0x1A469, offset: 0x6C256, size: 0x8, addend: 0x0, symName: __ZNSt3__19allocatorINS_11__list_nodeI4EdgePvEEE9constructB8ue170006IS2_JS2_EEEvPT_DpOT0_, symObjAddr: 0xC7D8, symBinAddr: 0x10003797C, symSize: 0x34 }
  - { offsetInCU: 0x1A4BD, offset: 0x6C2AA, size: 0x8, addend: 0x0, symName: __ZNKSt3__117__compressed_pairIPNS_11__list_nodeI4EdgePvEENS_22__allocator_destructorINS_9allocatorIS4_EEEEE5firstB8ue170006Ev, symObjAddr: 0xC80C, symBinAddr: 0x1000379B0, symSize: 0x24 }
  - { offsetInCU: 0x1A4E1, offset: 0x6C2CE, size: 0x8, addend: 0x0, symName: __ZNKSt3__122__compressed_pair_elemIPNS_11__list_nodeI4EdgePvEELi0ELb0EE5__getB8ue170006Ev, symObjAddr: 0xC830, symBinAddr: 0x1000379D4, symSize: 0x14 }
  - { offsetInCU: 0x1A505, offset: 0x6C2F2, size: 0x8, addend: 0x0, symName: __ZNSt3__117__compressed_pairIPNS_11__list_nodeI4EdgePvEENS_22__allocator_destructorINS_9allocatorIS4_EEEEE5firstB8ue170006Ev, symObjAddr: 0xC844, symBinAddr: 0x1000379E8, symSize: 0x24 }
  - { offsetInCU: 0x1A529, offset: 0x6C316, size: 0x8, addend: 0x0, symName: __ZNSt3__122__compressed_pair_elemIPNS_11__list_nodeI4EdgePvEELi0ELb0EE5__getB8ue170006Ev, symObjAddr: 0xC868, symBinAddr: 0x100037A0C, symSize: 0x14 }
  - { offsetInCU: 0x1A54D, offset: 0x6C33A, size: 0x8, addend: 0x0, symName: __ZNSt3__110unique_ptrINS_11__list_nodeI4EdgePvEENS_22__allocator_destructorINS_9allocatorIS4_EEEEED2B8ue170006Ev, symObjAddr: 0xC87C, symBinAddr: 0x100037A20, symSize: 0x30 }
  - { offsetInCU: 0x1A576, offset: 0x6C363, size: 0x8, addend: 0x0, symName: __ZNSt3__110unique_ptrINS_11__list_nodeI4EdgePvEENS_22__allocator_destructorINS_9allocatorIS4_EEEEE5resetB8ue170006EPS4_, symObjAddr: 0xC8AC, symBinAddr: 0x100037A50, symSize: 0x78 }
  - { offsetInCU: 0x1A5BA, offset: 0x6C3A7, size: 0x8, addend: 0x0, symName: __ZNSt3__117__compressed_pairIPNS_11__list_nodeI4EdgePvEENS_22__allocator_destructorINS_9allocatorIS4_EEEEE6secondB8ue170006Ev, symObjAddr: 0xC924, symBinAddr: 0x100037AC8, symSize: 0x28 }
  - { offsetInCU: 0x1A5DE, offset: 0x6C3CB, size: 0x8, addend: 0x0, symName: __ZNSt3__122__allocator_destructorINS_9allocatorINS_11__list_nodeI4EdgePvEEEEEclB8ue170006EPS5_, symObjAddr: 0xC94C, symBinAddr: 0x100037AF0, symSize: 0x34 }
  - { offsetInCU: 0x1A610, offset: 0x6C3FD, size: 0x8, addend: 0x0, symName: __ZNSt3__122__compressed_pair_elemINS_22__allocator_destructorINS_9allocatorINS_11__list_nodeI4EdgePvEEEEEELi1ELb0EE5__getB8ue170006Ev, symObjAddr: 0xC980, symBinAddr: 0x100037B24, symSize: 0x14 }
  - { offsetInCU: 0x1A639, offset: 0x6C426, size: 0x8, addend: 0x0, symName: '__ZNSt3__14listI4EdgeNS_9allocatorIS1_EEE6__sortIZN8MyCanvas17drawConvexPolygonEPK6GPointiRK6GPaintE3$_0EENS_15__list_iteratorIS1_PvEESG_SG_mRT_', symObjAddr: 0xC994, symBinAddr: 0x100037B38, symSize: 0x460 }
  - { offsetInCU: 0x1A77C, offset: 0x6C569, size: 0x8, addend: 0x0, symName: __ZNSt3__14listI4EdgeNS_9allocatorIS1_EEE5beginB8ue170006Ev, symObjAddr: 0xCDF4, symBinAddr: 0x100037F98, symSize: 0x2C }
  - { offsetInCU: 0x1A7A0, offset: 0x6C58D, size: 0x8, addend: 0x0, symName: __ZNSt3__14listI4EdgeNS_9allocatorIS1_EEE3endB8ue170006Ev, symObjAddr: 0xCE20, symBinAddr: 0x100037FC4, symSize: 0x2C }
  - { offsetInCU: 0x1A7CE, offset: 0x6C5BB, size: 0x8, addend: 0x0, symName: '__ZZN8MyCanvas17drawConvexPolygonEPK6GPointiRK6GPaintENK3$_0clERK4EdgeS9_', symObjAddr: 0xCE4C, symBinAddr: 0x100037FF0, symSize: 0x34 }
  - { offsetInCU: 0x1A817, offset: 0x6C604, size: 0x8, addend: 0x0, symName: __ZNSt3__115__list_iteratorI4EdgePvEmmB8ue170006Ev, symObjAddr: 0xCE80, symBinAddr: 0x100038024, symSize: 0x20 }
  - { offsetInCU: 0x1A83B, offset: 0x6C628, size: 0x8, addend: 0x0, symName: __ZNKSt3__115__list_iteratorI4EdgePvEdeB8ue170006Ev, symObjAddr: 0xCEA0, symBinAddr: 0x100038044, symSize: 0x2C }
  - { offsetInCU: 0x1A85F, offset: 0x6C64C, size: 0x8, addend: 0x0, symName: __ZNSt3__14listI4EdgeNS_9allocatorIS1_EEE12__link_nodesEPNS_16__list_node_baseIS1_PvEES8_S8_, symObjAddr: 0xCECC, symBinAddr: 0x100038070, symSize: 0x50 }
  - { offsetInCU: 0x1A8A6, offset: 0x6C693, size: 0x8, addend: 0x0, symName: __ZNSt3__115__list_iteratorI4EdgePvEppB8ue170006Ev, symObjAddr: 0xCF8C, symBinAddr: 0x100038130, symSize: 0x20 }
  - { offsetInCU: 0x1A8CA, offset: 0x6C6B7, size: 0x8, addend: 0x0, symName: __ZNSt3__110__list_impI4EdgeNS_9allocatorIS1_EEE5beginB8ue170006Ev, symObjAddr: 0xD0CC, symBinAddr: 0x10003825C, symSize: 0x30 }
  - { offsetInCU: 0x1A8EE, offset: 0x6C6DB, size: 0x8, addend: 0x0, symName: __ZNSt3__115__list_iteratorI4EdgePvEC1B8ue170006EPNS_16__list_node_baseIS1_S2_EE, symObjAddr: 0xD0FC, symBinAddr: 0x10003828C, symSize: 0x34 }
  - { offsetInCU: 0x1A927, offset: 0x6C714, size: 0x8, addend: 0x0, symName: __ZNSt3__115__list_iteratorI4EdgePvEC2B8ue170006EPNS_16__list_node_baseIS1_S2_EE, symObjAddr: 0xD130, symBinAddr: 0x1000382C0, symSize: 0x20 }
  - { offsetInCU: 0x1A960, offset: 0x6C74D, size: 0x8, addend: 0x0, symName: __ZNSt3__110__list_impI4EdgeNS_9allocatorIS1_EEE3endB8ue170006Ev, symObjAddr: 0xD150, symBinAddr: 0x1000382E0, symSize: 0x34 }
  - { offsetInCU: 0x1A984, offset: 0x6C771, size: 0x8, addend: 0x0, symName: __ZNSt3__16vectorI4EdgeNS_9allocatorIS1_EEEC2B8ue170006Ev, symObjAddr: 0xD184, symBinAddr: 0x100038314, symSize: 0x4C }
  - { offsetInCU: 0x1A9AD, offset: 0x6C79A, size: 0x8, addend: 0x0, symName: __ZNSt3__117__compressed_pairIP4EdgeNS_9allocatorIS1_EEEC1B8ue170006IDnNS_18__default_init_tagEEEOT_OT0_, symObjAddr: 0xD1D0, symBinAddr: 0x100038360, symSize: 0x3C }
  - { offsetInCU: 0x1AA04, offset: 0x6C7F1, size: 0x8, addend: 0x0, symName: __ZNSt3__117__compressed_pairIP4EdgeNS_9allocatorIS1_EEEC2B8ue170006IDnNS_18__default_init_tagEEEOT_OT0_, symObjAddr: 0xD20C, symBinAddr: 0x10003839C, symSize: 0x40 }
  - { offsetInCU: 0x1AA5B, offset: 0x6C848, size: 0x8, addend: 0x0, symName: __ZNSt3__122__compressed_pair_elemIP4EdgeLi0ELb0EEC2B8ue170006IDnvEEOT_, symObjAddr: 0xD24C, symBinAddr: 0x1000383DC, symSize: 0x1C }
  - { offsetInCU: 0x1AA9C, offset: 0x6C889, size: 0x8, addend: 0x0, symName: __ZNSt3__122__compressed_pair_elemINS_9allocatorI4EdgeEELi1ELb1EEC2B8ue170006ENS_18__default_init_tagE, symObjAddr: 0xD268, symBinAddr: 0x1000383F8, symSize: 0x2C }
  - { offsetInCU: 0x1AAD0, offset: 0x6C8BD, size: 0x8, addend: 0x0, symName: __ZNSt3__19allocatorI4EdgeEC2B8ue170006Ev, symObjAddr: 0xD294, symBinAddr: 0x100038424, symSize: 0x2C }
  - { offsetInCU: 0x1AAF9, offset: 0x6C8E6, size: 0x8, addend: 0x0, symName: __ZNSt3__116__non_trivial_ifILb1ENS_9allocatorI4EdgeEEEC2B8ue170006Ev, symObjAddr: 0xD2C0, symBinAddr: 0x100038450, symSize: 0x14 }
  - { offsetInCU: 0x1AB22, offset: 0x6C90F, size: 0x8, addend: 0x0, symName: __ZNSt3__16vectorI4EdgeNS_9allocatorIS1_EEED2B8ue170006Ev, symObjAddr: 0xD2D4, symBinAddr: 0x100038464, symSize: 0x44 }
  - { offsetInCU: 0x1AB4B, offset: 0x6C938, size: 0x8, addend: 0x0, symName: __ZNSt3__16vectorI4EdgeNS_9allocatorIS1_EEE16__destroy_vectorC1B8ue170006ERS4_, symObjAddr: 0xD318, symBinAddr: 0x1000384A8, symSize: 0x34 }
  - { offsetInCU: 0x1AB84, offset: 0x6C971, size: 0x8, addend: 0x0, symName: __ZNSt3__16vectorI4EdgeNS_9allocatorIS1_EEE16__destroy_vectorclB8ue170006Ev, symObjAddr: 0xD34C, symBinAddr: 0x1000384DC, symSize: 0x90 }
  - { offsetInCU: 0x1ABA8, offset: 0x6C995, size: 0x8, addend: 0x0, symName: __ZNSt3__16vectorI4EdgeNS_9allocatorIS1_EEE16__destroy_vectorC2B8ue170006ERS4_, symObjAddr: 0xD3DC, symBinAddr: 0x10003856C, symSize: 0x20 }
  - { offsetInCU: 0x1ABE1, offset: 0x6C9CE, size: 0x8, addend: 0x0, symName: __ZNSt3__16vectorI4EdgeNS_9allocatorIS1_EEE7__clearB8ue170006Ev, symObjAddr: 0xD3FC, symBinAddr: 0x10003858C, symSize: 0x28 }
  - { offsetInCU: 0x1AC05, offset: 0x6C9F2, size: 0x8, addend: 0x0, symName: __ZNKSt3__16vectorI4EdgeNS_9allocatorIS1_EEE17__annotate_deleteB8ue170006Ev, symObjAddr: 0xD424, symBinAddr: 0x1000385B4, symSize: 0xD4 }
  - { offsetInCU: 0x1AC29, offset: 0x6CA16, size: 0x8, addend: 0x0, symName: __ZNSt3__116allocator_traitsINS_9allocatorI4EdgeEEE10deallocateB8ue170006ERS3_PS2_m, symObjAddr: 0xD4F8, symBinAddr: 0x100038688, symSize: 0x34 }
  - { offsetInCU: 0x1AC6E, offset: 0x6CA5B, size: 0x8, addend: 0x0, symName: __ZNSt3__16vectorI4EdgeNS_9allocatorIS1_EEE7__allocB8ue170006Ev, symObjAddr: 0xD52C, symBinAddr: 0x1000386BC, symSize: 0x28 }
  - { offsetInCU: 0x1AC92, offset: 0x6CA7F, size: 0x8, addend: 0x0, symName: __ZNKSt3__16vectorI4EdgeNS_9allocatorIS1_EEE8capacityB8ue170006Ev, symObjAddr: 0xD554, symBinAddr: 0x1000386E4, symSize: 0x40 }
  - { offsetInCU: 0x1ACB6, offset: 0x6CAA3, size: 0x8, addend: 0x0, symName: __ZNSt3__16vectorI4EdgeNS_9allocatorIS1_EEE22__base_destruct_at_endB8ue170006EPS1_, symObjAddr: 0xD594, symBinAddr: 0x100038724, symSize: 0x8C }
  - { offsetInCU: 0x1ACFA, offset: 0x6CAE7, size: 0x8, addend: 0x0, symName: __ZNSt3__116allocator_traitsINS_9allocatorI4EdgeEEE7destroyB8ue170006IS2_vEEvRS3_PT_, symObjAddr: 0xD620, symBinAddr: 0x1000387B0, symSize: 0x2C }
  - { offsetInCU: 0x1AD39, offset: 0x6CB26, size: 0x8, addend: 0x0, symName: __ZNSt3__19allocatorI4EdgeE7destroyB8ue170006EPS1_, symObjAddr: 0xD660, symBinAddr: 0x1000387F0, symSize: 0x14 }
  - { offsetInCU: 0x1AD6B, offset: 0x6CB58, size: 0x8, addend: 0x0, symName: __ZNKSt3__16vectorI4EdgeNS_9allocatorIS1_EEE31__annotate_contiguous_containerB8ue170006EPKvS6_S6_S6_, symObjAddr: 0xD674, symBinAddr: 0x100038804, symSize: 0x20 }
  - { offsetInCU: 0x1ADBF, offset: 0x6CBAC, size: 0x8, addend: 0x0, symName: __ZNKSt3__16vectorI4EdgeNS_9allocatorIS1_EEE4dataB8ue170006Ev, symObjAddr: 0xD694, symBinAddr: 0x100038824, symSize: 0x28 }
  - { offsetInCU: 0x1ADE3, offset: 0x6CBD0, size: 0x8, addend: 0x0, symName: __ZNKSt3__16vectorI4EdgeNS_9allocatorIS1_EEE4sizeB8ue170006Ev, symObjAddr: 0xD6BC, symBinAddr: 0x10003884C, symSize: 0x28 }
  - { offsetInCU: 0x1AE07, offset: 0x6CBF4, size: 0x8, addend: 0x0, symName: __ZNSt3__19allocatorI4EdgeE10deallocateB8ue170006EPS1_m, symObjAddr: 0xD6E4, symBinAddr: 0x100038874, symSize: 0x44 }
  - { offsetInCU: 0x1AE47, offset: 0x6CC34, size: 0x8, addend: 0x0, symName: __ZNSt3__117__compressed_pairIP4EdgeNS_9allocatorIS1_EEE6secondB8ue170006Ev, symObjAddr: 0xD728, symBinAddr: 0x1000388B8, symSize: 0x24 }
  - { offsetInCU: 0x1AE6B, offset: 0x6CC58, size: 0x8, addend: 0x0, symName: __ZNSt3__122__compressed_pair_elemINS_9allocatorI4EdgeEELi1ELb1EE5__getB8ue170006Ev, symObjAddr: 0xD74C, symBinAddr: 0x1000388DC, symSize: 0x14 }
  - { offsetInCU: 0x1AE8F, offset: 0x6CC7C, size: 0x8, addend: 0x0, symName: __ZNKSt3__16vectorI4EdgeNS_9allocatorIS1_EEE9__end_capB8ue170006Ev, symObjAddr: 0xD760, symBinAddr: 0x1000388F0, symSize: 0x28 }
  - { offsetInCU: 0x1AEB3, offset: 0x6CCA0, size: 0x8, addend: 0x0, symName: __ZNKSt3__117__compressed_pairIP4EdgeNS_9allocatorIS1_EEE5firstB8ue170006Ev, symObjAddr: 0xD788, symBinAddr: 0x100038918, symSize: 0x24 }
  - { offsetInCU: 0x1AED7, offset: 0x6CCC4, size: 0x8, addend: 0x0, symName: __ZNKSt3__122__compressed_pair_elemIP4EdgeLi0ELb0EE5__getB8ue170006Ev, symObjAddr: 0xD7AC, symBinAddr: 0x10003893C, symSize: 0x14 }
  - { offsetInCU: 0x1AEFB, offset: 0x6CCE8, size: 0x8, addend: 0x0, symName: __ZNSt3__16vectorI4EdgeNS_9allocatorIS1_EEE9__end_capB8ue170006Ev, symObjAddr: 0xD7C0, symBinAddr: 0x100038950, symSize: 0x28 }
  - { offsetInCU: 0x1AF1F, offset: 0x6CD0C, size: 0x8, addend: 0x0, symName: __ZNSt3__16vectorI4EdgeNS_9allocatorIS1_EEE22__construct_one_at_endB8ue170006IJRKS1_EEEvDpOT_, symObjAddr: 0xD7E8, symBinAddr: 0x100038978, symSize: 0x90 }
  - { offsetInCU: 0x1AF6E, offset: 0x6CD5B, size: 0x8, addend: 0x0, symName: __ZNSt3__16vectorI4EdgeNS_9allocatorIS1_EEE21__push_back_slow_pathIRKS1_EEvOT_, symObjAddr: 0xD878, symBinAddr: 0x100038A08, symSize: 0xD8 }
  - { offsetInCU: 0x1AFCE, offset: 0x6CDBB, size: 0x8, addend: 0x0, symName: __ZNSt3__117__compressed_pairIP4EdgeNS_9allocatorIS1_EEE5firstB8ue170006Ev, symObjAddr: 0xD950, symBinAddr: 0x100038AE0, symSize: 0x24 }
  - { offsetInCU: 0x1AFF2, offset: 0x6CDDF, size: 0x8, addend: 0x0, symName: __ZNSt3__122__compressed_pair_elemIP4EdgeLi0ELb0EE5__getB8ue170006Ev, symObjAddr: 0xD974, symBinAddr: 0x100038B04, symSize: 0x14 }
  - { offsetInCU: 0x1B02F, offset: 0x6CE1C, size: 0x8, addend: 0x0, symName: __ZNSt3__16vectorI4EdgeNS_9allocatorIS1_EEE21_ConstructTransactionC1B8ue170006ERS4_m, symObjAddr: 0xD988, symBinAddr: 0x100038B18, symSize: 0x3C }
  - { offsetInCU: 0x1B078, offset: 0x6CE65, size: 0x8, addend: 0x0, symName: __ZNSt3__116allocator_traitsINS_9allocatorI4EdgeEEE9constructB8ue170006IS2_JRKS2_EvEEvRS3_PT_DpOT0_, symObjAddr: 0xD9C4, symBinAddr: 0x100038B54, symSize: 0x34 }
  - { offsetInCU: 0x1B0D2, offset: 0x6CEBF, size: 0x8, addend: 0x0, symName: __ZNSt3__16vectorI4EdgeNS_9allocatorIS1_EEE21_ConstructTransactionD1B8ue170006Ev, symObjAddr: 0xD9F8, symBinAddr: 0x100038B88, symSize: 0x2C }
  - { offsetInCU: 0x1B0FB, offset: 0x6CEE8, size: 0x8, addend: 0x0, symName: __ZNSt3__16vectorI4EdgeNS_9allocatorIS1_EEE21_ConstructTransactionC2B8ue170006ERS4_m, symObjAddr: 0xDA24, symBinAddr: 0x100038BB4, symSize: 0x4C }
  - { offsetInCU: 0x1B144, offset: 0x6CF31, size: 0x8, addend: 0x0, symName: __ZNSt3__19allocatorI4EdgeE9constructB8ue170006IS1_JRKS1_EEEvPT_DpOT0_, symObjAddr: 0xDA70, symBinAddr: 0x100038C00, symSize: 0x34 }
  - { offsetInCU: 0x1B198, offset: 0x6CF85, size: 0x8, addend: 0x0, symName: __ZNSt3__16vectorI4EdgeNS_9allocatorIS1_EEE21_ConstructTransactionD2B8ue170006Ev, symObjAddr: 0xDAA4, symBinAddr: 0x100038C34, symSize: 0x20 }
  - { offsetInCU: 0x1B1C1, offset: 0x6CFAE, size: 0x8, addend: 0x0, symName: __ZNKSt3__16vectorI4EdgeNS_9allocatorIS1_EEE11__recommendB8ue170006Em, symObjAddr: 0xDAC4, symBinAddr: 0x100038C54, symSize: 0xB4 }
  - { offsetInCU: 0x1B218, offset: 0x6D005, size: 0x8, addend: 0x0, symName: __ZNSt3__114__split_bufferI4EdgeRNS_9allocatorIS1_EEEC1EmmS4_, symObjAddr: 0xDB78, symBinAddr: 0x100038D08, symSize: 0x44 }
  - { offsetInCU: 0x1B26D, offset: 0x6D05A, size: 0x8, addend: 0x0, symName: __ZNSt3__114__split_bufferI4EdgeRNS_9allocatorIS1_EEED1Ev, symObjAddr: 0xDCCC, symBinAddr: 0x100038E5C, symSize: 0x2C }
  - { offsetInCU: 0x1B298, offset: 0x6D085, size: 0x8, addend: 0x0, symName: __ZNKSt3__16vectorI4EdgeNS_9allocatorIS1_EEE8max_sizeEv, symObjAddr: 0xDCF8, symBinAddr: 0x100038E88, symSize: 0x60 }
  - { offsetInCU: 0x1B2BF, offset: 0x6D0AC, size: 0x8, addend: 0x0, symName: __ZNKSt3__16vectorI4EdgeNS_9allocatorIS1_EEE20__throw_length_errorB8ue170006Ev, symObjAddr: 0xDD58, symBinAddr: 0x100038EE8, symSize: 0x1C }
  - { offsetInCU: 0x1B2ED, offset: 0x6D0DA, size: 0x8, addend: 0x0, symName: __ZNSt3__116allocator_traitsINS_9allocatorI4EdgeEEE8max_sizeB8ue170006IS3_vEEmRKS3_, symObjAddr: 0xDD74, symBinAddr: 0x100038F04, symSize: 0x24 }
  - { offsetInCU: 0x1B31C, offset: 0x6D109, size: 0x8, addend: 0x0, symName: __ZNKSt3__16vectorI4EdgeNS_9allocatorIS1_EEE7__allocB8ue170006Ev, symObjAddr: 0xDD98, symBinAddr: 0x100038F28, symSize: 0x28 }
  - { offsetInCU: 0x1B340, offset: 0x6D12D, size: 0x8, addend: 0x0, symName: __ZNKSt3__19allocatorI4EdgeE8max_sizeB8ue170006Ev, symObjAddr: 0xDDC0, symBinAddr: 0x100038F50, symSize: 0x20 }
  - { offsetInCU: 0x1B364, offset: 0x6D151, size: 0x8, addend: 0x0, symName: __ZNKSt3__117__compressed_pairIP4EdgeNS_9allocatorIS1_EEE6secondB8ue170006Ev, symObjAddr: 0xDDE0, symBinAddr: 0x100038F70, symSize: 0x24 }
  - { offsetInCU: 0x1B388, offset: 0x6D175, size: 0x8, addend: 0x0, symName: __ZNKSt3__122__compressed_pair_elemINS_9allocatorI4EdgeEELi1ELb1EE5__getB8ue170006Ev, symObjAddr: 0xDE04, symBinAddr: 0x100038F94, symSize: 0x14 }
  - { offsetInCU: 0x1B3AC, offset: 0x6D199, size: 0x8, addend: 0x0, symName: __ZNSt3__114__split_bufferI4EdgeRNS_9allocatorIS1_EEEC2EmmS4_, symObjAddr: 0xDE18, symBinAddr: 0x100038FA8, symSize: 0xE0 }
  - { offsetInCU: 0x1B41F, offset: 0x6D20C, size: 0x8, addend: 0x0, symName: __ZNSt3__117__compressed_pairIP4EdgeRNS_9allocatorIS1_EEEC1B8ue170006IDnS5_EEOT_OT0_, symObjAddr: 0xDEF8, symBinAddr: 0x100039088, symSize: 0x3C }
  - { offsetInCU: 0x1B476, offset: 0x6D263, size: 0x8, addend: 0x0, symName: __ZNSt3__114__split_bufferI4EdgeRNS_9allocatorIS1_EEE7__allocB8ue170006Ev, symObjAddr: 0xDF74, symBinAddr: 0x100039104, symSize: 0x28 }
  - { offsetInCU: 0x1B49A, offset: 0x6D287, size: 0x8, addend: 0x0, symName: __ZNSt3__114__split_bufferI4EdgeRNS_9allocatorIS1_EEE9__end_capB8ue170006Ev, symObjAddr: 0xDF9C, symBinAddr: 0x10003912C, symSize: 0x28 }
  - { offsetInCU: 0x1B4BE, offset: 0x6D2AB, size: 0x8, addend: 0x0, symName: __ZNSt3__117__compressed_pairIP4EdgeRNS_9allocatorIS1_EEEC2B8ue170006IDnS5_EEOT_OT0_, symObjAddr: 0xDFC4, symBinAddr: 0x100039154, symSize: 0x48 }
  - { offsetInCU: 0x1B515, offset: 0x6D302, size: 0x8, addend: 0x0, symName: __ZNSt3__122__compressed_pair_elemIRNS_9allocatorI4EdgeEELi1ELb0EEC2B8ue170006IS4_vEEOT_, symObjAddr: 0xE00C, symBinAddr: 0x10003919C, symSize: 0x20 }
  - { offsetInCU: 0x1B556, offset: 0x6D343, size: 0x8, addend: 0x0, symName: __ZNSt3__19allocatorI4EdgeE8allocateB8ue170006Em, symObjAddr: 0xE02C, symBinAddr: 0x1000391BC, symSize: 0x5C }
  - { offsetInCU: 0x1B588, offset: 0x6D375, size: 0x8, addend: 0x0, symName: __ZNSt3__117__compressed_pairIP4EdgeRNS_9allocatorIS1_EEE6secondB8ue170006Ev, symObjAddr: 0xE088, symBinAddr: 0x100039218, symSize: 0x28 }
  - { offsetInCU: 0x1B5AC, offset: 0x6D399, size: 0x8, addend: 0x0, symName: __ZNSt3__122__compressed_pair_elemIRNS_9allocatorI4EdgeEELi1ELb0EE5__getB8ue170006Ev, symObjAddr: 0xE0B0, symBinAddr: 0x100039240, symSize: 0x18 }
  - { offsetInCU: 0x1B5D0, offset: 0x6D3BD, size: 0x8, addend: 0x0, symName: __ZNSt3__117__compressed_pairIP4EdgeRNS_9allocatorIS1_EEE5firstB8ue170006Ev, symObjAddr: 0xE0C8, symBinAddr: 0x100039258, symSize: 0x24 }
  - { offsetInCU: 0x1B5F4, offset: 0x6D3E1, size: 0x8, addend: 0x0, symName: __ZNSt3__116reverse_iteratorIP4EdgeEC1B8ue170006ES2_, symObjAddr: 0xE164, symBinAddr: 0x1000392F4, symSize: 0x34 }
  - { offsetInCU: 0x1B62B, offset: 0x6D418, size: 0x8, addend: 0x0, symName: __ZNKSt3__116reverse_iteratorIP4EdgeE4baseB8ue170006Ev, symObjAddr: 0xE198, symBinAddr: 0x100039328, symSize: 0x18 }
  - { offsetInCU: 0x1B64F, offset: 0x6D43C, size: 0x8, addend: 0x0, symName: __ZNKSt3__16vectorI4EdgeNS_9allocatorIS1_EEE14__annotate_newB8ue170006Em, symObjAddr: 0xE1EC, symBinAddr: 0x10003937C, symSize: 0xC8 }
  - { offsetInCU: 0x1B69D, offset: 0x6D48A, size: 0x8, addend: 0x0, symName: __ZNKSt3__111__move_loopINS_17_ClassicAlgPolicyEEclB8ue170006INS_16reverse_iteratorIP4EdgeEES7_S7_EENS_4pairIT_T1_EES9_T0_SA_, symObjAddr: 0xE5A4, symBinAddr: 0x100039734, symSize: 0x9C }
  - { offsetInCU: 0x1B706, offset: 0x6D4F3, size: 0x8, addend: 0x0, symName: __ZNSt3__18_IterOpsINS_17_ClassicAlgPolicyEE11__iter_moveB8ue170006IRNS_16reverse_iteratorIP4EdgeEEEENS_9enable_ifIXsr12is_referenceIDTdeclsr3stdE7declvalIRT_EEEEE5valueEDTclsr3stdE4movedeclsr3stdE7declvalISB_EEEEE4typeEOSA_, symObjAddr: 0xE7D4, symBinAddr: 0x100039964, symSize: 0x28 }
  - { offsetInCU: 0x1B732, offset: 0x6D51F, size: 0x8, addend: 0x0, symName: __ZNKSt3__116reverse_iteratorIP4EdgeEdeB8ue170006Ev, symObjAddr: 0xE7FC, symBinAddr: 0x10003998C, symSize: 0x28 }
  - { offsetInCU: 0x1B764, offset: 0x6D551, size: 0x8, addend: 0x0, symName: __ZNSt3__116reverse_iteratorIP4EdgeEppB8ue170006Ev, symObjAddr: 0xE824, symBinAddr: 0x1000399B4, symSize: 0x20 }
  - { offsetInCU: 0x1B788, offset: 0x6D575, size: 0x8, addend: 0x0, symName: __ZNSt3__18_IterOpsINS_17_ClassicAlgPolicyEE25__validate_iter_referenceB8ue170006IRNS_16reverse_iteratorIP4EdgeEEEEvv, symObjAddr: 0xE844, symBinAddr: 0x1000399D4, symSize: 0x4 }
  - { offsetInCU: 0x1B7A6, offset: 0x6D593, size: 0x8, addend: 0x0, symName: __ZNSt3__118__unwrap_iter_implINS_16reverse_iteratorIP4EdgeEELb0EE8__unwrapB8ue170006ES4_, symObjAddr: 0xE848, symBinAddr: 0x1000399D8, symSize: 0x24 }
  - { offsetInCU: 0x1B7CF, offset: 0x6D5BC, size: 0x8, addend: 0x0, symName: __ZNSt3__14pairINS_16reverse_iteratorIP4EdgeEES4_EC1B8ue170006IS4_S4_LPv0EEEOT_OT0_, symObjAddr: 0xE86C, symBinAddr: 0x1000399FC, symSize: 0x3C }
  - { offsetInCU: 0x1B82D, offset: 0x6D61A, size: 0x8, addend: 0x0, symName: __ZNSt3__14pairINS_16reverse_iteratorIP4EdgeEES4_EC2B8ue170006IS4_S4_LPv0EEEOT_OT0_, symObjAddr: 0xE8A8, symBinAddr: 0x100039A38, symSize: 0x34 }
  - { offsetInCU: 0x1B88B, offset: 0x6D678, size: 0x8, addend: 0x0, symName: __ZNSt3__118__unwrap_iter_implINS_16reverse_iteratorIP4EdgeEELb0EE8__rewrapB8ue170006ES4_S4_, symObjAddr: 0xE8DC, symBinAddr: 0x100039A6C, symSize: 0x2C }
  - { offsetInCU: 0x1B8B9, offset: 0x6D6A6, size: 0x8, addend: 0x0, symName: __ZNSt3__116reverse_iteratorIP4EdgeEC2B8ue170006ES2_, symObjAddr: 0xE908, symBinAddr: 0x100039A98, symSize: 0x28 }
  - { offsetInCU: 0x1B8F0, offset: 0x6D6DD, size: 0x8, addend: 0x0, symName: __ZNSt3__114__split_bufferI4EdgeRNS_9allocatorIS1_EEED2Ev, symObjAddr: 0xE930, symBinAddr: 0x100039AC0, symSize: 0x8C }
  - { offsetInCU: 0x1B91B, offset: 0x6D708, size: 0x8, addend: 0x0, symName: __ZNSt3__114__split_bufferI4EdgeRNS_9allocatorIS1_EEE5clearB8ue170006Ev, symObjAddr: 0xE9BC, symBinAddr: 0x100039B4C, symSize: 0x28 }
  - { offsetInCU: 0x1B93F, offset: 0x6D72C, size: 0x8, addend: 0x0, symName: __ZNKSt3__114__split_bufferI4EdgeRNS_9allocatorIS1_EEE8capacityB8ue170006Ev, symObjAddr: 0xE9E4, symBinAddr: 0x100039B74, symSize: 0x40 }
  - { offsetInCU: 0x1B963, offset: 0x6D750, size: 0x8, addend: 0x0, symName: __ZNSt3__114__split_bufferI4EdgeRNS_9allocatorIS1_EEE17__destruct_at_endB8ue170006EPS1_, symObjAddr: 0xEA24, symBinAddr: 0x100039BB4, symSize: 0x2C }
  - { offsetInCU: 0x1B995, offset: 0x6D782, size: 0x8, addend: 0x0, symName: __ZNSt3__114__split_bufferI4EdgeRNS_9allocatorIS1_EEE17__destruct_at_endB8ue170006EPS1_NS_17integral_constantIbLb0EEE, symObjAddr: 0xEA50, symBinAddr: 0x100039BE0, symSize: 0x80 }
  - { offsetInCU: 0x1B9D5, offset: 0x6D7C2, size: 0x8, addend: 0x0, symName: __ZNKSt3__114__split_bufferI4EdgeRNS_9allocatorIS1_EEE9__end_capB8ue170006Ev, symObjAddr: 0xEAD0, symBinAddr: 0x100039C60, symSize: 0x28 }
  - { offsetInCU: 0x1B9F9, offset: 0x6D7E6, size: 0x8, addend: 0x0, symName: __ZNKSt3__117__compressed_pairIP4EdgeRNS_9allocatorIS1_EEE5firstB8ue170006Ev, symObjAddr: 0xEAF8, symBinAddr: 0x100039C88, symSize: 0x24 }
  - { offsetInCU: 0x1BA1D, offset: 0x6D80A, size: 0x8, addend: 0x0, symName: __ZNSt3__16vectorINS0_I6GPointNS_9allocatorIS1_EEEENS2_IS4_EEEC2B8ue170006Ev, symObjAddr: 0xEB1C, symBinAddr: 0x100039CAC, symSize: 0x4C }
  - { offsetInCU: 0x1BA46, offset: 0x6D833, size: 0x8, addend: 0x0, symName: __ZNSt3__117__compressed_pairIPNS_6vectorI6GPointNS_9allocatorIS2_EEEENS3_IS5_EEEC1B8ue170006IDnNS_18__default_init_tagEEEOT_OT0_, symObjAddr: 0xEB68, symBinAddr: 0x100039CF8, symSize: 0x3C }
  - { offsetInCU: 0x1BA9D, offset: 0x6D88A, size: 0x8, addend: 0x0, symName: __ZNSt3__117__compressed_pairIPNS_6vectorI6GPointNS_9allocatorIS2_EEEENS3_IS5_EEEC2B8ue170006IDnNS_18__default_init_tagEEEOT_OT0_, symObjAddr: 0xEBA4, symBinAddr: 0x100039D34, symSize: 0x40 }
  - { offsetInCU: 0x1BAF4, offset: 0x6D8E1, size: 0x8, addend: 0x0, symName: __ZNSt3__122__compressed_pair_elemIPNS_6vectorI6GPointNS_9allocatorIS2_EEEELi0ELb0EEC2B8ue170006IDnvEEOT_, symObjAddr: 0xEBE4, symBinAddr: 0x100039D74, symSize: 0x1C }
  - { offsetInCU: 0x1BB35, offset: 0x6D922, size: 0x8, addend: 0x0, symName: __ZNSt3__122__compressed_pair_elemINS_9allocatorINS_6vectorI6GPointNS1_IS3_EEEEEELi1ELb1EEC2B8ue170006ENS_18__default_init_tagE, symObjAddr: 0xEC00, symBinAddr: 0x100039D90, symSize: 0x2C }
  - { offsetInCU: 0x1BB69, offset: 0x6D956, size: 0x8, addend: 0x0, symName: __ZNSt3__19allocatorINS_6vectorI6GPointNS0_IS2_EEEEEC2B8ue170006Ev, symObjAddr: 0xEC2C, symBinAddr: 0x100039DBC, symSize: 0x2C }
  - { offsetInCU: 0x1BB92, offset: 0x6D97F, size: 0x8, addend: 0x0, symName: __ZNSt3__116__non_trivial_ifILb1ENS_9allocatorINS_6vectorI6GPointNS1_IS3_EEEEEEEC2B8ue170006Ev, symObjAddr: 0xEC58, symBinAddr: 0x100039DE8, symSize: 0x14 }
  - { offsetInCU: 0x1BBBB, offset: 0x6D9A8, size: 0x8, addend: 0x0, symName: __ZNSt3__16vectorINS0_I6GPointNS_9allocatorIS1_EEEENS2_IS4_EEED2B8ue170006Ev, symObjAddr: 0xEC6C, symBinAddr: 0x100039DFC, symSize: 0x44 }
  - { offsetInCU: 0x1BBE4, offset: 0x6D9D1, size: 0x8, addend: 0x0, symName: __ZNSt3__16vectorINS0_I6GPointNS_9allocatorIS1_EEEENS2_IS4_EEE16__destroy_vectorC1B8ue170006ERS6_, symObjAddr: 0xECB0, symBinAddr: 0x100039E40, symSize: 0x34 }
  - { offsetInCU: 0x1BC1D, offset: 0x6DA0A, size: 0x8, addend: 0x0, symName: __ZNSt3__16vectorINS0_I6GPointNS_9allocatorIS1_EEEENS2_IS4_EEE16__destroy_vectorclB8ue170006Ev, symObjAddr: 0xECE4, symBinAddr: 0x100039E74, symSize: 0x90 }
  - { offsetInCU: 0x1BC41, offset: 0x6DA2E, size: 0x8, addend: 0x0, symName: __ZNSt3__16vectorINS0_I6GPointNS_9allocatorIS1_EEEENS2_IS4_EEE16__destroy_vectorC2B8ue170006ERS6_, symObjAddr: 0xED74, symBinAddr: 0x100039F04, symSize: 0x20 }
  - { offsetInCU: 0x1BC7A, offset: 0x6DA67, size: 0x8, addend: 0x0, symName: __ZNSt3__16vectorINS0_I6GPointNS_9allocatorIS1_EEEENS2_IS4_EEE7__clearB8ue170006Ev, symObjAddr: 0xED94, symBinAddr: 0x100039F24, symSize: 0x28 }
  - { offsetInCU: 0x1BC9E, offset: 0x6DA8B, size: 0x8, addend: 0x0, symName: __ZNKSt3__16vectorINS0_I6GPointNS_9allocatorIS1_EEEENS2_IS4_EEE17__annotate_deleteB8ue170006Ev, symObjAddr: 0xEDBC, symBinAddr: 0x100039F4C, symSize: 0xD4 }
  - { offsetInCU: 0x1BCC2, offset: 0x6DAAF, size: 0x8, addend: 0x0, symName: __ZNSt3__116allocator_traitsINS_9allocatorINS_6vectorI6GPointNS1_IS3_EEEEEEE10deallocateB8ue170006ERS6_PS5_m, symObjAddr: 0xEE90, symBinAddr: 0x10003A020, symSize: 0x34 }
  - { offsetInCU: 0x1BD07, offset: 0x6DAF4, size: 0x8, addend: 0x0, symName: __ZNSt3__16vectorINS0_I6GPointNS_9allocatorIS1_EEEENS2_IS4_EEE7__allocB8ue170006Ev, symObjAddr: 0xEEC4, symBinAddr: 0x10003A054, symSize: 0x28 }
  - { offsetInCU: 0x1BD2B, offset: 0x6DB18, size: 0x8, addend: 0x0, symName: __ZNKSt3__16vectorINS0_I6GPointNS_9allocatorIS1_EEEENS2_IS4_EEE8capacityB8ue170006Ev, symObjAddr: 0xEEEC, symBinAddr: 0x10003A07C, symSize: 0x40 }
  - { offsetInCU: 0x1BD4F, offset: 0x6DB3C, size: 0x8, addend: 0x0, symName: __ZNSt3__16vectorINS0_I6GPointNS_9allocatorIS1_EEEENS2_IS4_EEE22__base_destruct_at_endB8ue170006EPS4_, symObjAddr: 0xEF2C, symBinAddr: 0x10003A0BC, symSize: 0x8C }
  - { offsetInCU: 0x1BD93, offset: 0x6DB80, size: 0x8, addend: 0x0, symName: __ZNSt3__116allocator_traitsINS_9allocatorINS_6vectorI6GPointNS1_IS3_EEEEEEE7destroyB8ue170006IS5_vEEvRS6_PT_, symObjAddr: 0xEFB8, symBinAddr: 0x10003A148, symSize: 0x2C }
  - { offsetInCU: 0x1BDD2, offset: 0x6DBBF, size: 0x8, addend: 0x0, symName: __ZNSt3__19allocatorINS_6vectorI6GPointNS0_IS2_EEEEE7destroyB8ue170006EPS4_, symObjAddr: 0xEFF8, symBinAddr: 0x10003A188, symSize: 0x28 }
  - { offsetInCU: 0x1BE04, offset: 0x6DBF1, size: 0x8, addend: 0x0, symName: __ZNKSt3__16vectorINS0_I6GPointNS_9allocatorIS1_EEEENS2_IS4_EEE31__annotate_contiguous_containerB8ue170006EPKvS8_S8_S8_, symObjAddr: 0xF020, symBinAddr: 0x10003A1B0, symSize: 0x20 }
  - { offsetInCU: 0x1BE58, offset: 0x6DC45, size: 0x8, addend: 0x0, symName: __ZNKSt3__16vectorINS0_I6GPointNS_9allocatorIS1_EEEENS2_IS4_EEE4dataB8ue170006Ev, symObjAddr: 0xF040, symBinAddr: 0x10003A1D0, symSize: 0x28 }
  - { offsetInCU: 0x1BE7C, offset: 0x6DC69, size: 0x8, addend: 0x0, symName: __ZNKSt3__16vectorINS0_I6GPointNS_9allocatorIS1_EEEENS2_IS4_EEE4sizeB8ue170006Ev, symObjAddr: 0xF068, symBinAddr: 0x10003A1F8, symSize: 0x28 }
  - { offsetInCU: 0x1BEA0, offset: 0x6DC8D, size: 0x8, addend: 0x0, symName: __ZNSt3__19allocatorINS_6vectorI6GPointNS0_IS2_EEEEE10deallocateB8ue170006EPS4_m, symObjAddr: 0xF090, symBinAddr: 0x10003A220, symSize: 0x44 }
  - { offsetInCU: 0x1BEE0, offset: 0x6DCCD, size: 0x8, addend: 0x0, symName: __ZNSt3__117__compressed_pairIPNS_6vectorI6GPointNS_9allocatorIS2_EEEENS3_IS5_EEE6secondB8ue170006Ev, symObjAddr: 0xF0D4, symBinAddr: 0x10003A264, symSize: 0x24 }
  - { offsetInCU: 0x1BF04, offset: 0x6DCF1, size: 0x8, addend: 0x0, symName: __ZNSt3__122__compressed_pair_elemINS_9allocatorINS_6vectorI6GPointNS1_IS3_EEEEEELi1ELb1EE5__getB8ue170006Ev, symObjAddr: 0xF0F8, symBinAddr: 0x10003A288, symSize: 0x14 }
  - { offsetInCU: 0x1BF28, offset: 0x6DD15, size: 0x8, addend: 0x0, symName: __ZNKSt3__16vectorINS0_I6GPointNS_9allocatorIS1_EEEENS2_IS4_EEE9__end_capB8ue170006Ev, symObjAddr: 0xF10C, symBinAddr: 0x10003A29C, symSize: 0x28 }
  - { offsetInCU: 0x1BF4C, offset: 0x6DD39, size: 0x8, addend: 0x0, symName: __ZNKSt3__117__compressed_pairIPNS_6vectorI6GPointNS_9allocatorIS2_EEEENS3_IS5_EEE5firstB8ue170006Ev, symObjAddr: 0xF134, symBinAddr: 0x10003A2C4, symSize: 0x24 }
  - { offsetInCU: 0x1BF70, offset: 0x6DD5D, size: 0x8, addend: 0x0, symName: __ZNKSt3__122__compressed_pair_elemIPNS_6vectorI6GPointNS_9allocatorIS2_EEEELi0ELb0EE5__getB8ue170006Ev, symObjAddr: 0xF158, symBinAddr: 0x10003A2E8, symSize: 0x14 }
  - { offsetInCU: 0x1BF94, offset: 0x6DD81, size: 0x8, addend: 0x0, symName: __ZNSt3__16vectorINS0_I6GPointNS_9allocatorIS1_EEEENS2_IS4_EEE9__end_capB8ue170006Ev, symObjAddr: 0xF16C, symBinAddr: 0x10003A2FC, symSize: 0x28 }
  - { offsetInCU: 0x1BFB8, offset: 0x6DDA5, size: 0x8, addend: 0x0, symName: __ZNSt3__16vectorINS0_I6GPointNS_9allocatorIS1_EEEENS2_IS4_EEE22__construct_one_at_endB8ue170006IJS4_EEEvDpOT_, symObjAddr: 0xF194, symBinAddr: 0x10003A324, symSize: 0x90 }
  - { offsetInCU: 0x1C007, offset: 0x6DDF4, size: 0x8, addend: 0x0, symName: __ZNSt3__16vectorINS0_I6GPointNS_9allocatorIS1_EEEENS2_IS4_EEE21__push_back_slow_pathIS4_EEvOT_, symObjAddr: 0xF224, symBinAddr: 0x10003A3B4, symSize: 0xD8 }
  - { offsetInCU: 0x1C067, offset: 0x6DE54, size: 0x8, addend: 0x0, symName: __ZNSt3__117__compressed_pairIPNS_6vectorI6GPointNS_9allocatorIS2_EEEENS3_IS5_EEE5firstB8ue170006Ev, symObjAddr: 0xF2FC, symBinAddr: 0x10003A48C, symSize: 0x24 }
  - { offsetInCU: 0x1C08B, offset: 0x6DE78, size: 0x8, addend: 0x0, symName: __ZNSt3__122__compressed_pair_elemIPNS_6vectorI6GPointNS_9allocatorIS2_EEEELi0ELb0EE5__getB8ue170006Ev, symObjAddr: 0xF320, symBinAddr: 0x10003A4B0, symSize: 0x14 }
  - { offsetInCU: 0x1C0C8, offset: 0x6DEB5, size: 0x8, addend: 0x0, symName: __ZNSt3__16vectorINS0_I6GPointNS_9allocatorIS1_EEEENS2_IS4_EEE21_ConstructTransactionC1B8ue170006ERS6_m, symObjAddr: 0xF334, symBinAddr: 0x10003A4C4, symSize: 0x3C }
  - { offsetInCU: 0x1C111, offset: 0x6DEFE, size: 0x8, addend: 0x0, symName: __ZNSt3__116allocator_traitsINS_9allocatorINS_6vectorI6GPointNS1_IS3_EEEEEEE9constructB8ue170006IS5_JS5_EvEEvRS6_PT_DpOT0_, symObjAddr: 0xF370, symBinAddr: 0x10003A500, symSize: 0x34 }
  - { offsetInCU: 0x1C16B, offset: 0x6DF58, size: 0x8, addend: 0x0, symName: __ZNSt3__16vectorINS0_I6GPointNS_9allocatorIS1_EEEENS2_IS4_EEE21_ConstructTransactionD1B8ue170006Ev, symObjAddr: 0xF3A4, symBinAddr: 0x10003A534, symSize: 0x2C }
  - { offsetInCU: 0x1C194, offset: 0x6DF81, size: 0x8, addend: 0x0, symName: __ZNSt3__16vectorINS0_I6GPointNS_9allocatorIS1_EEEENS2_IS4_EEE21_ConstructTransactionC2B8ue170006ERS6_m, symObjAddr: 0xF3D0, symBinAddr: 0x10003A560, symSize: 0x4C }
  - { offsetInCU: 0x1C1DD, offset: 0x6DFCA, size: 0x8, addend: 0x0, symName: __ZNSt3__19allocatorINS_6vectorI6GPointNS0_IS2_EEEEE9constructB8ue170006IS4_JS4_EEEvPT_DpOT0_, symObjAddr: 0xF41C, symBinAddr: 0x10003A5AC, symSize: 0x30 }
  - { offsetInCU: 0x1C231, offset: 0x6E01E, size: 0x8, addend: 0x0, symName: __ZNSt3__16vectorINS0_I6GPointNS_9allocatorIS1_EEEENS2_IS4_EEE21_ConstructTransactionD2B8ue170006Ev, symObjAddr: 0xF658, symBinAddr: 0x10003A5DC, symSize: 0x20 }
  - { offsetInCU: 0x1C25A, offset: 0x6E047, size: 0x8, addend: 0x0, symName: __ZNKSt3__16vectorINS0_I6GPointNS_9allocatorIS1_EEEENS2_IS4_EEE11__recommendB8ue170006Em, symObjAddr: 0xF678, symBinAddr: 0x10003A5FC, symSize: 0xB4 }
  - { offsetInCU: 0x1C2B1, offset: 0x6E09E, size: 0x8, addend: 0x0, symName: __ZNSt3__114__split_bufferINS_6vectorI6GPointNS_9allocatorIS2_EEEERNS3_IS5_EEEC1EmmS7_, symObjAddr: 0xF72C, symBinAddr: 0x10003A6B0, symSize: 0x44 }
  - { offsetInCU: 0x1C306, offset: 0x6E0F3, size: 0x8, addend: 0x0, symName: __ZNSt3__114__split_bufferINS_6vectorI6GPointNS_9allocatorIS2_EEEERNS3_IS5_EEED1Ev, symObjAddr: 0xF880, symBinAddr: 0x10003A804, symSize: 0x2C }
  - { offsetInCU: 0x1C331, offset: 0x6E11E, size: 0x8, addend: 0x0, symName: __ZNKSt3__16vectorINS0_I6GPointNS_9allocatorIS1_EEEENS2_IS4_EEE8max_sizeEv, symObjAddr: 0xF8AC, symBinAddr: 0x10003A830, symSize: 0x60 }
  - { offsetInCU: 0x1C358, offset: 0x6E145, size: 0x8, addend: 0x0, symName: __ZNKSt3__16vectorINS0_I6GPointNS_9allocatorIS1_EEEENS2_IS4_EEE20__throw_length_errorB8ue170006Ev, symObjAddr: 0xF90C, symBinAddr: 0x10003A890, symSize: 0x1C }
  - { offsetInCU: 0x1C386, offset: 0x6E173, size: 0x8, addend: 0x0, symName: __ZNSt3__116allocator_traitsINS_9allocatorINS_6vectorI6GPointNS1_IS3_EEEEEEE8max_sizeB8ue170006IS6_vEEmRKS6_, symObjAddr: 0xF928, symBinAddr: 0x10003A8AC, symSize: 0x24 }
  - { offsetInCU: 0x1C3B5, offset: 0x6E1A2, size: 0x8, addend: 0x0, symName: __ZNKSt3__16vectorINS0_I6GPointNS_9allocatorIS1_EEEENS2_IS4_EEE7__allocB8ue170006Ev, symObjAddr: 0xF94C, symBinAddr: 0x10003A8D0, symSize: 0x28 }
  - { offsetInCU: 0x1C3D9, offset: 0x6E1C6, size: 0x8, addend: 0x0, symName: __ZNKSt3__19allocatorINS_6vectorI6GPointNS0_IS2_EEEEE8max_sizeB8ue170006Ev, symObjAddr: 0xF974, symBinAddr: 0x10003A8F8, symSize: 0x18 }
  - { offsetInCU: 0x1C3FD, offset: 0x6E1EA, size: 0x8, addend: 0x0, symName: __ZNKSt3__117__compressed_pairIPNS_6vectorI6GPointNS_9allocatorIS2_EEEENS3_IS5_EEE6secondB8ue170006Ev, symObjAddr: 0xF98C, symBinAddr: 0x10003A910, symSize: 0x24 }
  - { offsetInCU: 0x1C421, offset: 0x6E20E, size: 0x8, addend: 0x0, symName: __ZNKSt3__122__compressed_pair_elemINS_9allocatorINS_6vectorI6GPointNS1_IS3_EEEEEELi1ELb1EE5__getB8ue170006Ev, symObjAddr: 0xF9B0, symBinAddr: 0x10003A934, symSize: 0x14 }
  - { offsetInCU: 0x1C445, offset: 0x6E232, size: 0x8, addend: 0x0, symName: __ZNSt3__114__split_bufferINS_6vectorI6GPointNS_9allocatorIS2_EEEERNS3_IS5_EEEC2EmmS7_, symObjAddr: 0xF9C4, symBinAddr: 0x10003A948, symSize: 0xE0 }
  - { offsetInCU: 0x1C4B8, offset: 0x6E2A5, size: 0x8, addend: 0x0, symName: __ZNSt3__117__compressed_pairIPNS_6vectorI6GPointNS_9allocatorIS2_EEEERNS3_IS5_EEEC1B8ue170006IDnS8_EEOT_OT0_, symObjAddr: 0xFAA4, symBinAddr: 0x10003AA28, symSize: 0x3C }
  - { offsetInCU: 0x1C50F, offset: 0x6E2FC, size: 0x8, addend: 0x0, symName: __ZNSt3__114__split_bufferINS_6vectorI6GPointNS_9allocatorIS2_EEEERNS3_IS5_EEE7__allocB8ue170006Ev, symObjAddr: 0xFB20, symBinAddr: 0x10003AAA4, symSize: 0x28 }
  - { offsetInCU: 0x1C533, offset: 0x6E320, size: 0x8, addend: 0x0, symName: __ZNSt3__114__split_bufferINS_6vectorI6GPointNS_9allocatorIS2_EEEERNS3_IS5_EEE9__end_capB8ue170006Ev, symObjAddr: 0xFB48, symBinAddr: 0x10003AACC, symSize: 0x28 }
  - { offsetInCU: 0x1C557, offset: 0x6E344, size: 0x8, addend: 0x0, symName: __ZNSt3__117__compressed_pairIPNS_6vectorI6GPointNS_9allocatorIS2_EEEERNS3_IS5_EEEC2B8ue170006IDnS8_EEOT_OT0_, symObjAddr: 0xFB70, symBinAddr: 0x10003AAF4, symSize: 0x48 }
  - { offsetInCU: 0x1C5AE, offset: 0x6E39B, size: 0x8, addend: 0x0, symName: __ZNSt3__122__compressed_pair_elemIRNS_9allocatorINS_6vectorI6GPointNS1_IS3_EEEEEELi1ELb0EEC2B8ue170006IS7_vEEOT_, symObjAddr: 0xFBB8, symBinAddr: 0x10003AB3C, symSize: 0x20 }
  - { offsetInCU: 0x1C5EF, offset: 0x6E3DC, size: 0x8, addend: 0x0, symName: __ZNSt3__19allocatorINS_6vectorI6GPointNS0_IS2_EEEEE8allocateB8ue170006Em, symObjAddr: 0xFBD8, symBinAddr: 0x10003AB5C, symSize: 0x5C }
  - { offsetInCU: 0x1C621, offset: 0x6E40E, size: 0x8, addend: 0x0, symName: __ZNSt3__117__compressed_pairIPNS_6vectorI6GPointNS_9allocatorIS2_EEEERNS3_IS5_EEE6secondB8ue170006Ev, symObjAddr: 0xFC34, symBinAddr: 0x10003ABB8, symSize: 0x28 }
  - { offsetInCU: 0x1C645, offset: 0x6E432, size: 0x8, addend: 0x0, symName: __ZNSt3__122__compressed_pair_elemIRNS_9allocatorINS_6vectorI6GPointNS1_IS3_EEEEEELi1ELb0EE5__getB8ue170006Ev, symObjAddr: 0xFC5C, symBinAddr: 0x10003ABE0, symSize: 0x18 }
  - { offsetInCU: 0x1C669, offset: 0x6E456, size: 0x8, addend: 0x0, symName: __ZNSt3__117__compressed_pairIPNS_6vectorI6GPointNS_9allocatorIS2_EEEERNS3_IS5_EEE5firstB8ue170006Ev, symObjAddr: 0xFC74, symBinAddr: 0x10003ABF8, symSize: 0x24 }
  - { offsetInCU: 0x1C68D, offset: 0x6E47A, size: 0x8, addend: 0x0, symName: __ZNSt3__116reverse_iteratorIPNS_6vectorI6GPointNS_9allocatorIS2_EEEEEC1B8ue170006ES6_, symObjAddr: 0xFDC4, symBinAddr: 0x10003AD48, symSize: 0x34 }
  - { offsetInCU: 0x1C6C4, offset: 0x6E4B1, size: 0x8, addend: 0x0, symName: __ZNKSt3__116reverse_iteratorIPNS_6vectorI6GPointNS_9allocatorIS2_EEEEE4baseB8ue170006Ev, symObjAddr: 0xFDF8, symBinAddr: 0x10003AD7C, symSize: 0x18 }
  - { offsetInCU: 0x1C6E8, offset: 0x6E4D5, size: 0x8, addend: 0x0, symName: __ZNKSt3__16vectorINS0_I6GPointNS_9allocatorIS1_EEEENS2_IS4_EEE14__annotate_newB8ue170006Em, symObjAddr: 0xFE4C, symBinAddr: 0x10003ADD0, symSize: 0xC8 }
  - { offsetInCU: 0x1C71C, offset: 0x6E509, size: 0x8, addend: 0x0, symName: __ZNSt3__129_AllocatorDestroyRangeReverseINS_9allocatorINS_6vectorI6GPointNS1_IS3_EEEEEENS_16reverse_iteratorIPS5_EEEC1B8ue170006ERS6_RS9_SC_, symObjAddr: 0xFF60, symBinAddr: 0x10003AEE4, symSize: 0x44 }
  - { offsetInCU: 0x1C775, offset: 0x6E562, size: 0x8, addend: 0x0, symName: __ZNKSt3__116reverse_iteratorIPNS_6vectorI6GPointNS_9allocatorIS2_EEEEEdeB8ue170006Ev, symObjAddr: 0x10010, symBinAddr: 0x10003AF94, symSize: 0x28 }
  - { offsetInCU: 0x1C7A7, offset: 0x6E594, size: 0x8, addend: 0x0, symName: __ZNSt3__116reverse_iteratorIPNS_6vectorI6GPointNS_9allocatorIS2_EEEEEppB8ue170006Ev, symObjAddr: 0x10038, symBinAddr: 0x10003AFBC, symSize: 0x20 }
  - { offsetInCU: 0x1C7CB, offset: 0x6E5B8, size: 0x8, addend: 0x0, symName: __ZNSt3__128__exception_guard_exceptionsINS_29_AllocatorDestroyRangeReverseINS_9allocatorINS_6vectorI6GPointNS2_IS4_EEEEEENS_16reverse_iteratorIPS6_EEEEE10__completeB8ue170006Ev, symObjAddr: 0x10058, symBinAddr: 0x10003AFDC, symSize: 0x1C }
  - { offsetInCU: 0x1C7EF, offset: 0x6E5DC, size: 0x8, addend: 0x0, symName: __ZNSt3__128__exception_guard_exceptionsINS_29_AllocatorDestroyRangeReverseINS_9allocatorINS_6vectorI6GPointNS2_IS4_EEEEEENS_16reverse_iteratorIPS6_EEEEED1B8ue170006Ev, symObjAddr: 0x10074, symBinAddr: 0x10003AFF8, symSize: 0x2C }
  - { offsetInCU: 0x1C818, offset: 0x6E605, size: 0x8, addend: 0x0, symName: __ZNSt3__128__exception_guard_exceptionsINS_29_AllocatorDestroyRangeReverseINS_9allocatorINS_6vectorI6GPointNS2_IS4_EEEEEENS_16reverse_iteratorIPS6_EEEEEC1B8ue170006ESB_, symObjAddr: 0x100A0, symBinAddr: 0x10003B024, symSize: 0x34 }
  - { offsetInCU: 0x1C850, offset: 0x6E63D, size: 0x8, addend: 0x0, symName: __ZNSt3__128__exception_guard_exceptionsINS_29_AllocatorDestroyRangeReverseINS_9allocatorINS_6vectorI6GPointNS2_IS4_EEEEEENS_16reverse_iteratorIPS6_EEEEEC2B8ue170006ESB_, symObjAddr: 0x100D4, symBinAddr: 0x10003B058, symSize: 0x30 }
  - { offsetInCU: 0x1C888, offset: 0x6E675, size: 0x8, addend: 0x0, symName: __ZNSt3__129_AllocatorDestroyRangeReverseINS_9allocatorINS_6vectorI6GPointNS1_IS3_EEEEEENS_16reverse_iteratorIPS5_EEEC2B8ue170006ERS6_RS9_SC_, symObjAddr: 0x10104, symBinAddr: 0x10003B088, symSize: 0x38 }
  - { offsetInCU: 0x1C8E6, offset: 0x6E6D3, size: 0x8, addend: 0x0, symName: __ZNSt3__119__to_address_helperINS_16reverse_iteratorIPNS_6vectorI6GPointNS_9allocatorIS3_EEEEEEvE6__callB8ue170006ERKS8_, symObjAddr: 0x1013C, symBinAddr: 0x10003B0C0, symSize: 0x38 }
  - { offsetInCU: 0x1C909, offset: 0x6E6F6, size: 0x8, addend: 0x0, symName: __ZNKSt3__116reverse_iteratorIPNS_6vectorI6GPointNS_9allocatorIS2_EEEEEptB8ue170006Ev, symObjAddr: 0x10174, symBinAddr: 0x10003B0F8, symSize: 0x24 }
  - { offsetInCU: 0x1C92D, offset: 0x6E71A, size: 0x8, addend: 0x0, symName: __ZNSt3__128__exception_guard_exceptionsINS_29_AllocatorDestroyRangeReverseINS_9allocatorINS_6vectorI6GPointNS2_IS4_EEEEEENS_16reverse_iteratorIPS6_EEEEED2B8ue170006Ev, symObjAddr: 0x10198, symBinAddr: 0x10003B11C, symSize: 0x50 }
  - { offsetInCU: 0x1C956, offset: 0x6E743, size: 0x8, addend: 0x0, symName: __ZNKSt3__129_AllocatorDestroyRangeReverseINS_9allocatorINS_6vectorI6GPointNS1_IS3_EEEEEENS_16reverse_iteratorIPS5_EEEclB8ue170006Ev, symObjAddr: 0x101E8, symBinAddr: 0x10003B16C, symSize: 0xB4 }
  - { offsetInCU: 0x1C97B, offset: 0x6E768, size: 0x8, addend: 0x0, symName: __ZNSt3__116reverse_iteratorINS0_IPNS_6vectorI6GPointNS_9allocatorIS2_EEEEEEEC1B8ue170006ES7_, symObjAddr: 0x1030C, symBinAddr: 0x10003B290, symSize: 0x3C }
  - { offsetInCU: 0x1C9B2, offset: 0x6E79F, size: 0x8, addend: 0x0, symName: __ZNSt3__116reverse_iteratorINS0_IPNS_6vectorI6GPointNS_9allocatorIS2_EEEEEEEppB8ue170006Ev, symObjAddr: 0x103CC, symBinAddr: 0x10003B350, symSize: 0x30 }
  - { offsetInCU: 0x1C9D6, offset: 0x6E7C3, size: 0x8, addend: 0x0, symName: __ZNKSt3__116reverse_iteratorINS0_IPNS_6vectorI6GPointNS_9allocatorIS2_EEEEEEE4baseB8ue170006Ev, symObjAddr: 0x103FC, symBinAddr: 0x10003B380, symSize: 0x24 }
  - { offsetInCU: 0x1C9FF, offset: 0x6E7EC, size: 0x8, addend: 0x0, symName: __ZNSt3__119__to_address_helperINS_16reverse_iteratorINS1_IPNS_6vectorI6GPointNS_9allocatorIS3_EEEEEEEEvE6__callB8ue170006ERKS9_, symObjAddr: 0x10420, symBinAddr: 0x10003B3A4, symSize: 0x38 }
  - { offsetInCU: 0x1CA22, offset: 0x6E80F, size: 0x8, addend: 0x0, symName: __ZNKSt3__116reverse_iteratorINS0_IPNS_6vectorI6GPointNS_9allocatorIS2_EEEEEEEptB8ue170006Ev, symObjAddr: 0x10458, symBinAddr: 0x10003B3DC, symSize: 0x24 }
  - { offsetInCU: 0x1CA46, offset: 0x6E833, size: 0x8, addend: 0x0, symName: __ZNKSt3__116reverse_iteratorINS0_IPNS_6vectorI6GPointNS_9allocatorIS2_EEEEEEEdeB8ue170006Ev, symObjAddr: 0x1047C, symBinAddr: 0x10003B400, symSize: 0x34 }
  - { offsetInCU: 0x1CA78, offset: 0x6E865, size: 0x8, addend: 0x0, symName: __ZNSt3__116reverse_iteratorIPNS_6vectorI6GPointNS_9allocatorIS2_EEEEEmmB8ue170006Ev, symObjAddr: 0x104B0, symBinAddr: 0x10003B434, symSize: 0x20 }
  - { offsetInCU: 0x1CA9C, offset: 0x6E889, size: 0x8, addend: 0x0, symName: __ZNSt3__116reverse_iteratorINS0_IPNS_6vectorI6GPointNS_9allocatorIS2_EEEEEEEC2B8ue170006ES7_, symObjAddr: 0x104D0, symBinAddr: 0x10003B454, symSize: 0x2C }
  - { offsetInCU: 0x1CAD3, offset: 0x6E8C0, size: 0x8, addend: 0x0, symName: __ZNSt3__116reverse_iteratorIPNS_6vectorI6GPointNS_9allocatorIS2_EEEEEC2B8ue170006ES6_, symObjAddr: 0x104FC, symBinAddr: 0x10003B480, symSize: 0x28 }
  - { offsetInCU: 0x1CB0A, offset: 0x6E8F7, size: 0x8, addend: 0x0, symName: __ZNSt3__114__split_bufferINS_6vectorI6GPointNS_9allocatorIS2_EEEERNS3_IS5_EEED2Ev, symObjAddr: 0x10524, symBinAddr: 0x10003B4A8, symSize: 0x8C }
  - { offsetInCU: 0x1CB35, offset: 0x6E922, size: 0x8, addend: 0x0, symName: __ZNSt3__114__split_bufferINS_6vectorI6GPointNS_9allocatorIS2_EEEERNS3_IS5_EEE5clearB8ue170006Ev, symObjAddr: 0x105B0, symBinAddr: 0x10003B534, symSize: 0x28 }
  - { offsetInCU: 0x1CB59, offset: 0x6E946, size: 0x8, addend: 0x0, symName: __ZNKSt3__114__split_bufferINS_6vectorI6GPointNS_9allocatorIS2_EEEERNS3_IS5_EEE8capacityB8ue170006Ev, symObjAddr: 0x105D8, symBinAddr: 0x10003B55C, symSize: 0x40 }
  - { offsetInCU: 0x1CB7D, offset: 0x6E96A, size: 0x8, addend: 0x0, symName: __ZNSt3__114__split_bufferINS_6vectorI6GPointNS_9allocatorIS2_EEEERNS3_IS5_EEE17__destruct_at_endB8ue170006EPS5_, symObjAddr: 0x10618, symBinAddr: 0x10003B59C, symSize: 0x2C }
  - { offsetInCU: 0x1CBAF, offset: 0x6E99C, size: 0x8, addend: 0x0, symName: __ZNSt3__114__split_bufferINS_6vectorI6GPointNS_9allocatorIS2_EEEERNS3_IS5_EEE17__destruct_at_endB8ue170006EPS5_NS_17integral_constantIbLb0EEE, symObjAddr: 0x10644, symBinAddr: 0x10003B5C8, symSize: 0x80 }
  - { offsetInCU: 0x1CBEF, offset: 0x6E9DC, size: 0x8, addend: 0x0, symName: __ZNKSt3__114__split_bufferINS_6vectorI6GPointNS_9allocatorIS2_EEEERNS3_IS5_EEE9__end_capB8ue170006Ev, symObjAddr: 0x106C4, symBinAddr: 0x10003B648, symSize: 0x28 }
  - { offsetInCU: 0x1CC13, offset: 0x6EA00, size: 0x8, addend: 0x0, symName: __ZNKSt3__117__compressed_pairIPNS_6vectorI6GPointNS_9allocatorIS2_EEEERNS3_IS5_EEE5firstB8ue170006Ev, symObjAddr: 0x106EC, symBinAddr: 0x10003B670, symSize: 0x24 }
  - { offsetInCU: 0x1CC37, offset: 0x6EA24, size: 0x8, addend: 0x0, symName: __ZNSt3__16vectorI6GPointNS_9allocatorIS1_EEEC2B8ue170006ESt16initializer_listIS1_E, symObjAddr: 0x10710, symBinAddr: 0x10003B694, symSize: 0x120 }
  - { offsetInCU: 0x1CC89, offset: 0x6EA76, size: 0x8, addend: 0x0, symName: __ZNKSt16initializer_listI6GPointE4sizeB8ue170006Ev, symObjAddr: 0x108AC, symBinAddr: 0x10003B7B4, symSize: 0x18 }
  - { offsetInCU: 0x1CCAD, offset: 0x6EA9A, size: 0x8, addend: 0x0, symName: __ZNSt3__16vectorI6GPointNS_9allocatorIS1_EEE18__construct_at_endIPKS1_S7_EEvT_T0_m, symObjAddr: 0x10970, symBinAddr: 0x10003B7CC, symSize: 0x8C }
  - { offsetInCU: 0x1CD26, offset: 0x6EB13, size: 0x8, addend: 0x0, symName: __ZNKSt16initializer_listI6GPointE5beginB8ue170006Ev, symObjAddr: 0x109FC, symBinAddr: 0x10003B858, symSize: 0x18 }
  - { offsetInCU: 0x1CD4A, offset: 0x6EB37, size: 0x8, addend: 0x0, symName: __ZNKSt16initializer_listI6GPointE3endB8ue170006Ev, symObjAddr: 0x10A14, symBinAddr: 0x10003B870, symSize: 0x20 }
  - { offsetInCU: 0x1CDB1, offset: 0x6EB9E, size: 0x8, addend: 0x0, symName: __ZNSt3__14pairIPK6GPointS3_EC1B8ue170006IS3_S3_LPv0EEEOT_OT0_, symObjAddr: 0x11058, symBinAddr: 0x10003BA64, symSize: 0x3C }
  - { offsetInCU: 0x1CE0F, offset: 0x6EBFC, size: 0x8, addend: 0x0, symName: __ZNSt3__14pairIPK6GPointS3_EC2B8ue170006IS3_S3_LPv0EEEOT_OT0_, symObjAddr: 0x11094, symBinAddr: 0x10003BAA0, symSize: 0x34 }
  - { offsetInCU: 0x1CE6D, offset: 0x6EC5A, size: 0x8, addend: 0x0, symName: __ZNSt3__118__unwrap_iter_implIPK6GPointLb1EE8__unwrapB8ue170006ES3_, symObjAddr: 0x110C8, symBinAddr: 0x10003BAD4, symSize: 0x24 }
  - { offsetInCU: 0x1CEB4, offset: 0x6ECA1, size: 0x8, addend: 0x0, symName: __ZNKSt3__114__copy_trivialclB8ue170006IK6GPointS2_Li0EEENS_4pairIPT_PT0_EES6_S6_S8_, symObjAddr: 0x1127C, symBinAddr: 0x10003BC88, symSize: 0x48 }
  - { offsetInCU: 0x1CF26, offset: 0x6ED13, size: 0x8, addend: 0x0, symName: __ZNSt3__14pairIPK6GPointPS1_EC1B8ue170006IRS3_S4_LPv0EEEOT_OT0_, symObjAddr: 0x11444, symBinAddr: 0x10003BE50, symSize: 0x3C }
  - { offsetInCU: 0x1CF84, offset: 0x6ED71, size: 0x8, addend: 0x0, symName: __ZNSt3__14pairIPK6GPointPS1_EC2B8ue170006IRS3_S4_LPv0EEEOT_OT0_, symObjAddr: 0x11480, symBinAddr: 0x10003BE8C, symSize: 0x34 }
  - { offsetInCU: 0x1CFE2, offset: 0x6EDCF, size: 0x8, addend: 0x0, symName: __ZNSt3__14pairIPK6GPointPS1_EC1B8ue170006IS3_S4_LPv0EEEOT_OT0_, symObjAddr: 0x114B4, symBinAddr: 0x10003BEC0, symSize: 0x3C }
  - { offsetInCU: 0x1D040, offset: 0x6EE2D, size: 0x8, addend: 0x0, symName: __ZNSt3__14pairIPK6GPointPS1_EC2B8ue170006IS3_S4_LPv0EEEOT_OT0_, symObjAddr: 0x114F0, symBinAddr: 0x10003BEFC, symSize: 0x34 }
  - { offsetInCU: 0x1D09E, offset: 0x6EE8B, size: 0x8, addend: 0x0, symName: __ZNSt3__118__unwrap_iter_implIPK6GPointLb1EE8__rewrapB8ue170006ES3_S3_, symObjAddr: 0x11560, symBinAddr: 0x10003BF6C, symSize: 0x50 }
  - { offsetInCU: 0x1D0CF, offset: 0x6EEBC, size: 0x8, addend: 0x0, symName: __ZNSt3__118__unwrap_iter_implIP6GPointLb1EE8__unwrapB8ue170006ES2_, symObjAddr: 0x115B0, symBinAddr: 0x10003BFBC, symSize: 0x24 }
  - { offsetInCU: 0x1D0F2, offset: 0x6EEDF, size: 0x8, addend: 0x0, symName: __ZNSt3__118__unwrap_iter_implIP6GPointLb1EE8__rewrapB8ue170006ES2_S2_, symObjAddr: 0x115D4, symBinAddr: 0x10003BFE0, symSize: 0x50 }
  - { offsetInCU: 0x1D123, offset: 0x6EF10, size: 0x8, addend: 0x0, symName: __ZNSt3__16vectorINS0_I6GPointNS_9allocatorIS1_EEEENS2_IS4_EEE11__make_iterB8ue170006EPS4_, symObjAddr: 0x1168C, symBinAddr: 0x10003C030, symSize: 0x30 }
  - { offsetInCU: 0x1D157, offset: 0x6EF44, size: 0x8, addend: 0x0, symName: __ZNSt3__111__wrap_iterIPNS_6vectorI6GPointNS_9allocatorIS2_EEEEEC1B8ue170006ES6_, symObjAddr: 0x116BC, symBinAddr: 0x10003C060, symSize: 0x34 }
  - { offsetInCU: 0x1D18E, offset: 0x6EF7B, size: 0x8, addend: 0x0, symName: __ZNSt3__111__wrap_iterIPNS_6vectorI6GPointNS_9allocatorIS2_EEEEEC2B8ue170006ES6_, symObjAddr: 0x116F0, symBinAddr: 0x10003C094, symSize: 0x20 }
  - { offsetInCU: 0x1D1C5, offset: 0x6EFB2, size: 0x8, addend: 0x0, symName: __ZNSt3__16vectorI6GPointNS_9allocatorIS1_EEEC2ERKS4_, symObjAddr: 0x11710, symBinAddr: 0x10003C0B4, symSize: 0x94 }
  - { offsetInCU: 0x1D200, offset: 0x6EFED, size: 0x8, addend: 0x0, symName: __ZNSt3__116allocator_traitsINS_9allocatorI6GPointEEE37select_on_container_copy_constructionB8ue170006IS3_vvEES3_RKS3_, symObjAddr: 0x117A4, symBinAddr: 0x10003C148, symSize: 0x10 }
  - { offsetInCU: 0x1D230, offset: 0x6F01D, size: 0x8, addend: 0x0, symName: __ZNSt3__16vectorI6GPointNS_9allocatorIS1_EEE16__init_with_sizeB8ue170006IPS1_S6_EEvT_T0_m, symObjAddr: 0x117B4, symBinAddr: 0x10003C158, symSize: 0xB8 }
  - { offsetInCU: 0x1D2A6, offset: 0x6F093, size: 0x8, addend: 0x0, symName: __ZNSt3__16vectorI6GPointNS_9allocatorIS1_EEE18__construct_at_endIPS1_S6_EEvT_T0_m, symObjAddr: 0x1186C, symBinAddr: 0x10003C210, symSize: 0x8C }
  - { offsetInCU: 0x1D339, offset: 0x6F126, size: 0x8, addend: 0x0, symName: __ZNSt3__14pairIP6GPointS2_EC1B8ue170006IS2_S2_LPv0EEEOT_OT0_, symObjAddr: 0x11A48, symBinAddr: 0x10003C3EC, symSize: 0x3C }
  - { offsetInCU: 0x1D397, offset: 0x6F184, size: 0x8, addend: 0x0, symName: __ZNSt3__14pairIP6GPointS2_EC2B8ue170006IS2_S2_LPv0EEEOT_OT0_, symObjAddr: 0x11A84, symBinAddr: 0x10003C428, symSize: 0x34 }
  - { offsetInCU: 0x1D3F5, offset: 0x6F1E2, size: 0x8, addend: 0x0, symName: __ZNKSt3__114__copy_trivialclB8ue170006I6GPointS2_Li0EEENS_4pairIPT_PT0_EES5_S5_S7_, symObjAddr: 0x11C34, symBinAddr: 0x10003C5D8, symSize: 0x48 }
  - { offsetInCU: 0x1D45C, offset: 0x6F249, size: 0x8, addend: 0x0, symName: __ZNSt3__14pairIP6GPointS2_EC1B8ue170006IRS2_S2_LPv0EEEOT_OT0_, symObjAddr: 0x11DC4, symBinAddr: 0x10003C768, symSize: 0x3C }
  - { offsetInCU: 0x1D4BA, offset: 0x6F2A7, size: 0x8, addend: 0x0, symName: __ZNSt3__14pairIP6GPointS2_EC2B8ue170006IRS2_S2_LPv0EEEOT_OT0_, symObjAddr: 0x11E00, symBinAddr: 0x10003C7A4, symSize: 0x34 }
  - { offsetInCU: 0x1D518, offset: 0x6F305, size: 0x8, addend: 0x0, symName: __ZNSt3__16vectorINS0_I6GPointNS_9allocatorIS1_EEEENS2_IS4_EEE19__copy_assign_allocB8ue170006ERKS6_, symObjAddr: 0x11E34, symBinAddr: 0x10003C7D8, symSize: 0x2C }
  - { offsetInCU: 0x1D54C, offset: 0x6F339, size: 0x8, addend: 0x0, symName: __ZNSt3__16vectorINS0_I6GPointNS_9allocatorIS1_EEEENS2_IS4_EEE6assignIPS4_Li0EEEvT_S9_, symObjAddr: 0x11E60, symBinAddr: 0x10003C804, symSize: 0x5C }
  - { offsetInCU: 0x1D5A3, offset: 0x6F390, size: 0x8, addend: 0x0, symName: __ZNSt3__16vectorINS0_I6GPointNS_9allocatorIS1_EEEENS2_IS4_EEE19__copy_assign_allocB8ue170006ERKS6_NS_17integral_constantIbLb0EEE, symObjAddr: 0x11EBC, symBinAddr: 0x10003C860, symSize: 0x14 }
  - { offsetInCU: 0x1D5DF, offset: 0x6F3CC, size: 0x8, addend: 0x0, symName: __ZNSt3__16vectorINS0_I6GPointNS_9allocatorIS1_EEEENS2_IS4_EEE18__assign_with_sizeB8ue170006IPS4_S8_EEvT_T0_l, symObjAddr: 0x11ED0, symBinAddr: 0x10003C874, symSize: 0x164 }
  - { offsetInCU: 0x1D694, offset: 0x6F481, size: 0x8, addend: 0x0, symName: __ZNSt3__16vectorINS0_I6GPointNS_9allocatorIS1_EEEENS2_IS4_EEE18__construct_at_endIPS4_S8_EEvT_T0_m, symObjAddr: 0x120D4, symBinAddr: 0x10003CA78, symSize: 0x8C }
  - { offsetInCU: 0x1D70D, offset: 0x6F4FA, size: 0x8, addend: 0x0, symName: __ZNSt3__16vectorINS0_I6GPointNS_9allocatorIS1_EEEENS2_IS4_EEE17__destruct_at_endB8ue170006EPS4_, symObjAddr: 0x121A4, symBinAddr: 0x10003CB48, symSize: 0x4C }
  - { offsetInCU: 0x1D751, offset: 0x6F53E, size: 0x8, addend: 0x0, symName: __ZNSt3__16vectorINS0_I6GPointNS_9allocatorIS1_EEEENS2_IS4_EEE13__vdeallocateEv, symObjAddr: 0x121F0, symBinAddr: 0x10003CB94, symSize: 0x94 }
  - { offsetInCU: 0x1D778, offset: 0x6F565, size: 0x8, addend: 0x0, symName: __ZNSt3__16vectorINS0_I6GPointNS_9allocatorIS1_EEEENS2_IS4_EEE11__vallocateB8ue170006Em, symObjAddr: 0x12284, symBinAddr: 0x10003CC28, symSize: 0xB4 }
  - { offsetInCU: 0x1D7DC, offset: 0x6F5C9, size: 0x8, addend: 0x0, symName: __ZNSt3__14pairIPNS_6vectorI6GPointNS_9allocatorIS2_EEEES6_EC1B8ue170006IS6_S6_LPv0EEEOT_OT0_, symObjAddr: 0x1260C, symBinAddr: 0x10003CFB0, symSize: 0x3C }
  - { offsetInCU: 0x1D83A, offset: 0x6F627, size: 0x8, addend: 0x0, symName: __ZNSt3__14pairIPNS_6vectorI6GPointNS_9allocatorIS2_EEEES6_EC2B8ue170006IS6_S6_LPv0EEEOT_OT0_, symObjAddr: 0x12648, symBinAddr: 0x10003CFEC, symSize: 0x34 }
  - { offsetInCU: 0x1D898, offset: 0x6F685, size: 0x8, addend: 0x0, symName: __ZNSt3__129_AllocatorDestroyRangeReverseINS_9allocatorINS_6vectorI6GPointNS1_IS3_EEEEEEPS5_EC1B8ue170006ERS6_RS7_SA_, symObjAddr: 0x126C8, symBinAddr: 0x10003D06C, symSize: 0x44 }
  - { offsetInCU: 0x1D8F1, offset: 0x6F6DE, size: 0x8, addend: 0x0, symName: __ZNSt3__116allocator_traitsINS_9allocatorINS_6vectorI6GPointNS1_IS3_EEEEEEE9constructB8ue170006IS5_JRS5_EvEEvRS6_PT_DpOT0_, symObjAddr: 0x1270C, symBinAddr: 0x10003D0B0, symSize: 0x34 }
  - { offsetInCU: 0x1D94B, offset: 0x6F738, size: 0x8, addend: 0x0, symName: __ZNSt3__128__exception_guard_exceptionsINS_29_AllocatorDestroyRangeReverseINS_9allocatorINS_6vectorI6GPointNS2_IS4_EEEEEEPS6_EEE10__completeB8ue170006Ev, symObjAddr: 0x12740, symBinAddr: 0x10003D0E4, symSize: 0x1C }
  - { offsetInCU: 0x1D96F, offset: 0x6F75C, size: 0x8, addend: 0x0, symName: __ZNSt3__128__exception_guard_exceptionsINS_29_AllocatorDestroyRangeReverseINS_9allocatorINS_6vectorI6GPointNS2_IS4_EEEEEEPS6_EEED1B8ue170006Ev, symObjAddr: 0x1275C, symBinAddr: 0x10003D100, symSize: 0x2C }
  - { offsetInCU: 0x1D998, offset: 0x6F785, size: 0x8, addend: 0x0, symName: __ZNSt3__128__exception_guard_exceptionsINS_29_AllocatorDestroyRangeReverseINS_9allocatorINS_6vectorI6GPointNS2_IS4_EEEEEEPS6_EEEC1B8ue170006ES9_, symObjAddr: 0x12788, symBinAddr: 0x10003D12C, symSize: 0x34 }
  - { offsetInCU: 0x1D9D0, offset: 0x6F7BD, size: 0x8, addend: 0x0, symName: __ZNSt3__128__exception_guard_exceptionsINS_29_AllocatorDestroyRangeReverseINS_9allocatorINS_6vectorI6GPointNS2_IS4_EEEEEEPS6_EEEC2B8ue170006ES9_, symObjAddr: 0x127BC, symBinAddr: 0x10003D160, symSize: 0x30 }
  - { offsetInCU: 0x1DA08, offset: 0x6F7F5, size: 0x8, addend: 0x0, symName: __ZNSt3__129_AllocatorDestroyRangeReverseINS_9allocatorINS_6vectorI6GPointNS1_IS3_EEEEEEPS5_EC2B8ue170006ERS6_RS7_SA_, symObjAddr: 0x127EC, symBinAddr: 0x10003D190, symSize: 0x38 }
  - { offsetInCU: 0x1DA61, offset: 0x6F84E, size: 0x8, addend: 0x0, symName: __ZNSt3__19allocatorINS_6vectorI6GPointNS0_IS2_EEEEE9constructB8ue170006IS4_JRS4_EEEvPT_DpOT0_, symObjAddr: 0x12824, symBinAddr: 0x10003D1C8, symSize: 0x30 }
  - { offsetInCU: 0x1DAB5, offset: 0x6F8A2, size: 0x8, addend: 0x0, symName: __ZNSt3__128__exception_guard_exceptionsINS_29_AllocatorDestroyRangeReverseINS_9allocatorINS_6vectorI6GPointNS2_IS4_EEEEEEPS6_EEED2B8ue170006Ev, symObjAddr: 0x12854, symBinAddr: 0x10003D1F8, symSize: 0x50 }
  - { offsetInCU: 0x1DADE, offset: 0x6F8CB, size: 0x8, addend: 0x0, symName: __ZNKSt3__129_AllocatorDestroyRangeReverseINS_9allocatorINS_6vectorI6GPointNS1_IS3_EEEEEEPS5_EclB8ue170006Ev, symObjAddr: 0x128A4, symBinAddr: 0x10003D248, symSize: 0x68 }
  - { offsetInCU: 0x1DB02, offset: 0x6F8EF, size: 0x8, addend: 0x0, symName: __ZNSt3__118__unwrap_iter_implIPNS_6vectorI6GPointNS_9allocatorIS2_EEEELb1EE8__unwrapB8ue170006ES6_, symObjAddr: 0x1297C, symBinAddr: 0x10003D320, symSize: 0x24 }
  - { offsetInCU: 0x1DB25, offset: 0x6F912, size: 0x8, addend: 0x0, symName: __ZNSt3__118__unwrap_iter_implIPNS_6vectorI6GPointNS_9allocatorIS2_EEEELb1EE8__rewrapB8ue170006ES6_S6_, symObjAddr: 0x129A0, symBinAddr: 0x10003D344, symSize: 0x58 }
  - { offsetInCU: 0x1DB60, offset: 0x6F94D, size: 0x8, addend: 0x0, symName: __ZNKSt3__111__copy_loopINS_17_ClassicAlgPolicyEEclB8ue170006IPNS_6vectorI6GPointNS_9allocatorIS5_EEEES9_S9_EENS_4pairIT_T1_EESB_T0_SC_, symObjAddr: 0x12AF0, symBinAddr: 0x10003D494, symSize: 0x88 }
  - { offsetInCU: 0x1DBC9, offset: 0x6F9B6, size: 0x8, addend: 0x0, symName: __ZNSt3__16vectorI6GPointNS_9allocatorIS1_EEEaSB8ue170006ERKS4_, symObjAddr: 0x12BA4, symBinAddr: 0x10003D548, symSize: 0x68 }
  - { offsetInCU: 0x1DC00, offset: 0x6F9ED, size: 0x8, addend: 0x0, symName: __ZNSt3__16vectorI6GPointNS_9allocatorIS1_EEE19__copy_assign_allocB8ue170006ERKS4_, symObjAddr: 0x12C0C, symBinAddr: 0x10003D5B0, symSize: 0x2C }
  - { offsetInCU: 0x1DC34, offset: 0x6FA21, size: 0x8, addend: 0x0, symName: __ZNSt3__16vectorI6GPointNS_9allocatorIS1_EEE6assignIPS1_Li0EEEvT_S7_, symObjAddr: 0x12C38, symBinAddr: 0x10003D5DC, symSize: 0x5C }
  - { offsetInCU: 0x1DC8B, offset: 0x6FA78, size: 0x8, addend: 0x0, symName: __ZNSt3__16vectorI6GPointNS_9allocatorIS1_EEE19__copy_assign_allocB8ue170006ERKS4_NS_17integral_constantIbLb0EEE, symObjAddr: 0x12C94, symBinAddr: 0x10003D638, symSize: 0x14 }
  - { offsetInCU: 0x1DCC7, offset: 0x6FAB4, size: 0x8, addend: 0x0, symName: __ZNSt3__16vectorI6GPointNS_9allocatorIS1_EEE18__assign_with_sizeB8ue170006IPS1_S6_EEvT_T0_l, symObjAddr: 0x12CA8, symBinAddr: 0x10003D64C, symSize: 0x164 }
  - { offsetInCU: 0x1DD7C, offset: 0x6FB69, size: 0x8, addend: 0x0, symName: __ZNSt3__16vectorI6GPointNS_9allocatorIS1_EEE17__destruct_at_endB8ue170006EPS1_, symObjAddr: 0x12E6C, symBinAddr: 0x10003D810, symSize: 0x4C }
  - { offsetInCU: 0x1DDC0, offset: 0x6FBAD, size: 0x8, addend: 0x0, symName: __ZNSt3__16vectorI6GPointNS_9allocatorIS1_EEE13__vdeallocateEv, symObjAddr: 0x12EB8, symBinAddr: 0x10003D85C, symSize: 0x94 }
  - { offsetInCU: 0x1DDE7, offset: 0x6FBD4, size: 0x8, addend: 0x0, symName: __ZNKSt3__16vectorINS0_I6GPointNS_9allocatorIS1_EEEENS2_IS4_EEE17__annotate_shrinkB8ue170006Em, symObjAddr: 0x13180, symBinAddr: 0x10003D978, symSize: 0xD0 }
  - { offsetInCU: 0x1DE1B, offset: 0x6FC08, size: 0x8, addend: 0x0, symName: __ZNSt3__16vectorI4EdgeNS_9allocatorIS1_EEE22__construct_one_at_endB8ue170006IJS1_EEEvDpOT_, symObjAddr: 0x141A0, symBinAddr: 0x10003DA70, symSize: 0x90 }
  - { offsetInCU: 0x1DE6A, offset: 0x6FC57, size: 0x8, addend: 0x0, symName: __ZNSt3__16vectorI4EdgeNS_9allocatorIS1_EEE21__push_back_slow_pathIS1_EEvOT_, symObjAddr: 0x14230, symBinAddr: 0x10003DB00, symSize: 0xD8 }
  - { offsetInCU: 0x1DECA, offset: 0x6FCB7, size: 0x8, addend: 0x0, symName: __ZNSt3__116allocator_traitsINS_9allocatorI4EdgeEEE9constructB8ue170006IS2_JS2_EvEEvRS3_PT_DpOT0_, symObjAddr: 0x14308, symBinAddr: 0x10003DBD8, symSize: 0x34 }
  - { offsetInCU: 0x1DF24, offset: 0x6FD11, size: 0x8, addend: 0x0, symName: __ZNSt3__19allocatorI4EdgeE9constructB8ue170006IS1_JS1_EEEvPT_DpOT0_, symObjAddr: 0x1433C, symBinAddr: 0x10003DC0C, symSize: 0x34 }
  - { offsetInCU: 0x1DF78, offset: 0x6FD65, size: 0x8, addend: 0x0, symName: __ZNSt3__16vectorI4EdgeNS_9allocatorIS1_EEE11__make_iterB8ue170006EPS1_, symObjAddr: 0x14370, symBinAddr: 0x10003DC40, symSize: 0x30 }
  - { offsetInCU: 0x1DFAC, offset: 0x6FD99, size: 0x8, addend: 0x0, symName: __ZNSt3__111__wrap_iterIP4EdgeEC1B8ue170006ES2_, symObjAddr: 0x143A0, symBinAddr: 0x10003DC70, symSize: 0x34 }
  - { offsetInCU: 0x1DFE3, offset: 0x6FDD0, size: 0x8, addend: 0x0, symName: __ZNSt3__111__wrap_iterIP4EdgeEC2B8ue170006ES2_, symObjAddr: 0x143D4, symBinAddr: 0x10003DCA4, symSize: 0x20 }
  - { offsetInCU: 0x1E024, offset: 0x6FE11, size: 0x8, addend: 0x0, symName: '__ZZN8MyCanvas8drawPathERK5GPathRK6GPaintENK3$_1clERK4EdgeS9_', symObjAddr: 0x14A50, symBinAddr: 0x10003E320, symSize: 0x34 }
  - { offsetInCU: 0x1E06D, offset: 0x6FE5A, size: 0x8, addend: 0x0, symName: __ZNSt3__18_IterOpsINS_17_ClassicAlgPolicyEE9iter_swapB8ue170006IRP4EdgeS6_EEvOT_OT0_, symObjAddr: 0x14A84, symBinAddr: 0x10003E354, symSize: 0x34 }
  - { offsetInCU: 0x1E0B6, offset: 0x6FEA3, size: 0x8, addend: 0x0, symName: __ZNSt3__18_IterOpsINS_17_ClassicAlgPolicyEE9iter_swapB8ue170006IRP4EdgeS5_EEvOT_OT0_, symObjAddr: 0x14FEC, symBinAddr: 0x10003E8BC, symSize: 0x34 }
  - { offsetInCU: 0x1E0F9, offset: 0x6FEE6, size: 0x8, addend: 0x0, symName: __ZNSt3__18_IterOpsINS_17_ClassicAlgPolicyEE11__iter_moveB8ue170006IRP4EdgeEENS_9enable_ifIXsr12is_referenceIDTdeclsr3stdE7declvalIRT_EEEEE5valueEDTclsr3stdE4movedeclsr3stdE7declvalIS9_EEEEE4typeEOS8_, symObjAddr: 0x15D0C, symBinAddr: 0x10003F5DC, symSize: 0x28 }
  - { offsetInCU: 0x1E125, offset: 0x6FF12, size: 0x8, addend: 0x0, symName: __ZNSt3__18_IterOpsINS_17_ClassicAlgPolicyEE25__validate_iter_referenceB8ue170006IRP4EdgeEEvv, symObjAddr: 0x15D34, symBinAddr: 0x10003F604, symSize: 0x4 }
  - { offsetInCU: 0x1E143, offset: 0x6FF30, size: 0x8, addend: 0x0, symName: __ZNSt3__18_IterOpsINS_17_ClassicAlgPolicyEE4nextB8ue170006IP4EdgeEET_S6_S6_, symObjAddr: 0x15D38, symBinAddr: 0x10003F608, symSize: 0x18 }
  - { offsetInCU: 0x1E17A, offset: 0x6FF67, size: 0x8, addend: 0x0, symName: __ZNSt3__18_IterOpsINS_17_ClassicAlgPolicyEE9iter_swapB8ue170006IP4EdgeS5_EEvOT_OT0_, symObjAddr: 0x16D04, symBinAddr: 0x1000405D4, symSize: 0x34 }
  - { offsetInCU: 0x1E1DC, offset: 0x6FFC9, size: 0x8, addend: 0x0, symName: __ZNSt3__14pairIP4EdgebEC1B8ue170006IRS2_RbLPv0EEEOT_OT0_, symObjAddr: 0x16D54, symBinAddr: 0x100040624, symSize: 0x3C }
  - { offsetInCU: 0x1E23A, offset: 0x70027, size: 0x8, addend: 0x0, symName: __ZNSt3__14pairIP4EdgebEC2B8ue170006IRS2_RbLPv0EEEOT_OT0_, symObjAddr: 0x16D90, symBinAddr: 0x100040660, symSize: 0x38 }
  - { offsetInCU: 0x1E298, offset: 0x70085, size: 0x8, addend: 0x0, symName: __ZNSt3__118__unwrap_iter_implINS_11__wrap_iterIP4EdgeEELb1EE8__unwrapB8ue170006ES4_, symObjAddr: 0x16DC8, symBinAddr: 0x100040698, symSize: 0x28 }
  - { offsetInCU: 0x1E2C5, offset: 0x700B2, size: 0x8, addend: 0x0, symName: __ZNSt3__119__to_address_helperINS_11__wrap_iterIP4EdgeEEvE6__callB8ue170006ERKS4_, symObjAddr: 0x16E14, symBinAddr: 0x1000406E4, symSize: 0x30 }
  - { offsetInCU: 0x1E2E8, offset: 0x700D5, size: 0x8, addend: 0x0, symName: __ZNSt3__114pointer_traitsINS_11__wrap_iterIP4EdgeEEE10to_addressB8ue170006ES4_, symObjAddr: 0x16E44, symBinAddr: 0x100040714, symSize: 0x2C }
  - { offsetInCU: 0x1E315, offset: 0x70102, size: 0x8, addend: 0x0, symName: '__ZZN8MyCanvas8drawPathERK5GPathRK6GPaintENK3$_2clER4EdgeS8_', symObjAddr: 0x1741C, symBinAddr: 0x100040CEC, symSize: 0x60 }
  - { offsetInCU: 0x1E35E, offset: 0x7014B, size: 0x8, addend: 0x0, symName: __ZNKSt3__16vectorI4EdgeNS_9allocatorIS1_EEE17__annotate_shrinkB8ue170006Em, symObjAddr: 0x19248, symBinAddr: 0x100042B18, symSize: 0xD0 }
  - { offsetInCU: 0x1E392, offset: 0x7017F, size: 0x8, addend: 0x0, symName: __ZNSt3__110unique_ptrI7GCanvasNS_14default_deleteIS1_EEEC2B8ue170006ILb1EvEEPS1_, symObjAddr: 0x19318, symBinAddr: 0x100042BE8, symSize: 0x44 }
  - { offsetInCU: 0x1E3D4, offset: 0x701C1, size: 0x8, addend: 0x0, symName: __ZNSt3__117__compressed_pairIP7GCanvasNS_14default_deleteIS1_EEEC1B8ue170006IRS2_NS_16__value_init_tagEEEOT_OT0_, symObjAddr: 0x1935C, symBinAddr: 0x100042C2C, symSize: 0x3C }
  - { offsetInCU: 0x1E42B, offset: 0x70218, size: 0x8, addend: 0x0, symName: __ZNSt3__117__compressed_pairIP7GCanvasNS_14default_deleteIS1_EEEC2B8ue170006IRS2_NS_16__value_init_tagEEEOT_OT0_, symObjAddr: 0x19398, symBinAddr: 0x100042C68, symSize: 0x40 }
  - { offsetInCU: 0x1E482, offset: 0x7026F, size: 0x8, addend: 0x0, symName: __ZNSt3__122__compressed_pair_elemIP7GCanvasLi0ELb0EEC2B8ue170006IRS2_vEEOT_, symObjAddr: 0x193D8, symBinAddr: 0x100042CA8, symSize: 0x24 }
  - { offsetInCU: 0x1E4C3, offset: 0x702B0, size: 0x8, addend: 0x0, symName: __ZNSt3__122__compressed_pair_elemINS_14default_deleteI7GCanvasEELi1ELb1EEC2B8ue170006ENS_16__value_init_tagE, symObjAddr: 0x193FC, symBinAddr: 0x100042CCC, symSize: 0x14 }
  - { offsetInCU: 0x1E4F7, offset: 0x702E4, size: 0x8, addend: 0x0, symName: __ZNSt3__112basic_stringIcNS_11char_traitsIcEENS_9allocatorIcEEEC2B8ue170006ILi0EEEPKc, symObjAddr: 0x19410, symBinAddr: 0x100042CE0, symSize: 0x58 }
  - { offsetInCU: 0x1E537, offset: 0x70324, size: 0x8, addend: 0x0, symName: __ZNSt3__117__compressed_pairINS_12basic_stringIcNS_11char_traitsIcEENS_9allocatorIcEEE5__repES5_EC1B8ue170006INS_18__default_init_tagESA_EEOT_OT0_, symObjAddr: 0x19468, symBinAddr: 0x100042D38, symSize: 0x3C }
  - { offsetInCU: 0x1E58E, offset: 0x7037B, size: 0x8, addend: 0x0, symName: __ZNSt3__111char_traitsIcE6lengthB8ue170006EPKc, symObjAddr: 0x194A4, symBinAddr: 0x100042D74, symSize: 0x34 }
  - { offsetInCU: 0x1E5B1, offset: 0x7039E, size: 0x8, addend: 0x0, symName: __ZNSt3__117__compressed_pairINS_12basic_stringIcNS_11char_traitsIcEENS_9allocatorIcEEE5__repES5_EC2B8ue170006INS_18__default_init_tagESA_EEOT_OT0_, symObjAddr: 0x194D8, symBinAddr: 0x100042DA8, symSize: 0x3C }
  - { offsetInCU: 0x1E608, offset: 0x703F5, size: 0x8, addend: 0x0, symName: __ZNSt3__122__compressed_pair_elemINS_12basic_stringIcNS_11char_traitsIcEENS_9allocatorIcEEE5__repELi0ELb0EEC2B8ue170006ENS_18__default_init_tagE, symObjAddr: 0x19514, symBinAddr: 0x100042DE4, symSize: 0x14 }
  - { offsetInCU: 0x1E63C, offset: 0x70429, size: 0x8, addend: 0x0, symName: __ZNSt3__122__compressed_pair_elemINS_9allocatorIcEELi1ELb1EEC2B8ue170006ENS_18__default_init_tagE, symObjAddr: 0x19528, symBinAddr: 0x100042DF8, symSize: 0x2C }
  - { offsetInCU: 0x1E670, offset: 0x7045D, size: 0x8, addend: 0x0, symName: __ZNSt3__19allocatorIcEC2B8ue170006Ev, symObjAddr: 0x19554, symBinAddr: 0x100042E24, symSize: 0x2C }
  - { offsetInCU: 0x1E699, offset: 0x70486, size: 0x8, addend: 0x0, symName: __ZNSt3__116__non_trivial_ifILb1ENS_9allocatorIcEEEC2B8ue170006Ev, symObjAddr: 0x19580, symBinAddr: 0x100042E50, symSize: 0x14 }
  - { offsetInCU: 0x26, offset: 0x707D4, size: 0x8, addend: 0x0, symName: _main, symObjAddr: 0x0, symBinAddr: 0x100042E88, symSize: 0x30 }
  - { offsetInCU: 0x33, offset: 0x707E1, size: 0x8, addend: 0x0, symName: _main, symObjAddr: 0x0, symBinAddr: 0x100042E88, symSize: 0x30 }
  - { offsetInCU: 0x52, offset: 0x70887, size: 0x8, addend: 0x0, symName: __ZL9gPACounts, symObjAddr: 0x1A868, symBinAddr: 0x100054458, symSize: 0x0 }
  - { offsetInCU: 0x7F, offset: 0x708B4, size: 0x8, addend: 0x0, symName: __ZL10gDrawCount, symObjAddr: 0x1A890, symBinAddr: 0x100054480, symSize: 0x0 }
  - { offsetInCU: 0x4771, offset: 0x74FA6, size: 0x8, addend: 0x0, symName: __Z10main_imageiPPKc, symObjAddr: 0x0, symBinAddr: 0x100042EB8, symSize: 0xCDC }
  - { offsetInCU: 0x4AB6, offset: 0x752EB, size: 0x8, addend: 0x0, symName: __ZNSt3__112basic_stringIcNS_11char_traitsIcEENS_9allocatorIcEEEC1B8ue170006Ev, symObjAddr: 0xCDC, symBinAddr: 0x100043B94, symSize: 0x2C }
  - { offsetInCU: 0x4ADF, offset: 0x75314, size: 0x8, addend: 0x0, symName: __ZL6is_argPKcS0_, symObjAddr: 0xD08, symBinAddr: 0x100043BC0, symSize: 0x118 }
  - { offsetInCU: 0x4B35, offset: 0x7536A, size: 0x8, addend: 0x0, symName: __ZNSt3__112basic_stringIcNS_11char_traitsIcEENS_9allocatorIcEEEaSB8ue170006EPKc, symObjAddr: 0xE20, symBinAddr: 0x100043CD8, symSize: 0x2C }
  - { offsetInCU: 0x4B6E, offset: 0x753A3, size: 0x8, addend: 0x0, symName: __ZNSt3__112basic_stringIcNS_11char_traitsIcEENS_9allocatorIcEEEpLB8ue170006EPKc, symObjAddr: 0xE80, symBinAddr: 0x100043D04, symSize: 0x2C }
  - { offsetInCU: 0x4BA2, offset: 0x753D7, size: 0x8, addend: 0x0, symName: __ZL12max_name_lenv, symObjAddr: 0xED0, symBinAddr: 0x100043D30, symSize: 0x94 }
  - { offsetInCU: 0x4BEA, offset: 0x7541F, size: 0x8, addend: 0x0, symName: __Z6strstrB8ue170006Ua9enable_ifIXLb1EEEPKcS0_, symObjAddr: 0xF64, symBinAddr: 0x100043DC4, symSize: 0x2C }
  - { offsetInCU: 0x4C25, offset: 0x7545A, size: 0x8, addend: 0x0, symName: __ZL11handle_procRK8GDrawRecPKcP7GBitmap, symObjAddr: 0xFBC, symBinAddr: 0x100043DF0, symSize: 0x184 }
  - { offsetInCU: 0x4C77, offset: 0x754AC, size: 0x8, addend: 0x0, symName: __ZL7compareRK7GBitmapS1_ib, symObjAddr: 0x1140, symBinAddr: 0x100043F74, symSize: 0x33C }
  - { offsetInCU: 0x4D76, offset: 0x755AB, size: 0x8, addend: 0x0, symName: __ZL16add_diff_to_fileP7__sFILERK7GBitmapS3_PKcS5_, symObjAddr: 0x147C, symBinAddr: 0x1000442B0, symSize: 0x27C }
  - { offsetInCU: 0x4E94, offset: 0x756C9, size: 0x8, addend: 0x0, symName: __ZNKSt3__110unique_ptrI7GCanvasNS_14default_deleteIS1_EEEcvbB8ue170006Ev, symObjAddr: 0x1844, symBinAddr: 0x10004452C, symSize: 0x34 }
  - { offsetInCU: 0x4EB8, offset: 0x756ED, size: 0x8, addend: 0x0, symName: __ZNKSt3__110unique_ptrI7GCanvasNS_14default_deleteIS1_EEEptB8ue170006Ev, symObjAddr: 0x1878, symBinAddr: 0x100044560, symSize: 0x28 }
  - { offsetInCU: 0x4EDC, offset: 0x75711, size: 0x8, addend: 0x0, symName: __ZNKSt3__110unique_ptrI7GCanvasNS_14default_deleteIS1_EEE3getB8ue170006Ev, symObjAddr: 0x18A0, symBinAddr: 0x100044588, symSize: 0x28 }
  - { offsetInCU: 0x4F00, offset: 0x75735, size: 0x8, addend: 0x0, symName: __ZNSt3__110unique_ptrI7GCanvasNS_14default_deleteIS1_EEED1B8ue170006Ev, symObjAddr: 0x18C8, symBinAddr: 0x1000445B0, symSize: 0x2C }
  - { offsetInCU: 0x4F29, offset: 0x7575E, size: 0x8, addend: 0x0, symName: __ZNKSt3__117__compressed_pairIP7GCanvasNS_14default_deleteIS1_EEE5firstB8ue170006Ev, symObjAddr: 0x18F4, symBinAddr: 0x1000445DC, symSize: 0x24 }
  - { offsetInCU: 0x4F4D, offset: 0x75782, size: 0x8, addend: 0x0, symName: __ZNKSt3__122__compressed_pair_elemIP7GCanvasLi0ELb0EE5__getB8ue170006Ev, symObjAddr: 0x1918, symBinAddr: 0x100044600, symSize: 0x14 }
  - { offsetInCU: 0x4F71, offset: 0x757A6, size: 0x8, addend: 0x0, symName: __ZNSt3__110unique_ptrI7GCanvasNS_14default_deleteIS1_EEED2B8ue170006Ev, symObjAddr: 0x192C, symBinAddr: 0x100044614, symSize: 0x30 }
  - { offsetInCU: 0x4F9A, offset: 0x757CF, size: 0x8, addend: 0x0, symName: __ZNSt3__110unique_ptrI7GCanvasNS_14default_deleteIS1_EEE5resetB8ue170006EPS1_, symObjAddr: 0x195C, symBinAddr: 0x100044644, symSize: 0x78 }
  - { offsetInCU: 0x4FDE, offset: 0x75813, size: 0x8, addend: 0x0, symName: __ZNSt3__117__compressed_pairIP7GCanvasNS_14default_deleteIS1_EEE5firstB8ue170006Ev, symObjAddr: 0x19D4, symBinAddr: 0x1000446BC, symSize: 0x24 }
  - { offsetInCU: 0x5002, offset: 0x75837, size: 0x8, addend: 0x0, symName: __ZNSt3__117__compressed_pairIP7GCanvasNS_14default_deleteIS1_EEE6secondB8ue170006Ev, symObjAddr: 0x19F8, symBinAddr: 0x1000446E0, symSize: 0x24 }
  - { offsetInCU: 0x5026, offset: 0x7585B, size: 0x8, addend: 0x0, symName: __ZNKSt3__114default_deleteI7GCanvasEclB8ue170006EPS1_, symObjAddr: 0x1A1C, symBinAddr: 0x100044704, symSize: 0x4C }
  - { offsetInCU: 0x5058, offset: 0x7588D, size: 0x8, addend: 0x0, symName: __ZNSt3__122__compressed_pair_elemIP7GCanvasLi0ELb0EE5__getB8ue170006Ev, symObjAddr: 0x1A68, symBinAddr: 0x100044750, symSize: 0x14 }
  - { offsetInCU: 0x507C, offset: 0x758B1, size: 0x8, addend: 0x0, symName: __ZNSt3__122__compressed_pair_elemINS_14default_deleteI7GCanvasEELi1ELb1EE5__getB8ue170006Ev, symObjAddr: 0x1A7C, symBinAddr: 0x100044764, symSize: 0x14 }
  - { offsetInCU: 0x50A0, offset: 0x758D5, size: 0x8, addend: 0x0, symName: __ZL10pixel_diffjj, symObjAddr: 0x1AC0, symBinAddr: 0x100044778, symSize: 0x104 }
  - { offsetInCU: 0x5112, offset: 0x75947, size: 0x8, addend: 0x0, symName: __ZL11GPixel_GetAj, symObjAddr: 0x1C08, symBinAddr: 0x10004487C, symSize: 0x1C }
  - { offsetInCU: 0x513E, offset: 0x75973, size: 0x8, addend: 0x0, symName: __ZL11GPixel_GetRj, symObjAddr: 0x1C24, symBinAddr: 0x100044898, symSize: 0x1C }
  - { offsetInCU: 0x516A, offset: 0x7599F, size: 0x8, addend: 0x0, symName: __ZL11GPixel_GetGj, symObjAddr: 0x1C40, symBinAddr: 0x1000448B4, symSize: 0x1C }
  - { offsetInCU: 0x5196, offset: 0x759CB, size: 0x8, addend: 0x0, symName: __ZL11GPixel_GetBj, symObjAddr: 0x1C5C, symBinAddr: 0x1000448D0, symSize: 0x1C }
  - { offsetInCU: 0x51C2, offset: 0x759F7, size: 0x8, addend: 0x0, symName: __ZL15GPixel_PackARGBjjjj, symObjAddr: 0x1E48, symBinAddr: 0x1000448EC, symSize: 0x134 }
  - { offsetInCU: 0x5218, offset: 0x75A4D, size: 0x8, addend: 0x0, symName: __ZL9add_imageP7__sFILEPKcS2_S2_RK7GBitmap, symObjAddr: 0x1F7C, symBinAddr: 0x100044A20, symSize: 0x160 }
  - { offsetInCU: 0x5294, offset: 0x75AC9, size: 0x8, addend: 0x0, symName: __ZNSt3__112basic_stringIcNS_11char_traitsIcEENS_9allocatorIcEEEpLB8ue170006ERKS5_, symObjAddr: 0x20DC, symBinAddr: 0x100044B80, symSize: 0x2C }
  - { offsetInCU: 0x52C8, offset: 0x75AFD, size: 0x8, addend: 0x0, symName: __ZNSt3__112basic_stringIcNS_11char_traitsIcEENS_9allocatorIcEEE6appendB8ue170006ERKS5_, symObjAddr: 0x2108, symBinAddr: 0x100044BAC, symSize: 0x4C }
  - { offsetInCU: 0x52FC, offset: 0x75B31, size: 0x8, addend: 0x0, symName: __ZNKSt3__112basic_stringIcNS_11char_traitsIcEENS_9allocatorIcEEE4sizeB8ue170006Ev, symObjAddr: 0x217C, symBinAddr: 0x100044BF8, symSize: 0x54 }
  - { offsetInCU: 0x5320, offset: 0x75B55, size: 0x8, addend: 0x0, symName: __ZNKSt3__112basic_stringIcNS_11char_traitsIcEENS_9allocatorIcEEE15__get_long_sizeB8ue170006Ev, symObjAddr: 0x230C, symBinAddr: 0x100044C4C, symSize: 0x28 }
  - { offsetInCU: 0x5344, offset: 0x75B79, size: 0x8, addend: 0x0, symName: __ZNKSt3__112basic_stringIcNS_11char_traitsIcEENS_9allocatorIcEEE16__get_short_sizeB8ue170006Ev, symObjAddr: 0x2334, symBinAddr: 0x100044C74, symSize: 0x34 }
  - { offsetInCU: 0x5368, offset: 0x75B9D, size: 0x8, addend: 0x0, symName: __ZNSt3__112basic_stringIcNS_11char_traitsIcEENS_9allocatorIcEEEC2B8ue170006Ev, symObjAddr: 0x2570, symBinAddr: 0x100044CA8, symSize: 0x48 }
  - { offsetInCU: 0x5391, offset: 0x75BC6, size: 0x8, addend: 0x0, symName: __ZNSt3__112basic_stringIcNS_11char_traitsIcEENS_9allocatorIcEEE14__default_initB8ue170006Ev, symObjAddr: 0x25B8, symBinAddr: 0x100044CF0, symSize: 0x40 }
  - { offsetInCU: 0x53B5, offset: 0x75BEA, size: 0x8, addend: 0x0, symName: __ZNSt3__117__compressed_pairINS_12basic_stringIcNS_11char_traitsIcEENS_9allocatorIcEEE5__repES5_E5firstB8ue170006Ev, symObjAddr: 0x25F8, symBinAddr: 0x100044D30, symSize: 0x24 }
  - { offsetInCU: 0x53D9, offset: 0x75C0E, size: 0x8, addend: 0x0, symName: __ZNSt3__122__compressed_pair_elemINS_12basic_stringIcNS_11char_traitsIcEENS_9allocatorIcEEE5__repELi0ELb0EE5__getB8ue170006Ev, symObjAddr: 0x261C, symBinAddr: 0x100044D54, symSize: 0x14 }
  - { offsetInCU: 0x6E, offset: 0x75D36, size: 0x8, addend: 0x0, symName: _gDrawRecs, symObjAddr: 0x8C68, symBinAddr: 0x100050D18, symSize: 0x0 }
  - { offsetInCU: 0x18FE, offset: 0x775C6, size: 0x8, addend: 0x0, symName: __ZNSt3__119piecewise_constructE, symObjAddr: 0x9015, symBinAddr: 0x10004E345, symSize: 0x0 }
  - { offsetInCU: 0x29E8, offset: 0x786B0, size: 0x8, addend: 0x0, symName: __ZNSt3__110__function10__not_nullB8ue170006IZNK3Rec4drawEP7GCanvasP6GFinalEUlR12GPathBuilderE_EEbRKT_, symObjAddr: 0x257C, symBinAddr: 0x100046B1C, symSize: 0x18 }
  - { offsetInCU: 0x2A1B, offset: 0x786E3, size: 0x8, addend: 0x0, symName: '__ZNSt3__110__function10__not_nullB8ue170006IZL13final_voronoiP7GCanvasE3$_0EEbRKT_', symObjAddr: 0x58D8, symBinAddr: 0x100049150, symSize: 0x18 }
  - { offsetInCU: 0x4FDD, offset: 0x7ACA5, size: 0x8, addend: 0x0, symName: __ZNSt3__125__throw_bad_function_callB8ue170006Ev, symObjAddr: 0x1C0C, symBinAddr: 0x1000467F0, symSize: 0x38 }
  - { offsetInCU: 0x5193, offset: 0x7AE5B, size: 0x8, addend: 0x0, symName: __ZNSt3__116forward_as_tupleB8ue170006IJZNK3Rec4drawEP7GCanvasP6GFinalEUlR12GPathBuilderE_EEENS_5tupleIJDpOT_EEESC_, symObjAddr: 0x2AFC, symBinAddr: 0x10004709C, symSize: 0x2C }
  - { offsetInCU: 0x51CD, offset: 0x7AE95, size: 0x8, addend: 0x0, symName: __ZNSt3__116forward_as_tupleB8ue170006IJNS_9allocatorIZNK3Rec4drawEP7GCanvasP6GFinalEUlR12GPathBuilderE_EEEEENS_5tupleIJDpOT_EEESE_, symObjAddr: 0x2B28, symBinAddr: 0x1000470C8, symSize: 0x2C }
  - { offsetInCU: 0x524C, offset: 0x7AF14, size: 0x8, addend: 0x0, symName: __ZNSt3__13getB8ue170006ILm0EJOZNK3Rec4drawEP7GCanvasP6GFinalEUlR12GPathBuilderE_EEERNS_13tuple_elementIXT_ENS_5tupleIJDpT0_EEEE4typeERSE_, symObjAddr: 0x2E40, symBinAddr: 0x1000473E0, symSize: 0x24 }
  - { offsetInCU: 0x528E, offset: 0x7AF56, size: 0x8, addend: 0x0, symName: __ZNSt3__13getB8ue170006ILm0EJONS_9allocatorIZNK3Rec4drawEP7GCanvasP6GFinalEUlR12GPathBuilderE_EEEEERNS_13tuple_elementIXT_ENS_5tupleIJDpT0_EEEE4typeERSG_, symObjAddr: 0x2E7C, symBinAddr: 0x10004741C, symSize: 0x24 }
  - { offsetInCU: 0x57B4, offset: 0x7B47C, size: 0x8, addend: 0x0, symName: __ZNSt3__116forward_as_tupleB8ue170006IJRKZNK3Rec4drawEP7GCanvasP6GFinalEUlR12GPathBuilderE_EEENS_5tupleIJDpOT_EEESE_, symObjAddr: 0x34F4, symBinAddr: 0x1000479B0, symSize: 0x2C }
  - { offsetInCU: 0x5803, offset: 0x7B4CB, size: 0x8, addend: 0x0, symName: __ZNSt3__13getB8ue170006ILm0EJRKZNK3Rec4drawEP7GCanvasP6GFinalEUlR12GPathBuilderE_EEERNS_13tuple_elementIXT_ENS_5tupleIJDpT0_EEEE4typeERSF_, symObjAddr: 0x36E4, symBinAddr: 0x100047BA0, symSize: 0x24 }
  - { offsetInCU: 0x5845, offset: 0x7B50D, size: 0x8, addend: 0x0, symName: __ZNSt3__116forward_as_tupleB8ue170006IJRKNS_9allocatorIZNK3Rec4drawEP7GCanvasP6GFinalEUlR12GPathBuilderE_EEEEENS_5tupleIJDpOT_EEESG_, symObjAddr: 0x3A40, symBinAddr: 0x100047EFC, symSize: 0x2C }
  - { offsetInCU: 0x5894, offset: 0x7B55C, size: 0x8, addend: 0x0, symName: __ZNSt3__13getB8ue170006ILm0EJRKNS_9allocatorIZNK3Rec4drawEP7GCanvasP6GFinalEUlR12GPathBuilderE_EEEEERNS_13tuple_elementIXT_ENS_5tupleIJDpT0_EEEE4typeERSH_, symObjAddr: 0x3C24, symBinAddr: 0x1000480E0, symSize: 0x24 }
  - { offsetInCU: 0x593B, offset: 0x7B603, size: 0x8, addend: 0x0, symName: __ZNSt3__18__invokeB8ue170006IRZNK3Rec4drawEP7GCanvasP6GFinalEUlR12GPathBuilderE_JS7_EEEDTclclsr3stdE7declvalIT_EEspclsr3stdE7declvalIT0_EEEEOSA_DpOSB_, symObjAddr: 0x3CF0, symBinAddr: 0x1000481AC, symSize: 0x2C }
  - { offsetInCU: 0x5AF8, offset: 0x7B7C0, size: 0x8, addend: 0x0, symName: '__ZNSt3__116forward_as_tupleB8ue170006IJZL13final_voronoiP7GCanvasE3$_0EEENS_5tupleIJDpOT_EEES7_', symObjAddr: 0x5E00, symBinAddr: 0x100049678, symSize: 0x2C }
  - { offsetInCU: 0x5B33, offset: 0x7B7FB, size: 0x8, addend: 0x0, symName: '__ZNSt3__116forward_as_tupleB8ue170006IJNS_9allocatorIZL13final_voronoiP7GCanvasE3$_0EEEEENS_5tupleIJDpOT_EEES9_', symObjAddr: 0x5E2C, symBinAddr: 0x1000496A4, symSize: 0x2C }
  - { offsetInCU: 0x5B98, offset: 0x7B860, size: 0x8, addend: 0x0, symName: '__ZNSt3__13getB8ue170006ILm0EJOZL13final_voronoiP7GCanvasE3$_0EEERNS_13tuple_elementIXT_ENS_5tupleIJDpT0_EEEE4typeERS9_', symObjAddr: 0x6138, symBinAddr: 0x1000499B0, symSize: 0x24 }
  - { offsetInCU: 0x5BDB, offset: 0x7B8A3, size: 0x8, addend: 0x0, symName: '__ZNSt3__13getB8ue170006ILm0EJONS_9allocatorIZL13final_voronoiP7GCanvasE3$_0EEEEERNS_13tuple_elementIXT_ENS_5tupleIJDpT0_EEEE4typeERSB_', symObjAddr: 0x6174, symBinAddr: 0x1000499EC, symSize: 0x24 }
  - { offsetInCU: 0x6127, offset: 0x7BDEF, size: 0x8, addend: 0x0, symName: '__ZNSt3__116forward_as_tupleB8ue170006IJRKZL13final_voronoiP7GCanvasE3$_0EEENS_5tupleIJDpOT_EEES9_', symObjAddr: 0x6708, symBinAddr: 0x100049F80, symSize: 0x2C }
  - { offsetInCU: 0x6177, offset: 0x7BE3F, size: 0x8, addend: 0x0, symName: '__ZNSt3__13getB8ue170006ILm0EJRKZL13final_voronoiP7GCanvasE3$_0EEERNS_13tuple_elementIXT_ENS_5tupleIJDpT0_EEEE4typeERSA_', symObjAddr: 0x68EC, symBinAddr: 0x10004A164, symSize: 0x24 }
  - { offsetInCU: 0x61BA, offset: 0x7BE82, size: 0x8, addend: 0x0, symName: '__ZNSt3__116forward_as_tupleB8ue170006IJRKNS_9allocatorIZL13final_voronoiP7GCanvasE3$_0EEEEENS_5tupleIJDpOT_EEESB_', symObjAddr: 0x6C48, symBinAddr: 0x10004A4C0, symSize: 0x2C }
  - { offsetInCU: 0x620A, offset: 0x7BED2, size: 0x8, addend: 0x0, symName: '__ZNSt3__13getB8ue170006ILm0EJRKNS_9allocatorIZL13final_voronoiP7GCanvasE3$_0EEEEERNS_13tuple_elementIXT_ENS_5tupleIJDpT0_EEEE4typeERSC_', symObjAddr: 0x6E2C, symBinAddr: 0x10004A6A4, symSize: 0x24 }
  - { offsetInCU: 0x624D, offset: 0x7BF15, size: 0x8, addend: 0x0, symName: '__ZNSt3__18__invokeB8ue170006IRZL13final_voronoiP7GCanvasE3$_0JR12GPathBuilderEEEDTclclsr3stdE7declvalIT_EEspclsr3stdE7declvalIT0_EEEEOS7_DpOS8_', symObjAddr: 0x6EF8, symBinAddr: 0x10004A770, symSize: 0x2C }
  - { offsetInCU: 0x666A, offset: 0x7C332, size: 0x8, addend: 0x0, symName: __ZNK3Rec4drawEP7GCanvasP6GFinal, symObjAddr: 0x1534, symBinAddr: 0x100046244, symSize: 0x1C0 }
  - { offsetInCU: 0x6B62, offset: 0x7C82A, size: 0x8, addend: 0x0, symName: __ZL13final_voronoiP7GCanvas, symObjAddr: 0x103C, symBinAddr: 0x100045D4C, symSize: 0x38C }
  - { offsetInCU: 0x8C92, offset: 0x7E95A, size: 0x8, addend: 0x0, symName: __Z11make_wiggleff, symObjAddr: 0x0, symBinAddr: 0x100044D68, symSize: 0x124 }
  - { offsetInCU: 0x8D14, offset: 0x7E9DC, size: 0x8, addend: 0x0, symName: __ZNSt3__16vectorI6GPointNS_9allocatorIS1_EEE9push_backB8ue170006EOS1_, symObjAddr: 0x150, symBinAddr: 0x100044E8C, symSize: 0x6C }
  - { offsetInCU: 0x8D4B, offset: 0x7EA13, size: 0x8, addend: 0x0, symName: __Z3sinB8ue170006f, symObjAddr: 0x1BC, symBinAddr: 0x100044EF8, symSize: 0x24 }
  - { offsetInCU: 0x8D7A, offset: 0x7EA42, size: 0x8, addend: 0x0, symName: __ZL11final_sweepP7GCanvas, symObjAddr: 0x20C, symBinAddr: 0x100044F1C, symSize: 0x250 }
  - { offsetInCU: 0x8E2C, offset: 0x7EAF4, size: 0x8, addend: 0x0, symName: __ZL11final_coonsP7GCanvas, symObjAddr: 0x45C, symBinAddr: 0x10004516C, symSize: 0x2A0 }
  - { offsetInCU: 0x8EAF, offset: 0x7EB77, size: 0x8, addend: 0x0, symName: __ZL16final_colormarixP7GCanvas, symObjAddr: 0x6FC, symBinAddr: 0x10004540C, symSize: 0x350 }
  - { offsetInCU: 0x901D, offset: 0x7ECE5, size: 0x8, addend: 0x0, symName: __ZL12final_strokeP7GCanvas, symObjAddr: 0xA4C, symBinAddr: 0x10004575C, symSize: 0x5F0 }
  - { offsetInCU: 0x90BC, offset: 0x7ED84, size: 0x8, addend: 0x0, symName: __ZL15final_linearposP7GCanvas, symObjAddr: 0x13C8, symBinAddr: 0x1000460D8, symSize: 0x16C }
  - { offsetInCU: 0x9220, offset: 0x7EEE8, size: 0x8, addend: 0x0, symName: __ZNKSt3__110unique_ptrI6GFinalNS_14default_deleteIS1_EEE3getB8ue170006Ev, symObjAddr: 0x16F4, symBinAddr: 0x100046404, symSize: 0x28 }
  - { offsetInCU: 0x9244, offset: 0x7EF0C, size: 0x8, addend: 0x0, symName: __ZNSt3__110unique_ptrI6GFinalNS_14default_deleteIS1_EEED1B8ue170006Ev, symObjAddr: 0x171C, symBinAddr: 0x10004642C, symSize: 0x2C }
  - { offsetInCU: 0x926D, offset: 0x7EF35, size: 0x8, addend: 0x0, symName: __ZNKSt3__110shared_ptrI7GShaderEcvbB8ue170006Ev, symObjAddr: 0x1748, symBinAddr: 0x100046458, symSize: 0x30 }
  - { offsetInCU: 0x9291, offset: 0x7EF59, size: 0x8, addend: 0x0, symName: __ZN12GPathBuilder5BuildENSt3__18functionIFvRS_EEE, symObjAddr: 0x1778, symBinAddr: 0x100046488, symSize: 0x7C }
  - { offsetInCU: 0x92C3, offset: 0x7EF8B, size: 0x8, addend: 0x0, symName: __ZNSt3__18functionIFvR12GPathBuilderEEC1IZNK3Rec4drawEP7GCanvasP6GFinalEUlS2_E_vEET_, symObjAddr: 0x17F4, symBinAddr: 0x100046504, symSize: 0x34 }
  - { offsetInCU: 0x9308, offset: 0x7EFD0, size: 0x8, addend: 0x0, symName: __ZNSt3__18functionIFvR12GPathBuilderEED1Ev, symObjAddr: 0x1828, symBinAddr: 0x100046538, symSize: 0x2C }
  - { offsetInCU: 0x9333, offset: 0x7EFFB, size: 0x8, addend: 0x0, symName: __ZNKSt3__110shared_ptrI5GPathEdeB8ue170006Ev, symObjAddr: 0x1854, symBinAddr: 0x100046564, symSize: 0x18 }
  - { offsetInCU: 0x9357, offset: 0x7F01F, size: 0x8, addend: 0x0, symName: __ZN12GPathBuilderC1Ev, symObjAddr: 0x1970, symBinAddr: 0x10004657C, symSize: 0x2C }
  - { offsetInCU: 0x9380, offset: 0x7F048, size: 0x8, addend: 0x0, symName: __ZNKSt3__18functionIFvR12GPathBuilderEEclES2_, symObjAddr: 0x199C, symBinAddr: 0x1000465A8, symSize: 0x2C }
  - { offsetInCU: 0x93B7, offset: 0x7F07F, size: 0x8, addend: 0x0, symName: __ZN12GPathBuilderD1Ev, symObjAddr: 0x19C8, symBinAddr: 0x1000465D4, symSize: 0x2C }
  - { offsetInCU: 0x93E2, offset: 0x7F0AA, size: 0x8, addend: 0x0, symName: __ZN12GPathBuilderC2Ev, symObjAddr: 0x19F4, symBinAddr: 0x100046600, symSize: 0x38 }
  - { offsetInCU: 0x940B, offset: 0x7F0D3, size: 0x8, addend: 0x0, symName: __ZNSt3__16vectorI9GPathVerbNS_9allocatorIS1_EEEC1B8ue170006Ev, symObjAddr: 0x1A2C, symBinAddr: 0x100046638, symSize: 0x2C }
  - { offsetInCU: 0x9434, offset: 0x7F0FC, size: 0x8, addend: 0x0, symName: __ZNSt3__16vectorI9GPathVerbNS_9allocatorIS1_EEEC2B8ue170006Ev, symObjAddr: 0x1A58, symBinAddr: 0x100046664, symSize: 0x4C }
  - { offsetInCU: 0x9469, offset: 0x7F131, size: 0x8, addend: 0x0, symName: __ZNSt3__117__compressed_pairIP9GPathVerbNS_9allocatorIS1_EEEC1B8ue170006IDnNS_18__default_init_tagEEEOT_OT0_, symObjAddr: 0x1AA4, symBinAddr: 0x1000466B0, symSize: 0x3C }
  - { offsetInCU: 0x94C0, offset: 0x7F188, size: 0x8, addend: 0x0, symName: __ZNSt3__117__compressed_pairIP9GPathVerbNS_9allocatorIS1_EEEC2B8ue170006IDnNS_18__default_init_tagEEEOT_OT0_, symObjAddr: 0x1AEC, symBinAddr: 0x1000466EC, symSize: 0x40 }
  - { offsetInCU: 0x9517, offset: 0x7F1DF, size: 0x8, addend: 0x0, symName: __ZNSt3__122__compressed_pair_elemINS_9allocatorI9GPathVerbEELi1ELb1EEC2B8ue170006ENS_18__default_init_tagE, symObjAddr: 0x1B48, symBinAddr: 0x10004672C, symSize: 0x2C }
  - { offsetInCU: 0x954B, offset: 0x7F213, size: 0x8, addend: 0x0, symName: __ZNSt3__19allocatorI9GPathVerbEC2B8ue170006Ev, symObjAddr: 0x1B74, symBinAddr: 0x100046758, symSize: 0x2C }
  - { offsetInCU: 0x9574, offset: 0x7F23C, size: 0x8, addend: 0x0, symName: __ZNSt3__116__non_trivial_ifILb1ENS_9allocatorI9GPathVerbEEEC2B8ue170006Ev, symObjAddr: 0x1BA0, symBinAddr: 0x100046784, symSize: 0x14 }
  - { offsetInCU: 0x959D, offset: 0x7F265, size: 0x8, addend: 0x0, symName: __ZNKSt3__110__function12__value_funcIFvR12GPathBuilderEEclB8ue170006ES3_, symObjAddr: 0x1BB4, symBinAddr: 0x100046798, symSize: 0x58 }
  - { offsetInCU: 0x95D6, offset: 0x7F29E, size: 0x8, addend: 0x0, symName: __ZNSt3__117bad_function_callC1Ev, symObjAddr: 0x1C44, symBinAddr: 0x100046828, symSize: 0x2C }
  - { offsetInCU: 0x9601, offset: 0x7F2C9, size: 0x8, addend: 0x0, symName: __ZNSt3__117bad_function_callD1Ev, symObjAddr: 0x1C70, symBinAddr: 0x100046854, symSize: 0x2C }
  - { offsetInCU: 0x962A, offset: 0x7F2F2, size: 0x8, addend: 0x0, symName: __ZNSt3__117bad_function_callC2Ev, symObjAddr: 0x1C9C, symBinAddr: 0x100046880, symSize: 0x44 }
  - { offsetInCU: 0x9655, offset: 0x7F31D, size: 0x8, addend: 0x0, symName: __ZNSt3__117bad_function_callD0Ev, symObjAddr: 0x1D04, symBinAddr: 0x1000468C4, symSize: 0x30 }
  - { offsetInCU: 0x967E, offset: 0x7F346, size: 0x8, addend: 0x0, symName: __ZNSt3__117bad_function_callD2Ev, symObjAddr: 0x1D34, symBinAddr: 0x1000468F4, symSize: 0x2C }
  - { offsetInCU: 0x96A7, offset: 0x7F36F, size: 0x8, addend: 0x0, symName: __ZN12GPathBuilderD2Ev, symObjAddr: 0x1D60, symBinAddr: 0x100046920, symSize: 0x38 }
  - { offsetInCU: 0x96D2, offset: 0x7F39A, size: 0x8, addend: 0x0, symName: __ZNSt3__18functionIFvR12GPathBuilderEEC2IZNK3Rec4drawEP7GCanvasP6GFinalEUlS2_E_vEET_, symObjAddr: 0x23B8, symBinAddr: 0x100046958, symSize: 0x38 }
  - { offsetInCU: 0x9717, offset: 0x7F3DF, size: 0x8, addend: 0x0, symName: __ZNSt3__110__function12__value_funcIFvR12GPathBuilderEEC1B8ue170006IZNK3Rec4drawEP7GCanvasP6GFinalEUlS3_E_vEEOT_, symObjAddr: 0x23F0, symBinAddr: 0x100046990, symSize: 0x50 }
  - { offsetInCU: 0x975A, offset: 0x7F422, size: 0x8, addend: 0x0, symName: __ZNSt3__19allocatorIZNK3Rec4drawEP7GCanvasP6GFinalEUlR12GPathBuilderE_EC1B8ue170006Ev, symObjAddr: 0x2440, symBinAddr: 0x1000469E0, symSize: 0x2C }
  - { offsetInCU: 0x9783, offset: 0x7F44B, size: 0x8, addend: 0x0, symName: __ZNSt3__110__function12__value_funcIFvR12GPathBuilderEEC1B8ue170006IZNK3Rec4drawEP7GCanvasP6GFinalEUlS3_E_NS_9allocatorISC_EEEEOT_RKT0_, symObjAddr: 0x246C, symBinAddr: 0x100046A0C, symSize: 0x3C }
  - { offsetInCU: 0x97DE, offset: 0x7F4A6, size: 0x8, addend: 0x0, symName: __ZNSt3__19allocatorIZNK3Rec4drawEP7GCanvasP6GFinalEUlR12GPathBuilderE_EC2B8ue170006Ev, symObjAddr: 0x24A8, symBinAddr: 0x100046A48, symSize: 0x2C }
  - { offsetInCU: 0x9807, offset: 0x7F4CF, size: 0x8, addend: 0x0, symName: __ZNSt3__116__non_trivial_ifILb1ENS_9allocatorIZNK3Rec4drawEP7GCanvasP6GFinalEUlR12GPathBuilderE_EEEC2B8ue170006Ev, symObjAddr: 0x24D4, symBinAddr: 0x100046A74, symSize: 0x14 }
  - { offsetInCU: 0x9830, offset: 0x7F4F8, size: 0x8, addend: 0x0, symName: __ZNSt3__110__function12__value_funcIFvR12GPathBuilderEEC2B8ue170006IZNK3Rec4drawEP7GCanvasP6GFinalEUlS3_E_NS_9allocatorISC_EEEEOT_RKT0_, symObjAddr: 0x24E8, symBinAddr: 0x100046A88, symSize: 0x94 }
  - { offsetInCU: 0x98D8, offset: 0x7F5A0, size: 0x8, addend: 0x0, symName: __ZNSt3__19allocatorINS_10__function6__funcIZNK3Rec4drawEP7GCanvasP6GFinalEUlR12GPathBuilderE_NS0_ISA_EEFvS9_EEEEC1B8ue170006ISA_EERKNS0_IT_EE, symObjAddr: 0x2594, symBinAddr: 0x100046B34, symSize: 0x34 }
  - { offsetInCU: 0x991A, offset: 0x7F5E2, size: 0x8, addend: 0x0, symName: __ZNSt3__19allocatorIZNK3Rec4drawEP7GCanvasP6GFinalEUlR12GPathBuilderE_EC1B8ue170006INS_10__function6__funcIS8_S9_FvS7_EEEEERKNS0_IT_EE, symObjAddr: 0x25C8, symBinAddr: 0x100046B68, symSize: 0x34 }
  - { offsetInCU: 0x9957, offset: 0x7F61F, size: 0x8, addend: 0x0, symName: __ZNSt3__110__function6__funcIZNK3Rec4drawEP7GCanvasP6GFinalEUlR12GPathBuilderE_NS_9allocatorIS9_EEFvS8_EEC1B8ue170006EOS9_OSB_, symObjAddr: 0x25FC, symBinAddr: 0x100046B9C, symSize: 0x3C }
  - { offsetInCU: 0x99A0, offset: 0x7F668, size: 0x8, addend: 0x0, symName: __ZNSt3__19allocatorINS_10__function6__funcIZNK3Rec4drawEP7GCanvasP6GFinalEUlR12GPathBuilderE_NS0_ISA_EEFvS9_EEEEC2B8ue170006ISA_EERKNS0_IT_EE, symObjAddr: 0x2638, symBinAddr: 0x100046BD8, symSize: 0x30 }
  - { offsetInCU: 0x99DD, offset: 0x7F6A5, size: 0x8, addend: 0x0, symName: __ZNSt3__116__non_trivial_ifILb1ENS_9allocatorINS_10__function6__funcIZNK3Rec4drawEP7GCanvasP6GFinalEUlR12GPathBuilderE_NS1_ISB_EEFvSA_EEEEEEC2B8ue170006Ev, symObjAddr: 0x2668, symBinAddr: 0x100046C08, symSize: 0x14 }
  - { offsetInCU: 0x9A06, offset: 0x7F6CE, size: 0x8, addend: 0x0, symName: __ZNSt3__19allocatorIZNK3Rec4drawEP7GCanvasP6GFinalEUlR12GPathBuilderE_EC2B8ue170006INS_10__function6__funcIS8_S9_FvS7_EEEEERKNS0_IT_EE, symObjAddr: 0x267C, symBinAddr: 0x100046C1C, symSize: 0x30 }
  - { offsetInCU: 0x9A43, offset: 0x7F70B, size: 0x8, addend: 0x0, symName: __ZNSt3__110__function6__funcIZNK3Rec4drawEP7GCanvasP6GFinalEUlR12GPathBuilderE_NS_9allocatorIS9_EEFvS8_EEC2B8ue170006EOS9_OSB_, symObjAddr: 0x26AC, symBinAddr: 0x100046C4C, symSize: 0x88 }
  - { offsetInCU: 0x9A8C, offset: 0x7F754, size: 0x8, addend: 0x0, symName: __ZNSt3__110__function6__baseIFvR12GPathBuilderEEC2B8ue170006Ev, symObjAddr: 0x2734, symBinAddr: 0x100046CD4, symSize: 0x24 }
  - { offsetInCU: 0x9AB5, offset: 0x7F77D, size: 0x8, addend: 0x0, symName: __ZNSt3__110__function12__alloc_funcIZNK3Rec4drawEP7GCanvasP6GFinalEUlR12GPathBuilderE_NS_9allocatorIS9_EEFvS8_EEC1B8ue170006EOS9_OSB_, symObjAddr: 0x2758, symBinAddr: 0x100046CF8, symSize: 0x3C }
  - { offsetInCU: 0x9AFA, offset: 0x7F7C2, size: 0x8, addend: 0x0, symName: __ZNSt3__110__function6__baseIFvR12GPathBuilderEED2Ev, symObjAddr: 0x2794, symBinAddr: 0x100046D34, symSize: 0x14 }
  - { offsetInCU: 0x9B23, offset: 0x7F7EB, size: 0x8, addend: 0x0, symName: __ZNSt3__110__function6__funcIZNK3Rec4drawEP7GCanvasP6GFinalEUlR12GPathBuilderE_NS_9allocatorIS9_EEFvS8_EED1Ev, symObjAddr: 0x27A8, symBinAddr: 0x100046D48, symSize: 0x2C }
  - { offsetInCU: 0x9B4F, offset: 0x7F817, size: 0x8, addend: 0x0, symName: __ZNSt3__110__function6__funcIZNK3Rec4drawEP7GCanvasP6GFinalEUlR12GPathBuilderE_NS_9allocatorIS9_EEFvS8_EED0Ev, symObjAddr: 0x27D4, symBinAddr: 0x100046D74, symSize: 0x30 }
  - { offsetInCU: 0x9B7B, offset: 0x7F843, size: 0x8, addend: 0x0, symName: __ZNKSt3__110__function6__funcIZNK3Rec4drawEP7GCanvasP6GFinalEUlR12GPathBuilderE_NS_9allocatorIS9_EEFvS8_EE7__cloneEv, symObjAddr: 0x2804, symBinAddr: 0x100046DA4, symSize: 0xFC }
  - { offsetInCU: 0x9BCE, offset: 0x7F896, size: 0x8, addend: 0x0, symName: __ZNKSt3__110__function6__funcIZNK3Rec4drawEP7GCanvasP6GFinalEUlR12GPathBuilderE_NS_9allocatorIS9_EEFvS8_EE7__cloneEPNS0_6__baseISC_EE, symObjAddr: 0x2900, symBinAddr: 0x100046EA0, symSize: 0x58 }
  - { offsetInCU: 0x9C05, offset: 0x7F8CD, size: 0x8, addend: 0x0, symName: __ZNSt3__110__function6__funcIZNK3Rec4drawEP7GCanvasP6GFinalEUlR12GPathBuilderE_NS_9allocatorIS9_EEFvS8_EE7destroyEv, symObjAddr: 0x2958, symBinAddr: 0x100046EF8, symSize: 0x28 }
  - { offsetInCU: 0x9C2C, offset: 0x7F8F4, size: 0x8, addend: 0x0, symName: __ZNSt3__110__function6__funcIZNK3Rec4drawEP7GCanvasP6GFinalEUlR12GPathBuilderE_NS_9allocatorIS9_EEFvS8_EE18destroy_deallocateEv, symObjAddr: 0x2980, symBinAddr: 0x100046F20, symSize: 0x58 }
  - { offsetInCU: 0x9C6F, offset: 0x7F937, size: 0x8, addend: 0x0, symName: __ZNSt3__110__function6__funcIZNK3Rec4drawEP7GCanvasP6GFinalEUlR12GPathBuilderE_NS_9allocatorIS9_EEFvS8_EEclES8_, symObjAddr: 0x29D8, symBinAddr: 0x100046F78, symSize: 0x30 }
  - { offsetInCU: 0x9CA6, offset: 0x7F96E, size: 0x8, addend: 0x0, symName: __ZNKSt3__110__function6__funcIZNK3Rec4drawEP7GCanvasP6GFinalEUlR12GPathBuilderE_NS_9allocatorIS9_EEFvS8_EE6targetERKSt9type_info, symObjAddr: 0x2A08, symBinAddr: 0x100046FA8, symSize: 0x60 }
  - { offsetInCU: 0x9CDD, offset: 0x7F9A5, size: 0x8, addend: 0x0, symName: __ZNKSt3__110__function6__funcIZNK3Rec4drawEP7GCanvasP6GFinalEUlR12GPathBuilderE_NS_9allocatorIS9_EEFvS8_EE11target_typeEv, symObjAddr: 0x2A68, symBinAddr: 0x100047008, symSize: 0x18 }
  - { offsetInCU: 0x9D04, offset: 0x7F9CC, size: 0x8, addend: 0x0, symName: __ZNSt3__110__function6__baseIFvR12GPathBuilderEED1Ev, symObjAddr: 0x2A80, symBinAddr: 0x100047020, symSize: 0x14 }
  - { offsetInCU: 0x9D2D, offset: 0x7F9F5, size: 0x8, addend: 0x0, symName: __ZNSt3__110__function6__baseIFvR12GPathBuilderEED0Ev, symObjAddr: 0x2A94, symBinAddr: 0x100047034, symSize: 0xC }
  - { offsetInCU: 0x9D56, offset: 0x7FA1E, size: 0x8, addend: 0x0, symName: __ZNSt3__110__function12__alloc_funcIZNK3Rec4drawEP7GCanvasP6GFinalEUlR12GPathBuilderE_NS_9allocatorIS9_EEFvS8_EEC2B8ue170006EOS9_OSB_, symObjAddr: 0x2AA0, symBinAddr: 0x100047040, symSize: 0x5C }
  - { offsetInCU: 0x9D9B, offset: 0x7FA63, size: 0x8, addend: 0x0, symName: __ZNSt3__117__compressed_pairIZNK3Rec4drawEP7GCanvasP6GFinalEUlR12GPathBuilderE_NS_9allocatorIS8_EEEC1B8ue170006IJOS8_EJOSA_EEENS_21piecewise_construct_tENS_5tupleIJDpT_EEENSG_IJDpT0_EEE, symObjAddr: 0x2B54, symBinAddr: 0x1000470F4, symSize: 0x3C }
  - { offsetInCU: 0x9E04, offset: 0x7FACC, size: 0x8, addend: 0x0, symName: __ZNSt3__15tupleIJOZNK3Rec4drawEP7GCanvasP6GFinalEUlR12GPathBuilderE_EEC1B8ue170006IJS8_ELi0EEEDpOT_, symObjAddr: 0x2B90, symBinAddr: 0x100047130, symSize: 0x34 }
  - { offsetInCU: 0x9E4F, offset: 0x7FB17, size: 0x8, addend: 0x0, symName: __ZNSt3__15tupleIJOZNK3Rec4drawEP7GCanvasP6GFinalEUlR12GPathBuilderE_EEC2B8ue170006IJS8_ELi0EEEDpOT_, symObjAddr: 0x2BC4, symBinAddr: 0x100047164, symSize: 0x34 }
  - { offsetInCU: 0x9E9A, offset: 0x7FB62, size: 0x8, addend: 0x0, symName: __ZNSt3__112__tuple_implINS_15__tuple_indicesIJLm0EEEEJOZNK3Rec4drawEP7GCanvasP6GFinalEUlR12GPathBuilderE_EEC1B8ue170006IJLm0EEJSB_EJEJEJSA_EEENS1_IJXspT_EEEENS_13__tuple_typesIJDpT0_EEENS1_IJXspT1_EEEENSF_IJDpT2_EEEDpOT3_, symObjAddr: 0x2BF8, symBinAddr: 0x100047198, symSize: 0x34 }
  - { offsetInCU: 0x9F30, offset: 0x7FBF8, size: 0x8, addend: 0x0, symName: __ZNSt3__112__tuple_implINS_15__tuple_indicesIJLm0EEEEJOZNK3Rec4drawEP7GCanvasP6GFinalEUlR12GPathBuilderE_EEC2B8ue170006IJLm0EEJSB_EJEJEJSA_EEENS1_IJXspT_EEEENS_13__tuple_typesIJDpT0_EEENS1_IJXspT1_EEEENSF_IJDpT2_EEEDpOT3_, symObjAddr: 0x2C2C, symBinAddr: 0x1000471CC, symSize: 0x34 }
  - { offsetInCU: 0x9FC6, offset: 0x7FC8E, size: 0x8, addend: 0x0, symName: __ZNSt3__112__tuple_leafILm0EOZNK3Rec4drawEP7GCanvasP6GFinalEUlR12GPathBuilderE_Lb0EEC2B8ue170006IS8_vEEOT_, symObjAddr: 0x2C60, symBinAddr: 0x100047200, symSize: 0x20 }
  - { offsetInCU: 0xA009, offset: 0x7FCD1, size: 0x8, addend: 0x0, symName: __ZNSt3__15tupleIJONS_9allocatorIZNK3Rec4drawEP7GCanvasP6GFinalEUlR12GPathBuilderE_EEEEC1B8ue170006IJSA_ELi0EEEDpOT_, symObjAddr: 0x2C80, symBinAddr: 0x100047220, symSize: 0x34 }
  - { offsetInCU: 0xA054, offset: 0x7FD1C, size: 0x8, addend: 0x0, symName: __ZNSt3__15tupleIJONS_9allocatorIZNK3Rec4drawEP7GCanvasP6GFinalEUlR12GPathBuilderE_EEEEC2B8ue170006IJSA_ELi0EEEDpOT_, symObjAddr: 0x2CB4, symBinAddr: 0x100047254, symSize: 0x34 }
  - { offsetInCU: 0xA09F, offset: 0x7FD67, size: 0x8, addend: 0x0, symName: __ZNSt3__112__tuple_implINS_15__tuple_indicesIJLm0EEEEJONS_9allocatorIZNK3Rec4drawEP7GCanvasP6GFinalEUlR12GPathBuilderE_EEEEC1B8ue170006IJLm0EEJSD_EJEJEJSC_EEENS1_IJXspT_EEEENS_13__tuple_typesIJDpT0_EEENS1_IJXspT1_EEEENSH_IJDpT2_EEEDpOT3_, symObjAddr: 0x2CE8, symBinAddr: 0x100047288, symSize: 0x34 }
  - { offsetInCU: 0xA135, offset: 0x7FDFD, size: 0x8, addend: 0x0, symName: __ZNSt3__112__tuple_implINS_15__tuple_indicesIJLm0EEEEJONS_9allocatorIZNK3Rec4drawEP7GCanvasP6GFinalEUlR12GPathBuilderE_EEEEC2B8ue170006IJLm0EEJSD_EJEJEJSC_EEENS1_IJXspT_EEEENS_13__tuple_typesIJDpT0_EEENS1_IJXspT1_EEEENSH_IJDpT2_EEEDpOT3_, symObjAddr: 0x2D1C, symBinAddr: 0x1000472BC, symSize: 0x34 }
  - { offsetInCU: 0xA1CB, offset: 0x7FE93, size: 0x8, addend: 0x0, symName: __ZNSt3__112__tuple_leafILm0EONS_9allocatorIZNK3Rec4drawEP7GCanvasP6GFinalEUlR12GPathBuilderE_EELb0EEC2B8ue170006ISA_vEEOT_, symObjAddr: 0x2D50, symBinAddr: 0x1000472F0, symSize: 0x20 }
  - { offsetInCU: 0xA20E, offset: 0x7FED6, size: 0x8, addend: 0x0, symName: __ZNSt3__117__compressed_pairIZNK3Rec4drawEP7GCanvasP6GFinalEUlR12GPathBuilderE_NS_9allocatorIS8_EEEC2B8ue170006IJOS8_EJOSA_EEENS_21piecewise_construct_tENS_5tupleIJDpT_EEENSG_IJDpT0_EEE, symObjAddr: 0x2D70, symBinAddr: 0x100047310, symSize: 0x54 }
  - { offsetInCU: 0xA277, offset: 0x7FF3F, size: 0x8, addend: 0x0, symName: __ZNSt3__122__compressed_pair_elemIZNK3Rec4drawEP7GCanvasP6GFinalEUlR12GPathBuilderE_Li0ELb0EEC2B8ue170006IJOS8_EJLm0EEEENS_21piecewise_construct_tENS_5tupleIJDpT_EEENS_15__tuple_indicesIJXspT0_EEEE, symObjAddr: 0x2DC4, symBinAddr: 0x100047364, symSize: 0x44 }
  - { offsetInCU: 0xA2DC, offset: 0x7FFA4, size: 0x8, addend: 0x0, symName: __ZNSt3__122__compressed_pair_elemINS_9allocatorIZNK3Rec4drawEP7GCanvasP6GFinalEUlR12GPathBuilderE_EELi1ELb1EEC2B8ue170006IJOSA_EJLm0EEEENS_21piecewise_construct_tENS_5tupleIJDpT_EEENS_15__tuple_indicesIJXspT0_EEEE, symObjAddr: 0x2E08, symBinAddr: 0x1000473A8, symSize: 0x38 }
  - { offsetInCU: 0xA341, offset: 0x80009, size: 0x8, addend: 0x0, symName: __ZNSt3__112__tuple_leafILm0EOZNK3Rec4drawEP7GCanvasP6GFinalEUlR12GPathBuilderE_Lb0EE3getB8ue170006Ev, symObjAddr: 0x2E64, symBinAddr: 0x100047404, symSize: 0x18 }
  - { offsetInCU: 0xA365, offset: 0x8002D, size: 0x8, addend: 0x0, symName: __ZNSt3__112__tuple_leafILm0EONS_9allocatorIZNK3Rec4drawEP7GCanvasP6GFinalEUlR12GPathBuilderE_EELb0EE3getB8ue170006Ev, symObjAddr: 0x2EA0, symBinAddr: 0x100047440, symSize: 0x18 }
  - { offsetInCU: 0xA389, offset: 0x80051, size: 0x8, addend: 0x0, symName: __ZNSt3__110__function6__funcIZNK3Rec4drawEP7GCanvasP6GFinalEUlR12GPathBuilderE_NS_9allocatorIS9_EEFvS8_EED2Ev, symObjAddr: 0x2EB8, symBinAddr: 0x100047458, symSize: 0x2C }
  - { offsetInCU: 0xA3B5, offset: 0x8007D, size: 0x8, addend: 0x0, symName: __ZNKSt3__110__function12__alloc_funcIZNK3Rec4drawEP7GCanvasP6GFinalEUlR12GPathBuilderE_NS_9allocatorIS9_EEFvS8_EE15__get_allocatorB8ue170006Ev, symObjAddr: 0x2EE4, symBinAddr: 0x100047484, symSize: 0x24 }
  - { offsetInCU: 0xA3D9, offset: 0x800A1, size: 0x8, addend: 0x0, symName: __ZNSt3__19allocatorINS_10__function6__funcIZNK3Rec4drawEP7GCanvasP6GFinalEUlR12GPathBuilderE_NS0_ISA_EEFvS9_EEEE8allocateB8ue170006Em, symObjAddr: 0x2F08, symBinAddr: 0x1000474A8, symSize: 0x58 }
  - { offsetInCU: 0xA41A, offset: 0x800E2, size: 0x8, addend: 0x0, symName: __ZNSt3__122__allocator_destructorINS_9allocatorINS_10__function6__funcIZNK3Rec4drawEP7GCanvasP6GFinalEUlR12GPathBuilderE_NS1_ISB_EEFvSA_EEEEEEC1B8ue170006ERSF_m, symObjAddr: 0x2F60, symBinAddr: 0x100047500, symSize: 0x3C }
  - { offsetInCU: 0xA4ED, offset: 0x801B5, size: 0x8, addend: 0x0, symName: __ZNSt3__110unique_ptrINS_10__function6__funcIZNK3Rec4drawEP7GCanvasP6GFinalEUlR12GPathBuilderE_NS_9allocatorISA_EEFvS9_EEENS_22__allocator_destructorINSB_ISE_EEEEEC1B8ue170006ILb1EvEEPSE_NS_16__dependent_typeINS_27__unique_ptr_deleter_sfinaeISH_EEXT_EE20__good_rval_ref_typeE, symObjAddr: 0x2F9C, symBinAddr: 0x10004753C, symSize: 0x3C }
  - { offsetInCU: 0xA53D, offset: 0x80205, size: 0x8, addend: 0x0, symName: __ZNKSt3__110unique_ptrINS_10__function6__funcIZNK3Rec4drawEP7GCanvasP6GFinalEUlR12GPathBuilderE_NS_9allocatorISA_EEFvS9_EEENS_22__allocator_destructorINSB_ISE_EEEEE3getB8ue170006Ev, symObjAddr: 0x2FD8, symBinAddr: 0x100047578, symSize: 0x28 }
  - { offsetInCU: 0xA561, offset: 0x80229, size: 0x8, addend: 0x0, symName: __ZNKSt3__110__function12__alloc_funcIZNK3Rec4drawEP7GCanvasP6GFinalEUlR12GPathBuilderE_NS_9allocatorIS9_EEFvS8_EE8__targetB8ue170006Ev, symObjAddr: 0x3000, symBinAddr: 0x1000475A0, symSize: 0x24 }
  - { offsetInCU: 0xA585, offset: 0x8024D, size: 0x8, addend: 0x0, symName: __ZNSt3__110__function6__funcIZNK3Rec4drawEP7GCanvasP6GFinalEUlR12GPathBuilderE_NS_9allocatorIS9_EEFvS8_EEC1B8ue170006ERKS9_OSB_, symObjAddr: 0x3024, symBinAddr: 0x1000475C4, symSize: 0x3C }
  - { offsetInCU: 0xA5CE, offset: 0x80296, size: 0x8, addend: 0x0, symName: __ZNSt3__110unique_ptrINS_10__function6__funcIZNK3Rec4drawEP7GCanvasP6GFinalEUlR12GPathBuilderE_NS_9allocatorISA_EEFvS9_EEENS_22__allocator_destructorINSB_ISE_EEEEE7releaseB8ue170006Ev, symObjAddr: 0x3060, symBinAddr: 0x100047600, symSize: 0x44 }
  - { offsetInCU: 0xA602, offset: 0x802CA, size: 0x8, addend: 0x0, symName: __ZNSt3__110unique_ptrINS_10__function6__funcIZNK3Rec4drawEP7GCanvasP6GFinalEUlR12GPathBuilderE_NS_9allocatorISA_EEFvS9_EEENS_22__allocator_destructorINSB_ISE_EEEEED1B8ue170006Ev, symObjAddr: 0x30A4, symBinAddr: 0x100047644, symSize: 0x2C }
  - { offsetInCU: 0xA62B, offset: 0x802F3, size: 0x8, addend: 0x0, symName: __ZNKSt3__117__compressed_pairIZNK3Rec4drawEP7GCanvasP6GFinalEUlR12GPathBuilderE_NS_9allocatorIS8_EEE6secondB8ue170006Ev, symObjAddr: 0x30D0, symBinAddr: 0x100047670, symSize: 0x24 }
  - { offsetInCU: 0xA64F, offset: 0x80317, size: 0x8, addend: 0x0, symName: __ZNKSt3__122__compressed_pair_elemINS_9allocatorIZNK3Rec4drawEP7GCanvasP6GFinalEUlR12GPathBuilderE_EELi1ELb1EE5__getB8ue170006Ev, symObjAddr: 0x30F4, symBinAddr: 0x100047694, symSize: 0x14 }
  - { offsetInCU: 0xA67D, offset: 0x80345, size: 0x8, addend: 0x0, symName: __ZNSt3__116allocator_traitsINS_9allocatorINS_10__function6__funcIZNK3Rec4drawEP7GCanvasP6GFinalEUlR12GPathBuilderE_NS1_ISB_EEFvSA_EEEEEE8max_sizeB8ue170006ISF_vEEmRKSF_, symObjAddr: 0x3108, symBinAddr: 0x1000476A8, symSize: 0x24 }
  - { offsetInCU: 0xA6AC, offset: 0x80374, size: 0x8, addend: 0x0, symName: __ZNKSt3__19allocatorINS_10__function6__funcIZNK3Rec4drawEP7GCanvasP6GFinalEUlR12GPathBuilderE_NS0_ISA_EEFvS9_EEEE8max_sizeB8ue170006Ev, symObjAddr: 0x31C0, symBinAddr: 0x1000476CC, symSize: 0x14 }
  - { offsetInCU: 0xA6D0, offset: 0x80398, size: 0x8, addend: 0x0, symName: __ZNSt3__122__allocator_destructorINS_9allocatorINS_10__function6__funcIZNK3Rec4drawEP7GCanvasP6GFinalEUlR12GPathBuilderE_NS1_ISB_EEFvSA_EEEEEEC2B8ue170006ERSF_m, symObjAddr: 0x3224, symBinAddr: 0x1000476E0, symSize: 0x2C }
  - { offsetInCU: 0xA715, offset: 0x803DD, size: 0x8, addend: 0x0, symName: __ZNSt3__110unique_ptrINS_10__function6__funcIZNK3Rec4drawEP7GCanvasP6GFinalEUlR12GPathBuilderE_NS_9allocatorISA_EEFvS9_EEENS_22__allocator_destructorINSB_ISE_EEEEEC2B8ue170006ILb1EvEEPSE_NS_16__dependent_typeINS_27__unique_ptr_deleter_sfinaeISH_EEXT_EE20__good_rval_ref_typeE, symObjAddr: 0x3250, symBinAddr: 0x10004770C, symSize: 0x48 }
  - { offsetInCU: 0xA765, offset: 0x8042D, size: 0x8, addend: 0x0, symName: __ZNSt3__117__compressed_pairIPNS_10__function6__funcIZNK3Rec4drawEP7GCanvasP6GFinalEUlR12GPathBuilderE_NS_9allocatorISA_EEFvS9_EEENS_22__allocator_destructorINSB_ISE_EEEEEC1B8ue170006IRSF_SI_EEOT_OT0_, symObjAddr: 0x3298, symBinAddr: 0x100047754, symSize: 0x3C }
  - { offsetInCU: 0xA7BC, offset: 0x80484, size: 0x8, addend: 0x0, symName: __ZNSt3__117__compressed_pairIPNS_10__function6__funcIZNK3Rec4drawEP7GCanvasP6GFinalEUlR12GPathBuilderE_NS_9allocatorISA_EEFvS9_EEENS_22__allocator_destructorINSB_ISE_EEEEEC2B8ue170006IRSF_SI_EEOT_OT0_, symObjAddr: 0x32D4, symBinAddr: 0x100047790, symSize: 0x48 }
  - { offsetInCU: 0xA813, offset: 0x804DB, size: 0x8, addend: 0x0, symName: __ZNSt3__122__compressed_pair_elemIPNS_10__function6__funcIZNK3Rec4drawEP7GCanvasP6GFinalEUlR12GPathBuilderE_NS_9allocatorISA_EEFvS9_EEELi0ELb0EEC2B8ue170006IRSF_vEEOT_, symObjAddr: 0x331C, symBinAddr: 0x1000477D8, symSize: 0x24 }
  - { offsetInCU: 0xA854, offset: 0x8051C, size: 0x8, addend: 0x0, symName: __ZNSt3__122__compressed_pair_elemINS_22__allocator_destructorINS_9allocatorINS_10__function6__funcIZNK3Rec4drawEP7GCanvasP6GFinalEUlR12GPathBuilderE_NS2_ISC_EEFvSB_EEEEEEELi1ELb0EEC2B8ue170006ISH_vEEOT_, symObjAddr: 0x3340, symBinAddr: 0x1000477FC, symSize: 0x24 }
  - { offsetInCU: 0xA895, offset: 0x8055D, size: 0x8, addend: 0x0, symName: __ZNKSt3__117__compressed_pairIPNS_10__function6__funcIZNK3Rec4drawEP7GCanvasP6GFinalEUlR12GPathBuilderE_NS_9allocatorISA_EEFvS9_EEENS_22__allocator_destructorINSB_ISE_EEEEE5firstB8ue170006Ev, symObjAddr: 0x3364, symBinAddr: 0x100047820, symSize: 0x24 }
  - { offsetInCU: 0xA8B9, offset: 0x80581, size: 0x8, addend: 0x0, symName: __ZNKSt3__122__compressed_pair_elemIPNS_10__function6__funcIZNK3Rec4drawEP7GCanvasP6GFinalEUlR12GPathBuilderE_NS_9allocatorISA_EEFvS9_EEELi0ELb0EE5__getB8ue170006Ev, symObjAddr: 0x3388, symBinAddr: 0x100047844, symSize: 0x14 }
  - { offsetInCU: 0xA8DD, offset: 0x805A5, size: 0x8, addend: 0x0, symName: __ZNKSt3__117__compressed_pairIZNK3Rec4drawEP7GCanvasP6GFinalEUlR12GPathBuilderE_NS_9allocatorIS8_EEE5firstB8ue170006Ev, symObjAddr: 0x339C, symBinAddr: 0x100047858, symSize: 0x24 }
  - { offsetInCU: 0xA901, offset: 0x805C9, size: 0x8, addend: 0x0, symName: __ZNKSt3__122__compressed_pair_elemIZNK3Rec4drawEP7GCanvasP6GFinalEUlR12GPathBuilderE_Li0ELb0EE5__getB8ue170006Ev, symObjAddr: 0x33C0, symBinAddr: 0x10004787C, symSize: 0x14 }
  - { offsetInCU: 0xA925, offset: 0x805ED, size: 0x8, addend: 0x0, symName: __ZNSt3__110__function6__funcIZNK3Rec4drawEP7GCanvasP6GFinalEUlR12GPathBuilderE_NS_9allocatorIS9_EEFvS8_EEC2B8ue170006ERKS9_OSB_, symObjAddr: 0x33D4, symBinAddr: 0x100047890, symSize: 0x88 }
  - { offsetInCU: 0xA96E, offset: 0x80636, size: 0x8, addend: 0x0, symName: __ZNSt3__110__function12__alloc_funcIZNK3Rec4drawEP7GCanvasP6GFinalEUlR12GPathBuilderE_NS_9allocatorIS9_EEFvS8_EEC1B8ue170006ERKS9_OSB_, symObjAddr: 0x345C, symBinAddr: 0x100047918, symSize: 0x3C }
  - { offsetInCU: 0xA9B3, offset: 0x8067B, size: 0x8, addend: 0x0, symName: __ZNSt3__110__function12__alloc_funcIZNK3Rec4drawEP7GCanvasP6GFinalEUlR12GPathBuilderE_NS_9allocatorIS9_EEFvS8_EEC2B8ue170006ERKS9_OSB_, symObjAddr: 0x3498, symBinAddr: 0x100047954, symSize: 0x5C }
  - { offsetInCU: 0xA9F8, offset: 0x806C0, size: 0x8, addend: 0x0, symName: __ZNSt3__117__compressed_pairIZNK3Rec4drawEP7GCanvasP6GFinalEUlR12GPathBuilderE_NS_9allocatorIS8_EEEC1B8ue170006IJRKS8_EJOSA_EEENS_21piecewise_construct_tENS_5tupleIJDpT_EEENSH_IJDpT0_EEE, symObjAddr: 0x3520, symBinAddr: 0x1000479DC, symSize: 0x3C }
  - { offsetInCU: 0xAA61, offset: 0x80729, size: 0x8, addend: 0x0, symName: __ZNSt3__15tupleIJRKZNK3Rec4drawEP7GCanvasP6GFinalEUlR12GPathBuilderE_EEC1B8ue170006INS_4_AndELi0EEESA_, symObjAddr: 0x355C, symBinAddr: 0x100047A18, symSize: 0x34 }
  - { offsetInCU: 0xAAAB, offset: 0x80773, size: 0x8, addend: 0x0, symName: __ZNSt3__15tupleIJRKZNK3Rec4drawEP7GCanvasP6GFinalEUlR12GPathBuilderE_EEC2B8ue170006INS_4_AndELi0EEESA_, symObjAddr: 0x3590, symBinAddr: 0x100047A4C, symSize: 0x34 }
  - { offsetInCU: 0xAAF5, offset: 0x807BD, size: 0x8, addend: 0x0, symName: __ZNSt3__112__tuple_implINS_15__tuple_indicesIJLm0EEEEJRKZNK3Rec4drawEP7GCanvasP6GFinalEUlR12GPathBuilderE_EEC1B8ue170006IJLm0EEJSC_EJEJEJSC_EEENS1_IJXspT_EEEENS_13__tuple_typesIJDpT0_EEENS1_IJXspT1_EEEENSG_IJDpT2_EEEDpOT3_, symObjAddr: 0x35C4, symBinAddr: 0x100047A80, symSize: 0x34 }
  - { offsetInCU: 0xAB8B, offset: 0x80853, size: 0x8, addend: 0x0, symName: __ZNSt3__112__tuple_implINS_15__tuple_indicesIJLm0EEEEJRKZNK3Rec4drawEP7GCanvasP6GFinalEUlR12GPathBuilderE_EEC2B8ue170006IJLm0EEJSC_EJEJEJSC_EEENS1_IJXspT_EEEENS_13__tuple_typesIJDpT0_EEENS1_IJXspT1_EEEENSG_IJDpT2_EEEDpOT3_, symObjAddr: 0x35F8, symBinAddr: 0x100047AB4, symSize: 0x34 }
  - { offsetInCU: 0xAC21, offset: 0x808E9, size: 0x8, addend: 0x0, symName: __ZNSt3__112__tuple_leafILm0ERKZNK3Rec4drawEP7GCanvasP6GFinalEUlR12GPathBuilderE_Lb0EEC2B8ue170006ISA_vEEOT_, symObjAddr: 0x362C, symBinAddr: 0x100047AE8, symSize: 0x20 }
  - { offsetInCU: 0xAC64, offset: 0x8092C, size: 0x8, addend: 0x0, symName: __ZNSt3__117__compressed_pairIZNK3Rec4drawEP7GCanvasP6GFinalEUlR12GPathBuilderE_NS_9allocatorIS8_EEEC2B8ue170006IJRKS8_EJOSA_EEENS_21piecewise_construct_tENS_5tupleIJDpT_EEENSH_IJDpT0_EEE, symObjAddr: 0x364C, symBinAddr: 0x100047B08, symSize: 0x54 }
  - { offsetInCU: 0xACCD, offset: 0x80995, size: 0x8, addend: 0x0, symName: __ZNSt3__122__compressed_pair_elemIZNK3Rec4drawEP7GCanvasP6GFinalEUlR12GPathBuilderE_Li0ELb0EEC2B8ue170006IJRKS8_EJLm0EEEENS_21piecewise_construct_tENS_5tupleIJDpT_EEENS_15__tuple_indicesIJXspT0_EEEE, symObjAddr: 0x36A0, symBinAddr: 0x100047B5C, symSize: 0x44 }
  - { offsetInCU: 0xAD32, offset: 0x809FA, size: 0x8, addend: 0x0, symName: __ZNSt3__112__tuple_leafILm0ERKZNK3Rec4drawEP7GCanvasP6GFinalEUlR12GPathBuilderE_Lb0EE3getB8ue170006Ev, symObjAddr: 0x3708, symBinAddr: 0x100047BC4, symSize: 0x18 }
  - { offsetInCU: 0xAD56, offset: 0x80A1E, size: 0x8, addend: 0x0, symName: __ZNSt3__117__compressed_pairIPNS_10__function6__funcIZNK3Rec4drawEP7GCanvasP6GFinalEUlR12GPathBuilderE_NS_9allocatorISA_EEFvS9_EEENS_22__allocator_destructorINSB_ISE_EEEEE5firstB8ue170006Ev, symObjAddr: 0x3720, symBinAddr: 0x100047BDC, symSize: 0x24 }
